ARM GAS  /tmp/cc4uKuIh.s 			page 1


   1              		.cpu cortex-m7
   2              		.arch armv7e-m
   3              		.fpu fpv5-d16
   4              		.eabi_attribute 28, 1
   5              		.eabi_attribute 20, 1
   6              		.eabi_attribute 21, 1
   7              		.eabi_attribute 23, 3
   8              		.eabi_attribute 24, 1
   9              		.eabi_attribute 25, 1
  10              		.eabi_attribute 26, 1
  11              		.eabi_attribute 30, 1
  12              		.eabi_attribute 34, 1
  13              		.eabi_attribute 18, 4
  14              		.file	"ethernetif.c"
  15              		.text
  16              	.Ltext0:
  17              		.cfi_sections	.debug_frame
  18              		.section	.text.low_level_input,"ax",%progbits
  19              		.align	1
  20              		.syntax unified
  21              		.thumb
  22              		.thumb_func
  24              	low_level_input:
  25              	.LVL0:
  26              	.LFB169:
  27              		.file 1 "LWIP/Target/ethernetif.c"
   1:LWIP/Target/ethernetif.c **** /* USER CODE BEGIN Header */
   2:LWIP/Target/ethernetif.c **** /**
   3:LWIP/Target/ethernetif.c ****   ******************************************************************************
   4:LWIP/Target/ethernetif.c ****   * File Name          : ethernetif.c
   5:LWIP/Target/ethernetif.c ****   * Description        : This file provides code for the configuration
   6:LWIP/Target/ethernetif.c ****   *                      of the ethernetif.c MiddleWare.
   7:LWIP/Target/ethernetif.c ****   ******************************************************************************
   8:LWIP/Target/ethernetif.c ****   * @attention
   9:LWIP/Target/ethernetif.c ****   *
  10:LWIP/Target/ethernetif.c ****   * Copyright (c) 2023 STMicroelectronics.
  11:LWIP/Target/ethernetif.c ****   * All rights reserved.
  12:LWIP/Target/ethernetif.c ****   *
  13:LWIP/Target/ethernetif.c ****   * This software is licensed under terms that can be found in the LICENSE file
  14:LWIP/Target/ethernetif.c ****   * in the root directory of this software component.
  15:LWIP/Target/ethernetif.c ****   * If no LICENSE file comes with this software, it is provided AS-IS.
  16:LWIP/Target/ethernetif.c ****   *
  17:LWIP/Target/ethernetif.c ****   ******************************************************************************
  18:LWIP/Target/ethernetif.c ****   */
  19:LWIP/Target/ethernetif.c **** /* USER CODE END Header */
  20:LWIP/Target/ethernetif.c **** 
  21:LWIP/Target/ethernetif.c **** /* Includes ------------------------------------------------------------------*/
  22:LWIP/Target/ethernetif.c **** #include "main.h"
  23:LWIP/Target/ethernetif.c **** #include "lwip/opt.h"
  24:LWIP/Target/ethernetif.c **** #include "lwip/mem.h"
  25:LWIP/Target/ethernetif.c **** #include "lwip/memp.h"
  26:LWIP/Target/ethernetif.c **** #include "lwip/timeouts.h"
  27:LWIP/Target/ethernetif.c **** #include "netif/ethernet.h"
  28:LWIP/Target/ethernetif.c **** #include "netif/etharp.h"
  29:LWIP/Target/ethernetif.c **** #include "lwip/ethip6.h"
  30:LWIP/Target/ethernetif.c **** #include "ethernetif.h"
  31:LWIP/Target/ethernetif.c **** /* USER CODE BEGIN Include for User BSP */
ARM GAS  /tmp/cc4uKuIh.s 			page 2


  32:LWIP/Target/ethernetif.c **** 
  33:LWIP/Target/ethernetif.c **** /* USER CODE END Include for User BSP */
  34:LWIP/Target/ethernetif.c **** #include <string.h>
  35:LWIP/Target/ethernetif.c **** 
  36:LWIP/Target/ethernetif.c **** /* Within 'USER CODE' section, code will be kept by default at each generation */
  37:LWIP/Target/ethernetif.c **** /* USER CODE BEGIN 0 */
  38:LWIP/Target/ethernetif.c **** 
  39:LWIP/Target/ethernetif.c **** /* USER CODE END 0 */
  40:LWIP/Target/ethernetif.c **** 
  41:LWIP/Target/ethernetif.c **** /* Private define ------------------------------------------------------------*/
  42:LWIP/Target/ethernetif.c **** 
  43:LWIP/Target/ethernetif.c **** /* Network interface name */
  44:LWIP/Target/ethernetif.c **** #define IFNAME0 's'
  45:LWIP/Target/ethernetif.c **** #define IFNAME1 't'
  46:LWIP/Target/ethernetif.c **** 
  47:LWIP/Target/ethernetif.c **** /* ETH Setting  */
  48:LWIP/Target/ethernetif.c **** #define ETH_DMA_TRANSMIT_TIMEOUT               ( 20U )
  49:LWIP/Target/ethernetif.c **** #define ETH_TX_BUFFER_MAX             ((ETH_TX_DESC_CNT) * 2U)
  50:LWIP/Target/ethernetif.c **** 
  51:LWIP/Target/ethernetif.c **** /* USER CODE BEGIN 1 */
  52:LWIP/Target/ethernetif.c **** 
  53:LWIP/Target/ethernetif.c **** /* USER CODE END 1 */
  54:LWIP/Target/ethernetif.c **** 
  55:LWIP/Target/ethernetif.c **** /* Private variables ---------------------------------------------------------*/
  56:LWIP/Target/ethernetif.c **** /*
  57:LWIP/Target/ethernetif.c **** @Note: This interface is implemented to operate in zero-copy mode only:
  58:LWIP/Target/ethernetif.c ****         - Rx buffers will be allocated from LwIP stack memory heap,
  59:LWIP/Target/ethernetif.c ****           then passed to ETH HAL driver.
  60:LWIP/Target/ethernetif.c ****         - Tx buffers will be allocated from LwIP stack memory heap,
  61:LWIP/Target/ethernetif.c ****           then passed to ETH HAL driver.
  62:LWIP/Target/ethernetif.c **** 
  63:LWIP/Target/ethernetif.c **** @Notes:
  64:LWIP/Target/ethernetif.c ****   1.a. ETH DMA Rx descriptors must be contiguous, the default count is 4,
  65:LWIP/Target/ethernetif.c ****        to customize it please redefine ETH_RX_DESC_CNT in ETH GUI (Rx Descriptor Length)
  66:LWIP/Target/ethernetif.c ****        so that updated value will be generated in stm32xxxx_hal_conf.h
  67:LWIP/Target/ethernetif.c ****   1.b. ETH DMA Tx descriptors must be contiguous, the default count is 4,
  68:LWIP/Target/ethernetif.c ****        to customize it please redefine ETH_TX_DESC_CNT in ETH GUI (Tx Descriptor Length)
  69:LWIP/Target/ethernetif.c ****        so that updated value will be generated in stm32xxxx_hal_conf.h
  70:LWIP/Target/ethernetif.c **** 
  71:LWIP/Target/ethernetif.c ****   2.a. Rx Buffers number must be between ETH_RX_DESC_CNT and 2*ETH_RX_DESC_CNT
  72:LWIP/Target/ethernetif.c ****   2.b. Rx Buffers must have the same size: ETH_RX_BUF_SIZE, this value must
  73:LWIP/Target/ethernetif.c ****        passed to ETH DMA in the init field (heth.Init.RxBuffLen)
  74:LWIP/Target/ethernetif.c ****   2.c  The RX Ruffers addresses and sizes must be properly defined to be aligned
  75:LWIP/Target/ethernetif.c ****        to L1-CACHE line size (32 bytes).
  76:LWIP/Target/ethernetif.c **** */
  77:LWIP/Target/ethernetif.c **** 
  78:LWIP/Target/ethernetif.c **** /* Data Type Definitions */
  79:LWIP/Target/ethernetif.c **** typedef enum
  80:LWIP/Target/ethernetif.c **** {
  81:LWIP/Target/ethernetif.c ****   RX_ALLOC_OK       = 0x00,
  82:LWIP/Target/ethernetif.c ****   RX_ALLOC_ERROR    = 0x01
  83:LWIP/Target/ethernetif.c **** } RxAllocStatusTypeDef;
  84:LWIP/Target/ethernetif.c **** 
  85:LWIP/Target/ethernetif.c **** typedef struct
  86:LWIP/Target/ethernetif.c **** {
  87:LWIP/Target/ethernetif.c ****   struct pbuf_custom pbuf_custom;
  88:LWIP/Target/ethernetif.c ****   uint8_t buff[(ETH_RX_BUF_SIZE + 31) & ~31] __ALIGNED(32);
ARM GAS  /tmp/cc4uKuIh.s 			page 3


  89:LWIP/Target/ethernetif.c **** } RxBuff_t;
  90:LWIP/Target/ethernetif.c **** 
  91:LWIP/Target/ethernetif.c **** /* Memory Pool Declaration */
  92:LWIP/Target/ethernetif.c **** #define ETH_RX_BUFFER_CNT             12U
  93:LWIP/Target/ethernetif.c **** LWIP_MEMPOOL_DECLARE(RX_POOL, ETH_RX_BUFFER_CNT, sizeof(RxBuff_t), "Zero-copy RX PBUF pool");
  94:LWIP/Target/ethernetif.c **** 
  95:LWIP/Target/ethernetif.c **** /* Variable Definitions */
  96:LWIP/Target/ethernetif.c **** static uint8_t RxAllocStatus;
  97:LWIP/Target/ethernetif.c **** 
  98:LWIP/Target/ethernetif.c **** #if defined ( __ICCARM__ ) /*!< IAR Compiler */
  99:LWIP/Target/ethernetif.c **** 
 100:LWIP/Target/ethernetif.c **** #pragma location=0x2007c000
 101:LWIP/Target/ethernetif.c **** ETH_DMADescTypeDef  DMARxDscrTab[ETH_RX_DESC_CNT]; /* Ethernet Rx DMA Descriptors */
 102:LWIP/Target/ethernetif.c **** #pragma location=0x2007c0a0
 103:LWIP/Target/ethernetif.c **** ETH_DMADescTypeDef  DMATxDscrTab[ETH_TX_DESC_CNT]; /* Ethernet Tx DMA Descriptors */
 104:LWIP/Target/ethernetif.c **** 
 105:LWIP/Target/ethernetif.c **** #elif defined ( __CC_ARM )  /* MDK ARM Compiler */
 106:LWIP/Target/ethernetif.c **** 
 107:LWIP/Target/ethernetif.c **** __attribute__((at(0x2007c000))) ETH_DMADescTypeDef  DMARxDscrTab[ETH_RX_DESC_CNT]; /* Ethernet Rx D
 108:LWIP/Target/ethernetif.c **** __attribute__((at(0x2007c0a0))) ETH_DMADescTypeDef  DMATxDscrTab[ETH_TX_DESC_CNT]; /* Ethernet Tx D
 109:LWIP/Target/ethernetif.c **** 
 110:LWIP/Target/ethernetif.c **** #elif defined ( __GNUC__ ) /* GNU Compiler */
 111:LWIP/Target/ethernetif.c **** 
 112:LWIP/Target/ethernetif.c **** ETH_DMADescTypeDef DMARxDscrTab[ETH_RX_DESC_CNT] __attribute__((section(".RxDecripSection"))); /* E
 113:LWIP/Target/ethernetif.c **** ETH_DMADescTypeDef DMATxDscrTab[ETH_TX_DESC_CNT] __attribute__((section(".TxDecripSection")));   /*
 114:LWIP/Target/ethernetif.c **** 
 115:LWIP/Target/ethernetif.c **** #endif
 116:LWIP/Target/ethernetif.c **** 
 117:LWIP/Target/ethernetif.c **** /* USER CODE BEGIN 2 */
 118:LWIP/Target/ethernetif.c **** 
 119:LWIP/Target/ethernetif.c **** /* USER CODE END 2 */
 120:LWIP/Target/ethernetif.c **** 
 121:LWIP/Target/ethernetif.c **** /* Global Ethernet handle */
 122:LWIP/Target/ethernetif.c **** ETH_HandleTypeDef heth;
 123:LWIP/Target/ethernetif.c **** ETH_TxPacketConfig TxConfig;
 124:LWIP/Target/ethernetif.c **** 
 125:LWIP/Target/ethernetif.c **** /* Private function prototypes -----------------------------------------------*/
 126:LWIP/Target/ethernetif.c **** /* USER CODE BEGIN Private function prototypes for User BSP */
 127:LWIP/Target/ethernetif.c **** 
 128:LWIP/Target/ethernetif.c **** /* USER CODE END Private function prototypes for User BSP */
 129:LWIP/Target/ethernetif.c **** 
 130:LWIP/Target/ethernetif.c **** /* USER CODE BEGIN 3 */
 131:LWIP/Target/ethernetif.c **** 
 132:LWIP/Target/ethernetif.c **** /* USER CODE END 3 */
 133:LWIP/Target/ethernetif.c **** 
 134:LWIP/Target/ethernetif.c **** /* Private functions ---------------------------------------------------------*/
 135:LWIP/Target/ethernetif.c **** void pbuf_free_custom(struct pbuf *p);
 136:LWIP/Target/ethernetif.c **** 
 137:LWIP/Target/ethernetif.c **** /* USER CODE BEGIN 4 */
 138:LWIP/Target/ethernetif.c **** 
 139:LWIP/Target/ethernetif.c **** /* USER CODE END 4 */
 140:LWIP/Target/ethernetif.c **** 
 141:LWIP/Target/ethernetif.c **** /*******************************************************************************
 142:LWIP/Target/ethernetif.c ****                        LL Driver Interface ( LwIP stack --> ETH)
 143:LWIP/Target/ethernetif.c **** *******************************************************************************/
 144:LWIP/Target/ethernetif.c **** /**
 145:LWIP/Target/ethernetif.c ****  * @brief In this function, the hardware should be initialized.
ARM GAS  /tmp/cc4uKuIh.s 			page 4


 146:LWIP/Target/ethernetif.c ****  * Called from ethernetif_init().
 147:LWIP/Target/ethernetif.c ****  *
 148:LWIP/Target/ethernetif.c ****  * @param netif the already initialized lwip network interface structure
 149:LWIP/Target/ethernetif.c ****  *        for this ethernetif
 150:LWIP/Target/ethernetif.c ****  */
 151:LWIP/Target/ethernetif.c **** static void low_level_init(struct netif *netif)
 152:LWIP/Target/ethernetif.c **** {
 153:LWIP/Target/ethernetif.c ****   HAL_StatusTypeDef hal_eth_init_status = HAL_OK;
 154:LWIP/Target/ethernetif.c ****   /* Start ETH HAL Init */
 155:LWIP/Target/ethernetif.c **** 
 156:LWIP/Target/ethernetif.c ****    uint8_t MACAddr[6] ;
 157:LWIP/Target/ethernetif.c ****   heth.Instance = ETH;
 158:LWIP/Target/ethernetif.c ****   MACAddr[0] = 0x00;
 159:LWIP/Target/ethernetif.c ****   MACAddr[1] = 0x80;
 160:LWIP/Target/ethernetif.c ****   MACAddr[2] = 0xE1;
 161:LWIP/Target/ethernetif.c ****   MACAddr[3] = 0x00;
 162:LWIP/Target/ethernetif.c ****   MACAddr[4] = 0x00;
 163:LWIP/Target/ethernetif.c ****   MACAddr[5] = 0x00;
 164:LWIP/Target/ethernetif.c ****   heth.Init.MACAddr = &MACAddr[0];
 165:LWIP/Target/ethernetif.c ****   heth.Init.MediaInterface = HAL_ETH_RMII_MODE;
 166:LWIP/Target/ethernetif.c ****   heth.Init.TxDesc = DMATxDscrTab;
 167:LWIP/Target/ethernetif.c ****   heth.Init.RxDesc = DMARxDscrTab;
 168:LWIP/Target/ethernetif.c ****   heth.Init.RxBuffLen = 1536;
 169:LWIP/Target/ethernetif.c **** 
 170:LWIP/Target/ethernetif.c ****   /* USER CODE BEGIN MACADDRESS */
 171:LWIP/Target/ethernetif.c **** 
 172:LWIP/Target/ethernetif.c ****   /* USER CODE END MACADDRESS */
 173:LWIP/Target/ethernetif.c **** 
 174:LWIP/Target/ethernetif.c ****   hal_eth_init_status = HAL_ETH_Init(&heth);
 175:LWIP/Target/ethernetif.c **** 
 176:LWIP/Target/ethernetif.c ****   memset(&TxConfig, 0 , sizeof(ETH_TxPacketConfig));
 177:LWIP/Target/ethernetif.c ****   TxConfig.Attributes = ETH_TX_PACKETS_FEATURES_CSUM | ETH_TX_PACKETS_FEATURES_CRCPAD;
 178:LWIP/Target/ethernetif.c ****   TxConfig.ChecksumCtrl = ETH_CHECKSUM_IPHDR_PAYLOAD_INSERT_PHDR_CALC;
 179:LWIP/Target/ethernetif.c ****   TxConfig.CRCPadCtrl = ETH_CRC_PAD_INSERT;
 180:LWIP/Target/ethernetif.c **** 
 181:LWIP/Target/ethernetif.c ****   /* End ETH HAL Init */
 182:LWIP/Target/ethernetif.c **** 
 183:LWIP/Target/ethernetif.c ****   /* Initialize the RX POOL */
 184:LWIP/Target/ethernetif.c ****   LWIP_MEMPOOL_INIT(RX_POOL);
 185:LWIP/Target/ethernetif.c **** 
 186:LWIP/Target/ethernetif.c **** #if LWIP_ARP || LWIP_ETHERNET
 187:LWIP/Target/ethernetif.c **** 
 188:LWIP/Target/ethernetif.c ****   /* set MAC hardware address length */
 189:LWIP/Target/ethernetif.c ****   netif->hwaddr_len = ETH_HWADDR_LEN;
 190:LWIP/Target/ethernetif.c **** 
 191:LWIP/Target/ethernetif.c ****   /* set MAC hardware address */
 192:LWIP/Target/ethernetif.c ****   netif->hwaddr[0] =  heth.Init.MACAddr[0];
 193:LWIP/Target/ethernetif.c ****   netif->hwaddr[1] =  heth.Init.MACAddr[1];
 194:LWIP/Target/ethernetif.c ****   netif->hwaddr[2] =  heth.Init.MACAddr[2];
 195:LWIP/Target/ethernetif.c ****   netif->hwaddr[3] =  heth.Init.MACAddr[3];
 196:LWIP/Target/ethernetif.c ****   netif->hwaddr[4] =  heth.Init.MACAddr[4];
 197:LWIP/Target/ethernetif.c ****   netif->hwaddr[5] =  heth.Init.MACAddr[5];
 198:LWIP/Target/ethernetif.c **** 
 199:LWIP/Target/ethernetif.c ****   /* maximum transfer unit */
 200:LWIP/Target/ethernetif.c ****   netif->mtu = ETH_MAX_PAYLOAD;
 201:LWIP/Target/ethernetif.c **** 
 202:LWIP/Target/ethernetif.c ****   /* Accept broadcast address and ARP traffic */
ARM GAS  /tmp/cc4uKuIh.s 			page 5


 203:LWIP/Target/ethernetif.c ****   /* don't set NETIF_FLAG_ETHARP if this device is not an ethernet one */
 204:LWIP/Target/ethernetif.c ****   #if LWIP_ARP
 205:LWIP/Target/ethernetif.c ****     netif->flags |= NETIF_FLAG_BROADCAST | NETIF_FLAG_ETHARP;
 206:LWIP/Target/ethernetif.c ****   #else
 207:LWIP/Target/ethernetif.c ****     netif->flags |= NETIF_FLAG_BROADCAST;
 208:LWIP/Target/ethernetif.c ****   #endif /* LWIP_ARP */
 209:LWIP/Target/ethernetif.c **** 
 210:LWIP/Target/ethernetif.c **** /* USER CODE BEGIN low_level_init Code 1 for User BSP */
 211:LWIP/Target/ethernetif.c **** 
 212:LWIP/Target/ethernetif.c **** /* USER CODE END low_level_init Code 1 for User BSP */
 213:LWIP/Target/ethernetif.c **** 
 214:LWIP/Target/ethernetif.c ****   if (hal_eth_init_status == HAL_OK)
 215:LWIP/Target/ethernetif.c ****   {
 216:LWIP/Target/ethernetif.c ****   /* Get link state */
 217:LWIP/Target/ethernetif.c ****   ethernet_link_check_state(netif);
 218:LWIP/Target/ethernetif.c ****   }
 219:LWIP/Target/ethernetif.c ****   else
 220:LWIP/Target/ethernetif.c ****   {
 221:LWIP/Target/ethernetif.c ****     Error_Handler();
 222:LWIP/Target/ethernetif.c ****   }
 223:LWIP/Target/ethernetif.c **** #endif /* LWIP_ARP || LWIP_ETHERNET */
 224:LWIP/Target/ethernetif.c **** 
 225:LWIP/Target/ethernetif.c **** /* USER CODE BEGIN LOW_LEVEL_INIT */
 226:LWIP/Target/ethernetif.c **** 
 227:LWIP/Target/ethernetif.c **** /* USER CODE END LOW_LEVEL_INIT */
 228:LWIP/Target/ethernetif.c **** }
 229:LWIP/Target/ethernetif.c **** 
 230:LWIP/Target/ethernetif.c **** /**
 231:LWIP/Target/ethernetif.c ****  * @brief This function should do the actual transmission of the packet. The packet is
 232:LWIP/Target/ethernetif.c ****  * contained in the pbuf that is passed to the function. This pbuf
 233:LWIP/Target/ethernetif.c ****  * might be chained.
 234:LWIP/Target/ethernetif.c ****  *
 235:LWIP/Target/ethernetif.c ****  * @param netif the lwip network interface structure for this ethernetif
 236:LWIP/Target/ethernetif.c ****  * @param p the MAC packet to send (e.g. IP packet including MAC addresses and type)
 237:LWIP/Target/ethernetif.c ****  * @return ERR_OK if the packet could be sent
 238:LWIP/Target/ethernetif.c ****  *         an err_t value if the packet couldn't be sent
 239:LWIP/Target/ethernetif.c ****  *
 240:LWIP/Target/ethernetif.c ****  * @note Returning ERR_MEM here if a DMA queue of your MAC is full can lead to
 241:LWIP/Target/ethernetif.c ****  *       strange results. You might consider waiting for space in the DMA queue
 242:LWIP/Target/ethernetif.c ****  *       to become available since the stack doesn't retry to send a packet
 243:LWIP/Target/ethernetif.c ****  *       dropped because of memory failure (except for the TCP timers).
 244:LWIP/Target/ethernetif.c ****  */
 245:LWIP/Target/ethernetif.c **** 
 246:LWIP/Target/ethernetif.c **** static err_t low_level_output(struct netif *netif, struct pbuf *p)
 247:LWIP/Target/ethernetif.c **** {
 248:LWIP/Target/ethernetif.c ****   uint32_t i = 0U;
 249:LWIP/Target/ethernetif.c ****   struct pbuf *q = NULL;
 250:LWIP/Target/ethernetif.c ****   err_t errval = ERR_OK;
 251:LWIP/Target/ethernetif.c ****   ETH_BufferTypeDef Txbuffer[ETH_TX_DESC_CNT] = {0};
 252:LWIP/Target/ethernetif.c **** 
 253:LWIP/Target/ethernetif.c ****   memset(Txbuffer, 0 , ETH_TX_DESC_CNT*sizeof(ETH_BufferTypeDef));
 254:LWIP/Target/ethernetif.c **** 
 255:LWIP/Target/ethernetif.c ****   for(q = p; q != NULL; q = q->next)
 256:LWIP/Target/ethernetif.c ****   {
 257:LWIP/Target/ethernetif.c ****     if(i >= ETH_TX_DESC_CNT)
 258:LWIP/Target/ethernetif.c ****       return ERR_IF;
 259:LWIP/Target/ethernetif.c **** 
ARM GAS  /tmp/cc4uKuIh.s 			page 6


 260:LWIP/Target/ethernetif.c ****     Txbuffer[i].buffer = q->payload;
 261:LWIP/Target/ethernetif.c ****     Txbuffer[i].len = q->len;
 262:LWIP/Target/ethernetif.c **** 
 263:LWIP/Target/ethernetif.c ****     if(i>0)
 264:LWIP/Target/ethernetif.c ****     {
 265:LWIP/Target/ethernetif.c ****       Txbuffer[i-1].next = &Txbuffer[i];
 266:LWIP/Target/ethernetif.c ****     }
 267:LWIP/Target/ethernetif.c **** 
 268:LWIP/Target/ethernetif.c ****     if(q->next == NULL)
 269:LWIP/Target/ethernetif.c ****     {
 270:LWIP/Target/ethernetif.c ****       Txbuffer[i].next = NULL;
 271:LWIP/Target/ethernetif.c ****     }
 272:LWIP/Target/ethernetif.c **** 
 273:LWIP/Target/ethernetif.c ****     i++;
 274:LWIP/Target/ethernetif.c ****   }
 275:LWIP/Target/ethernetif.c **** 
 276:LWIP/Target/ethernetif.c ****   TxConfig.Length = p->tot_len;
 277:LWIP/Target/ethernetif.c ****   TxConfig.TxBuffer = Txbuffer;
 278:LWIP/Target/ethernetif.c ****   TxConfig.pData = p;
 279:LWIP/Target/ethernetif.c **** 
 280:LWIP/Target/ethernetif.c ****   HAL_ETH_Transmit(&heth, &TxConfig, ETH_DMA_TRANSMIT_TIMEOUT);
 281:LWIP/Target/ethernetif.c **** 
 282:LWIP/Target/ethernetif.c ****   return errval;
 283:LWIP/Target/ethernetif.c **** }
 284:LWIP/Target/ethernetif.c **** 
 285:LWIP/Target/ethernetif.c **** /**
 286:LWIP/Target/ethernetif.c ****  * @brief Should allocate a pbuf and transfer the bytes of the incoming
 287:LWIP/Target/ethernetif.c ****  * packet from the interface into the pbuf.
 288:LWIP/Target/ethernetif.c ****  *
 289:LWIP/Target/ethernetif.c ****  * @param netif the lwip network interface structure for this ethernetif
 290:LWIP/Target/ethernetif.c ****  * @return a pbuf filled with the received packet (including MAC header)
 291:LWIP/Target/ethernetif.c ****  *         NULL on memory error
 292:LWIP/Target/ethernetif.c ****    */
 293:LWIP/Target/ethernetif.c **** static struct pbuf * low_level_input(struct netif *netif)
 294:LWIP/Target/ethernetif.c **** {
  28              		.loc 1 294 1 view -0
  29              		.cfi_startproc
  30              		@ args = 0, pretend = 0, frame = 8
  31              		@ frame_needed = 0, uses_anonymous_args = 0
  32              		.loc 1 294 1 is_stmt 0 view .LVU1
  33 0000 00B5     		push	{lr}
  34              	.LCFI0:
  35              		.cfi_def_cfa_offset 4
  36              		.cfi_offset 14, -4
  37 0002 83B0     		sub	sp, sp, #12
  38              	.LCFI1:
  39              		.cfi_def_cfa_offset 16
 295:LWIP/Target/ethernetif.c ****   struct pbuf *p = NULL;
  40              		.loc 1 295 3 is_stmt 1 view .LVU2
  41              		.loc 1 295 16 is_stmt 0 view .LVU3
  42 0004 0023     		movs	r3, #0
  43 0006 0193     		str	r3, [sp, #4]
 296:LWIP/Target/ethernetif.c **** 
 297:LWIP/Target/ethernetif.c ****   if(RxAllocStatus == RX_ALLOC_OK)
  44              		.loc 1 297 3 is_stmt 1 view .LVU4
  45              		.loc 1 297 20 is_stmt 0 view .LVU5
  46 0008 054B     		ldr	r3, .L5
ARM GAS  /tmp/cc4uKuIh.s 			page 7


  47 000a 1B78     		ldrb	r3, [r3]	@ zero_extendqisi2
  48              		.loc 1 297 5 view .LVU6
  49 000c 1BB1     		cbz	r3, .L4
  50              	.LVL1:
  51              	.L2:
 298:LWIP/Target/ethernetif.c ****   {
 299:LWIP/Target/ethernetif.c ****     HAL_ETH_ReadData(&heth, (void **)&p);
 300:LWIP/Target/ethernetif.c ****   }
 301:LWIP/Target/ethernetif.c **** 
 302:LWIP/Target/ethernetif.c ****   return p;
  52              		.loc 1 302 3 is_stmt 1 view .LVU7
 303:LWIP/Target/ethernetif.c **** }
  53              		.loc 1 303 1 is_stmt 0 view .LVU8
  54 000e 0198     		ldr	r0, [sp, #4]
  55 0010 03B0     		add	sp, sp, #12
  56              	.LCFI2:
  57              		.cfi_remember_state
  58              		.cfi_def_cfa_offset 4
  59              		@ sp needed
  60 0012 5DF804FB 		ldr	pc, [sp], #4
  61              	.LVL2:
  62              	.L4:
  63              	.LCFI3:
  64              		.cfi_restore_state
 299:LWIP/Target/ethernetif.c ****   }
  65              		.loc 1 299 5 is_stmt 1 view .LVU9
  66 0016 01A9     		add	r1, sp, #4
  67 0018 0248     		ldr	r0, .L5+4
  68              	.LVL3:
 299:LWIP/Target/ethernetif.c ****   }
  69              		.loc 1 299 5 is_stmt 0 view .LVU10
  70 001a FFF7FEFF 		bl	HAL_ETH_ReadData
  71              	.LVL4:
  72 001e F6E7     		b	.L2
  73              	.L6:
  74              		.align	2
  75              	.L5:
  76 0020 00000000 		.word	.LANCHOR0
  77 0024 00000000 		.word	.LANCHOR1
  78              		.cfi_endproc
  79              	.LFE169:
  81              		.section	.text.low_level_output,"ax",%progbits
  82              		.align	1
  83              		.syntax unified
  84              		.thumb
  85              		.thumb_func
  87              	low_level_output:
  88              	.LVL5:
  89              	.LFB168:
 247:LWIP/Target/ethernetif.c ****   uint32_t i = 0U;
  90              		.loc 1 247 1 is_stmt 1 view -0
  91              		.cfi_startproc
  92              		@ args = 0, pretend = 0, frame = 48
  93              		@ frame_needed = 0, uses_anonymous_args = 0
 247:LWIP/Target/ethernetif.c ****   uint32_t i = 0U;
  94              		.loc 1 247 1 is_stmt 0 view .LVU12
  95 0000 30B5     		push	{r4, r5, lr}
ARM GAS  /tmp/cc4uKuIh.s 			page 8


  96              	.LCFI4:
  97              		.cfi_def_cfa_offset 12
  98              		.cfi_offset 4, -12
  99              		.cfi_offset 5, -8
 100              		.cfi_offset 14, -4
 101 0002 8DB0     		sub	sp, sp, #52
 102              	.LCFI5:
 103              		.cfi_def_cfa_offset 64
 104 0004 0C46     		mov	r4, r1
 248:LWIP/Target/ethernetif.c ****   struct pbuf *q = NULL;
 105              		.loc 1 248 3 is_stmt 1 view .LVU13
 106              	.LVL6:
 249:LWIP/Target/ethernetif.c ****   err_t errval = ERR_OK;
 107              		.loc 1 249 3 view .LVU14
 250:LWIP/Target/ethernetif.c ****   ETH_BufferTypeDef Txbuffer[ETH_TX_DESC_CNT] = {0};
 108              		.loc 1 250 3 view .LVU15
 251:LWIP/Target/ethernetif.c **** 
 109              		.loc 1 251 3 view .LVU16
 251:LWIP/Target/ethernetif.c **** 
 110              		.loc 1 251 21 is_stmt 0 view .LVU17
 111 0006 3025     		movs	r5, #48
 112 0008 2A46     		mov	r2, r5
 113 000a 0021     		movs	r1, #0
 114              	.LVL7:
 251:LWIP/Target/ethernetif.c **** 
 115              		.loc 1 251 21 view .LVU18
 116 000c 6846     		mov	r0, sp
 117              	.LVL8:
 251:LWIP/Target/ethernetif.c **** 
 118              		.loc 1 251 21 view .LVU19
 119 000e FFF7FEFF 		bl	memset
 120              	.LVL9:
 253:LWIP/Target/ethernetif.c **** 
 121              		.loc 1 253 3 is_stmt 1 view .LVU20
 122 0012 2A46     		mov	r2, r5
 123 0014 0021     		movs	r1, #0
 124 0016 6846     		mov	r0, sp
 125 0018 FFF7FEFF 		bl	memset
 126              	.LVL10:
 255:LWIP/Target/ethernetif.c ****   {
 127              		.loc 1 255 3 view .LVU21
 255:LWIP/Target/ethernetif.c ****   {
 128              		.loc 1 255 9 is_stmt 0 view .LVU22
 129 001c 2246     		mov	r2, r4
 248:LWIP/Target/ethernetif.c ****   struct pbuf *q = NULL;
 130              		.loc 1 248 12 view .LVU23
 131 001e 0023     		movs	r3, #0
 255:LWIP/Target/ethernetif.c ****   {
 132              		.loc 1 255 3 view .LVU24
 133 0020 03E0     		b	.L8
 134              	.LVL11:
 135              	.L10:
 268:LWIP/Target/ethernetif.c ****     {
 136              		.loc 1 268 5 is_stmt 1 view .LVU25
 268:LWIP/Target/ethernetif.c ****     {
 137              		.loc 1 268 9 is_stmt 0 view .LVU26
 138 0022 1168     		ldr	r1, [r2]
ARM GAS  /tmp/cc4uKuIh.s 			page 9


 268:LWIP/Target/ethernetif.c ****     {
 139              		.loc 1 268 7 view .LVU27
 140 0024 E9B1     		cbz	r1, .L15
 141              	.L11:
 273:LWIP/Target/ethernetif.c ****   }
 142              		.loc 1 273 5 is_stmt 1 discriminator 2 view .LVU28
 273:LWIP/Target/ethernetif.c ****   }
 143              		.loc 1 273 6 is_stmt 0 discriminator 2 view .LVU29
 144 0026 0133     		adds	r3, r3, #1
 145              	.LVL12:
 255:LWIP/Target/ethernetif.c ****   {
 146              		.loc 1 255 25 is_stmt 1 discriminator 2 view .LVU30
 255:LWIP/Target/ethernetif.c ****   {
 147              		.loc 1 255 27 is_stmt 0 discriminator 2 view .LVU31
 148 0028 1268     		ldr	r2, [r2]
 149              	.LVL13:
 150              	.L8:
 255:LWIP/Target/ethernetif.c ****   {
 151              		.loc 1 255 14 is_stmt 1 discriminator 1 view .LVU32
 255:LWIP/Target/ethernetif.c ****   {
 152              		.loc 1 255 3 is_stmt 0 discriminator 1 view .LVU33
 153 002a 1AB3     		cbz	r2, .L16
 257:LWIP/Target/ethernetif.c ****       return ERR_IF;
 154              		.loc 1 257 5 is_stmt 1 view .LVU34
 257:LWIP/Target/ethernetif.c ****       return ERR_IF;
 155              		.loc 1 257 7 is_stmt 0 view .LVU35
 156 002c 032B     		cmp	r3, #3
 157 002e 2DD8     		bhi	.L13
 260:LWIP/Target/ethernetif.c ****     Txbuffer[i].len = q->len;
 158              		.loc 1 260 5 is_stmt 1 view .LVU36
 260:LWIP/Target/ethernetif.c ****     Txbuffer[i].len = q->len;
 159              		.loc 1 260 27 is_stmt 0 view .LVU37
 160 0030 5168     		ldr	r1, [r2, #4]
 260:LWIP/Target/ethernetif.c ****     Txbuffer[i].len = q->len;
 161              		.loc 1 260 24 view .LVU38
 162 0032 03EB4300 		add	r0, r3, r3, lsl #1
 163 0036 0CAD     		add	r5, sp, #48
 164 0038 05EB8000 		add	r0, r5, r0, lsl #2
 165 003c 40F8301C 		str	r1, [r0, #-48]
 261:LWIP/Target/ethernetif.c **** 
 166              		.loc 1 261 5 is_stmt 1 view .LVU39
 261:LWIP/Target/ethernetif.c **** 
 167              		.loc 1 261 24 is_stmt 0 view .LVU40
 168 0040 5189     		ldrh	r1, [r2, #10]
 261:LWIP/Target/ethernetif.c **** 
 169              		.loc 1 261 21 view .LVU41
 170 0042 40F82C1C 		str	r1, [r0, #-44]
 263:LWIP/Target/ethernetif.c ****     {
 171              		.loc 1 263 5 is_stmt 1 view .LVU42
 263:LWIP/Target/ethernetif.c ****     {
 172              		.loc 1 263 7 is_stmt 0 view .LVU43
 173 0046 002B     		cmp	r3, #0
 174 0048 EBD0     		beq	.L10
 265:LWIP/Target/ethernetif.c ****     }
 175              		.loc 1 265 7 is_stmt 1 view .LVU44
 265:LWIP/Target/ethernetif.c ****     }
 176              		.loc 1 265 17 is_stmt 0 view .LVU45
ARM GAS  /tmp/cc4uKuIh.s 			page 10


 177 004a 581E     		subs	r0, r3, #1
 265:LWIP/Target/ethernetif.c ****     }
 178              		.loc 1 265 28 view .LVU46
 179 004c 03EB4301 		add	r1, r3, r3, lsl #1
 180 0050 0DEB8101 		add	r1, sp, r1, lsl #2
 265:LWIP/Target/ethernetif.c ****     }
 181              		.loc 1 265 26 view .LVU47
 182 0054 00EB4000 		add	r0, r0, r0, lsl #1
 183 0058 05EB8000 		add	r0, r5, r0, lsl #2
 184 005c 40F8281C 		str	r1, [r0, #-40]
 185 0060 DFE7     		b	.L10
 186              	.L15:
 270:LWIP/Target/ethernetif.c ****     }
 187              		.loc 1 270 7 is_stmt 1 view .LVU48
 270:LWIP/Target/ethernetif.c ****     }
 188              		.loc 1 270 24 is_stmt 0 view .LVU49
 189 0062 03EB4301 		add	r1, r3, r3, lsl #1
 190 0066 0CA8     		add	r0, sp, #48
 191 0068 00EB8101 		add	r1, r0, r1, lsl #2
 192 006c 0020     		movs	r0, #0
 193 006e 41F8280C 		str	r0, [r1, #-40]
 194 0072 D8E7     		b	.L11
 195              	.L16:
 276:LWIP/Target/ethernetif.c ****   TxConfig.TxBuffer = Txbuffer;
 196              		.loc 1 276 3 is_stmt 1 view .LVU50
 276:LWIP/Target/ethernetif.c ****   TxConfig.TxBuffer = Txbuffer;
 197              		.loc 1 276 22 is_stmt 0 view .LVU51
 198 0074 2389     		ldrh	r3, [r4, #8]
 199              	.LVL14:
 276:LWIP/Target/ethernetif.c ****   TxConfig.TxBuffer = Txbuffer;
 200              		.loc 1 276 19 view .LVU52
 201 0076 0749     		ldr	r1, .L17
 202 0078 4B60     		str	r3, [r1, #4]
 277:LWIP/Target/ethernetif.c ****   TxConfig.pData = p;
 203              		.loc 1 277 3 is_stmt 1 view .LVU53
 277:LWIP/Target/ethernetif.c ****   TxConfig.pData = p;
 204              		.loc 1 277 21 is_stmt 0 view .LVU54
 205 007a C1F808D0 		str	sp, [r1, #8]
 278:LWIP/Target/ethernetif.c **** 
 206              		.loc 1 278 3 is_stmt 1 view .LVU55
 278:LWIP/Target/ethernetif.c **** 
 207              		.loc 1 278 18 is_stmt 0 view .LVU56
 208 007e 4C63     		str	r4, [r1, #52]
 280:LWIP/Target/ethernetif.c **** 
 209              		.loc 1 280 3 is_stmt 1 view .LVU57
 210 0080 1422     		movs	r2, #20
 211              	.LVL15:
 280:LWIP/Target/ethernetif.c **** 
 212              		.loc 1 280 3 is_stmt 0 view .LVU58
 213 0082 0548     		ldr	r0, .L17+4
 214 0084 FFF7FEFF 		bl	HAL_ETH_Transmit
 215              	.LVL16:
 282:LWIP/Target/ethernetif.c **** }
 216              		.loc 1 282 3 is_stmt 1 view .LVU59
 282:LWIP/Target/ethernetif.c **** }
 217              		.loc 1 282 10 is_stmt 0 view .LVU60
 218 0088 0020     		movs	r0, #0
ARM GAS  /tmp/cc4uKuIh.s 			page 11


 219 008a 01E0     		b	.L9
 220              	.LVL17:
 221              	.L13:
 258:LWIP/Target/ethernetif.c **** 
 222              		.loc 1 258 14 view .LVU61
 223 008c 6FF00B00 		mvn	r0, #11
 224              	.LVL18:
 225              	.L9:
 283:LWIP/Target/ethernetif.c **** 
 226              		.loc 1 283 1 view .LVU62
 227 0090 0DB0     		add	sp, sp, #52
 228              	.LCFI6:
 229              		.cfi_def_cfa_offset 12
 230              		@ sp needed
 231 0092 30BD     		pop	{r4, r5, pc}
 232              	.LVL19:
 233              	.L18:
 283:LWIP/Target/ethernetif.c **** 
 234              		.loc 1 283 1 view .LVU63
 235              		.align	2
 236              	.L17:
 237 0094 00000000 		.word	.LANCHOR2
 238 0098 00000000 		.word	.LANCHOR1
 239              		.cfi_endproc
 240              	.LFE168:
 242              		.section	.text.low_level_init,"ax",%progbits
 243              		.align	1
 244              		.syntax unified
 245              		.thumb
 246              		.thumb_func
 248              	low_level_init:
 249              	.LVL20:
 250              	.LFB167:
 152:LWIP/Target/ethernetif.c ****   HAL_StatusTypeDef hal_eth_init_status = HAL_OK;
 251              		.loc 1 152 1 is_stmt 1 view -0
 252              		.cfi_startproc
 253              		@ args = 0, pretend = 0, frame = 8
 254              		@ frame_needed = 0, uses_anonymous_args = 0
 152:LWIP/Target/ethernetif.c ****   HAL_StatusTypeDef hal_eth_init_status = HAL_OK;
 255              		.loc 1 152 1 is_stmt 0 view .LVU65
 256 0000 2DE9F041 		push	{r4, r5, r6, r7, r8, lr}
 257              	.LCFI7:
 258              		.cfi_def_cfa_offset 24
 259              		.cfi_offset 4, -24
 260              		.cfi_offset 5, -20
 261              		.cfi_offset 6, -16
 262              		.cfi_offset 7, -12
 263              		.cfi_offset 8, -8
 264              		.cfi_offset 14, -4
 265 0004 82B0     		sub	sp, sp, #8
 266              	.LCFI8:
 267              		.cfi_def_cfa_offset 32
 268 0006 0446     		mov	r4, r0
 153:LWIP/Target/ethernetif.c ****   /* Start ETH HAL Init */
 269              		.loc 1 153 3 is_stmt 1 view .LVU66
 270              	.LVL21:
 156:LWIP/Target/ethernetif.c ****   heth.Instance = ETH;
ARM GAS  /tmp/cc4uKuIh.s 			page 12


 271              		.loc 1 156 4 view .LVU67
 157:LWIP/Target/ethernetif.c ****   MACAddr[0] = 0x00;
 272              		.loc 1 157 3 view .LVU68
 157:LWIP/Target/ethernetif.c ****   MACAddr[0] = 0x00;
 273              		.loc 1 157 17 is_stmt 0 view .LVU69
 274 0008 2C4D     		ldr	r5, .L23
 275 000a 2D4B     		ldr	r3, .L23+4
 276 000c 2B60     		str	r3, [r5]
 158:LWIP/Target/ethernetif.c ****   MACAddr[1] = 0x80;
 277              		.loc 1 158 3 is_stmt 1 view .LVU70
 158:LWIP/Target/ethernetif.c ****   MACAddr[1] = 0x80;
 278              		.loc 1 158 14 is_stmt 0 view .LVU71
 279 000e 0026     		movs	r6, #0
 280 0010 8DF80060 		strb	r6, [sp]
 159:LWIP/Target/ethernetif.c ****   MACAddr[2] = 0xE1;
 281              		.loc 1 159 3 is_stmt 1 view .LVU72
 159:LWIP/Target/ethernetif.c ****   MACAddr[2] = 0xE1;
 282              		.loc 1 159 14 is_stmt 0 view .LVU73
 283 0014 8023     		movs	r3, #128
 284 0016 8DF80130 		strb	r3, [sp, #1]
 160:LWIP/Target/ethernetif.c ****   MACAddr[3] = 0x00;
 285              		.loc 1 160 3 is_stmt 1 view .LVU74
 160:LWIP/Target/ethernetif.c ****   MACAddr[3] = 0x00;
 286              		.loc 1 160 14 is_stmt 0 view .LVU75
 287 001a E123     		movs	r3, #225
 288 001c 8DF80230 		strb	r3, [sp, #2]
 161:LWIP/Target/ethernetif.c ****   MACAddr[4] = 0x00;
 289              		.loc 1 161 3 is_stmt 1 view .LVU76
 161:LWIP/Target/ethernetif.c ****   MACAddr[4] = 0x00;
 290              		.loc 1 161 14 is_stmt 0 view .LVU77
 291 0020 8DF80360 		strb	r6, [sp, #3]
 162:LWIP/Target/ethernetif.c ****   MACAddr[5] = 0x00;
 292              		.loc 1 162 3 is_stmt 1 view .LVU78
 162:LWIP/Target/ethernetif.c ****   MACAddr[5] = 0x00;
 293              		.loc 1 162 14 is_stmt 0 view .LVU79
 294 0024 8DF80460 		strb	r6, [sp, #4]
 163:LWIP/Target/ethernetif.c ****   heth.Init.MACAddr = &MACAddr[0];
 295              		.loc 1 163 3 is_stmt 1 view .LVU80
 163:LWIP/Target/ethernetif.c ****   heth.Init.MACAddr = &MACAddr[0];
 296              		.loc 1 163 14 is_stmt 0 view .LVU81
 297 0028 8DF80560 		strb	r6, [sp, #5]
 164:LWIP/Target/ethernetif.c ****   heth.Init.MediaInterface = HAL_ETH_RMII_MODE;
 298              		.loc 1 164 3 is_stmt 1 view .LVU82
 164:LWIP/Target/ethernetif.c ****   heth.Init.MediaInterface = HAL_ETH_RMII_MODE;
 299              		.loc 1 164 21 is_stmt 0 view .LVU83
 300 002c C5F804D0 		str	sp, [r5, #4]
 165:LWIP/Target/ethernetif.c ****   heth.Init.TxDesc = DMATxDscrTab;
 301              		.loc 1 165 3 is_stmt 1 view .LVU84
 165:LWIP/Target/ethernetif.c ****   heth.Init.TxDesc = DMATxDscrTab;
 302              		.loc 1 165 28 is_stmt 0 view .LVU85
 303 0030 4FF40003 		mov	r3, #8388608
 304 0034 AB60     		str	r3, [r5, #8]
 166:LWIP/Target/ethernetif.c ****   heth.Init.RxDesc = DMARxDscrTab;
 305              		.loc 1 166 3 is_stmt 1 view .LVU86
 166:LWIP/Target/ethernetif.c ****   heth.Init.RxDesc = DMARxDscrTab;
 306              		.loc 1 166 20 is_stmt 0 view .LVU87
 307 0036 234B     		ldr	r3, .L23+8
ARM GAS  /tmp/cc4uKuIh.s 			page 13


 308 0038 EB60     		str	r3, [r5, #12]
 167:LWIP/Target/ethernetif.c ****   heth.Init.RxBuffLen = 1536;
 309              		.loc 1 167 3 is_stmt 1 view .LVU88
 167:LWIP/Target/ethernetif.c ****   heth.Init.RxBuffLen = 1536;
 310              		.loc 1 167 20 is_stmt 0 view .LVU89
 311 003a 234B     		ldr	r3, .L23+12
 312 003c 2B61     		str	r3, [r5, #16]
 168:LWIP/Target/ethernetif.c **** 
 313              		.loc 1 168 3 is_stmt 1 view .LVU90
 168:LWIP/Target/ethernetif.c **** 
 314              		.loc 1 168 23 is_stmt 0 view .LVU91
 315 003e 4FF4C063 		mov	r3, #1536
 316 0042 6B61     		str	r3, [r5, #20]
 174:LWIP/Target/ethernetif.c **** 
 317              		.loc 1 174 3 is_stmt 1 view .LVU92
 174:LWIP/Target/ethernetif.c **** 
 318              		.loc 1 174 25 is_stmt 0 view .LVU93
 319 0044 2846     		mov	r0, r5
 320              	.LVL22:
 174:LWIP/Target/ethernetif.c **** 
 321              		.loc 1 174 25 view .LVU94
 322 0046 FFF7FEFF 		bl	HAL_ETH_Init
 323              	.LVL23:
 324 004a 0746     		mov	r7, r0
 325              	.LVL24:
 176:LWIP/Target/ethernetif.c ****   TxConfig.Attributes = ETH_TX_PACKETS_FEATURES_CSUM | ETH_TX_PACKETS_FEATURES_CRCPAD;
 326              		.loc 1 176 3 is_stmt 1 view .LVU95
 327 004c DFF88080 		ldr	r8, .L23+20
 328 0050 3822     		movs	r2, #56
 329 0052 3146     		mov	r1, r6
 330 0054 4046     		mov	r0, r8
 331 0056 FFF7FEFF 		bl	memset
 332              	.LVL25:
 177:LWIP/Target/ethernetif.c ****   TxConfig.ChecksumCtrl = ETH_CHECKSUM_IPHDR_PAYLOAD_INSERT_PHDR_CALC;
 333              		.loc 1 177 3 view .LVU96
 177:LWIP/Target/ethernetif.c ****   TxConfig.ChecksumCtrl = ETH_CHECKSUM_IPHDR_PAYLOAD_INSERT_PHDR_CALC;
 334              		.loc 1 177 23 is_stmt 0 view .LVU97
 335 005a 2123     		movs	r3, #33
 336 005c C8F80030 		str	r3, [r8]
 178:LWIP/Target/ethernetif.c ****   TxConfig.CRCPadCtrl = ETH_CRC_PAD_INSERT;
 337              		.loc 1 178 3 is_stmt 1 view .LVU98
 178:LWIP/Target/ethernetif.c ****   TxConfig.CRCPadCtrl = ETH_CRC_PAD_INSERT;
 338              		.loc 1 178 25 is_stmt 0 view .LVU99
 339 0060 4FF44003 		mov	r3, #12582912
 340 0064 C8F81430 		str	r3, [r8, #20]
 179:LWIP/Target/ethernetif.c **** 
 341              		.loc 1 179 3 is_stmt 1 view .LVU100
 184:LWIP/Target/ethernetif.c **** 
 342              		.loc 1 184 3 view .LVU101
 343 0068 1848     		ldr	r0, .L23+16
 344 006a FFF7FEFF 		bl	memp_init_pool
 345              	.LVL26:
 189:LWIP/Target/ethernetif.c **** 
 346              		.loc 1 189 3 view .LVU102
 189:LWIP/Target/ethernetif.c **** 
 347              		.loc 1 189 21 is_stmt 0 view .LVU103
 348 006e 0623     		movs	r3, #6
ARM GAS  /tmp/cc4uKuIh.s 			page 14


 349 0070 84F82C30 		strb	r3, [r4, #44]
 192:LWIP/Target/ethernetif.c ****   netif->hwaddr[1] =  heth.Init.MACAddr[1];
 350              		.loc 1 192 3 is_stmt 1 view .LVU104
 192:LWIP/Target/ethernetif.c ****   netif->hwaddr[1] =  heth.Init.MACAddr[1];
 351              		.loc 1 192 32 is_stmt 0 view .LVU105
 352 0074 6B68     		ldr	r3, [r5, #4]
 192:LWIP/Target/ethernetif.c ****   netif->hwaddr[1] =  heth.Init.MACAddr[1];
 353              		.loc 1 192 40 view .LVU106
 354 0076 1A78     		ldrb	r2, [r3]	@ zero_extendqisi2
 192:LWIP/Target/ethernetif.c ****   netif->hwaddr[1] =  heth.Init.MACAddr[1];
 355              		.loc 1 192 20 view .LVU107
 356 0078 84F82620 		strb	r2, [r4, #38]
 193:LWIP/Target/ethernetif.c ****   netif->hwaddr[2] =  heth.Init.MACAddr[2];
 357              		.loc 1 193 3 is_stmt 1 view .LVU108
 193:LWIP/Target/ethernetif.c ****   netif->hwaddr[2] =  heth.Init.MACAddr[2];
 358              		.loc 1 193 20 is_stmt 0 view .LVU109
 359 007c 5A78     		ldrb	r2, [r3, #1]	@ zero_extendqisi2
 360 007e 84F82720 		strb	r2, [r4, #39]
 194:LWIP/Target/ethernetif.c ****   netif->hwaddr[3] =  heth.Init.MACAddr[3];
 361              		.loc 1 194 3 is_stmt 1 view .LVU110
 194:LWIP/Target/ethernetif.c ****   netif->hwaddr[3] =  heth.Init.MACAddr[3];
 362              		.loc 1 194 20 is_stmt 0 view .LVU111
 363 0082 9A78     		ldrb	r2, [r3, #2]	@ zero_extendqisi2
 364 0084 84F82820 		strb	r2, [r4, #40]
 195:LWIP/Target/ethernetif.c ****   netif->hwaddr[4] =  heth.Init.MACAddr[4];
 365              		.loc 1 195 3 is_stmt 1 view .LVU112
 195:LWIP/Target/ethernetif.c ****   netif->hwaddr[4] =  heth.Init.MACAddr[4];
 366              		.loc 1 195 20 is_stmt 0 view .LVU113
 367 0088 DA78     		ldrb	r2, [r3, #3]	@ zero_extendqisi2
 368 008a 84F82920 		strb	r2, [r4, #41]
 196:LWIP/Target/ethernetif.c ****   netif->hwaddr[5] =  heth.Init.MACAddr[5];
 369              		.loc 1 196 3 is_stmt 1 view .LVU114
 196:LWIP/Target/ethernetif.c ****   netif->hwaddr[5] =  heth.Init.MACAddr[5];
 370              		.loc 1 196 20 is_stmt 0 view .LVU115
 371 008e 1A79     		ldrb	r2, [r3, #4]	@ zero_extendqisi2
 372 0090 84F82A20 		strb	r2, [r4, #42]
 197:LWIP/Target/ethernetif.c **** 
 373              		.loc 1 197 3 is_stmt 1 view .LVU116
 197:LWIP/Target/ethernetif.c **** 
 374              		.loc 1 197 20 is_stmt 0 view .LVU117
 375 0094 5B79     		ldrb	r3, [r3, #5]	@ zero_extendqisi2
 376 0096 84F82B30 		strb	r3, [r4, #43]
 200:LWIP/Target/ethernetif.c **** 
 377              		.loc 1 200 3 is_stmt 1 view .LVU118
 200:LWIP/Target/ethernetif.c **** 
 378              		.loc 1 200 14 is_stmt 0 view .LVU119
 379 009a 40F2DC53 		movw	r3, #1500
 380 009e A384     		strh	r3, [r4, #36]	@ movhi
 205:LWIP/Target/ethernetif.c ****   #else
 381              		.loc 1 205 5 is_stmt 1 view .LVU120
 205:LWIP/Target/ethernetif.c ****   #else
 382              		.loc 1 205 18 is_stmt 0 view .LVU121
 383 00a0 94F82D30 		ldrb	r3, [r4, #45]	@ zero_extendqisi2
 384 00a4 43F00A03 		orr	r3, r3, #10
 385 00a8 84F82D30 		strb	r3, [r4, #45]
 214:LWIP/Target/ethernetif.c ****   {
 386              		.loc 1 214 3 is_stmt 1 view .LVU122
ARM GAS  /tmp/cc4uKuIh.s 			page 15


 214:LWIP/Target/ethernetif.c ****   {
 387              		.loc 1 214 6 is_stmt 0 view .LVU123
 388 00ac 17B9     		cbnz	r7, .L22
 389              	.L19:
 228:LWIP/Target/ethernetif.c **** 
 390              		.loc 1 228 1 view .LVU124
 391 00ae 02B0     		add	sp, sp, #8
 392              	.LCFI9:
 393              		.cfi_remember_state
 394              		.cfi_def_cfa_offset 24
 395              		@ sp needed
 396 00b0 BDE8F081 		pop	{r4, r5, r6, r7, r8, pc}
 397              	.LVL27:
 398              	.L22:
 399              	.LCFI10:
 400              		.cfi_restore_state
 221:LWIP/Target/ethernetif.c ****   }
 401              		.loc 1 221 5 is_stmt 1 view .LVU125
 402 00b4 FFF7FEFF 		bl	Error_Handler
 403              	.LVL28:
 228:LWIP/Target/ethernetif.c **** 
 404              		.loc 1 228 1 is_stmt 0 view .LVU126
 405 00b8 F9E7     		b	.L19
 406              	.L24:
 407 00ba 00BF     		.align	2
 408              	.L23:
 409 00bc 00000000 		.word	.LANCHOR1
 410 00c0 00800240 		.word	1073905664
 411 00c4 00000000 		.word	.LANCHOR3
 412 00c8 00000000 		.word	.LANCHOR4
 413 00cc 00000000 		.word	.LANCHOR5
 414 00d0 00000000 		.word	.LANCHOR2
 415              		.cfi_endproc
 416              	.LFE167:
 418              		.section	.text.pbuf_free_custom,"ax",%progbits
 419              		.align	1
 420              		.global	pbuf_free_custom
 421              		.syntax unified
 422              		.thumb
 423              		.thumb_func
 425              	pbuf_free_custom:
 426              	.LVL29:
 427              	.LFB172:
 304:LWIP/Target/ethernetif.c **** 
 305:LWIP/Target/ethernetif.c **** /**
 306:LWIP/Target/ethernetif.c ****  * @brief This function should be called when a packet is ready to be read
 307:LWIP/Target/ethernetif.c ****  * from the interface. It uses the function low_level_input() that
 308:LWIP/Target/ethernetif.c ****  * should handle the actual reception of bytes from the network
 309:LWIP/Target/ethernetif.c ****  * interface. Then the type of the received packet is determined and
 310:LWIP/Target/ethernetif.c ****  * the appropriate input function is called.
 311:LWIP/Target/ethernetif.c ****  *
 312:LWIP/Target/ethernetif.c ****  * @param netif the lwip network interface structure for this ethernetif
 313:LWIP/Target/ethernetif.c ****  */
 314:LWIP/Target/ethernetif.c **** void ethernetif_input(struct netif *netif)
 315:LWIP/Target/ethernetif.c **** {
 316:LWIP/Target/ethernetif.c ****   struct pbuf *p = NULL;
 317:LWIP/Target/ethernetif.c **** 
ARM GAS  /tmp/cc4uKuIh.s 			page 16


 318:LWIP/Target/ethernetif.c ****   do
 319:LWIP/Target/ethernetif.c ****   {
 320:LWIP/Target/ethernetif.c ****     p = low_level_input( netif );
 321:LWIP/Target/ethernetif.c ****     if (p != NULL)
 322:LWIP/Target/ethernetif.c ****     {
 323:LWIP/Target/ethernetif.c ****       if (netif->input( p, netif) != ERR_OK )
 324:LWIP/Target/ethernetif.c ****       {
 325:LWIP/Target/ethernetif.c ****         pbuf_free(p);
 326:LWIP/Target/ethernetif.c ****       }
 327:LWIP/Target/ethernetif.c ****     }
 328:LWIP/Target/ethernetif.c ****   } while(p!=NULL);
 329:LWIP/Target/ethernetif.c **** }
 330:LWIP/Target/ethernetif.c **** 
 331:LWIP/Target/ethernetif.c **** #if !LWIP_ARP
 332:LWIP/Target/ethernetif.c **** /**
 333:LWIP/Target/ethernetif.c ****  * This function has to be completed by user in case of ARP OFF.
 334:LWIP/Target/ethernetif.c ****  *
 335:LWIP/Target/ethernetif.c ****  * @param netif the lwip network interface structure for this ethernetif
 336:LWIP/Target/ethernetif.c ****  * @return ERR_OK if ...
 337:LWIP/Target/ethernetif.c ****  */
 338:LWIP/Target/ethernetif.c **** static err_t low_level_output_arp_off(struct netif *netif, struct pbuf *q, const ip4_addr_t *ipaddr
 339:LWIP/Target/ethernetif.c **** {
 340:LWIP/Target/ethernetif.c ****   err_t errval;
 341:LWIP/Target/ethernetif.c ****   errval = ERR_OK;
 342:LWIP/Target/ethernetif.c **** 
 343:LWIP/Target/ethernetif.c **** /* USER CODE BEGIN 5 */
 344:LWIP/Target/ethernetif.c **** 
 345:LWIP/Target/ethernetif.c **** /* USER CODE END 5 */
 346:LWIP/Target/ethernetif.c **** 
 347:LWIP/Target/ethernetif.c ****   return errval;
 348:LWIP/Target/ethernetif.c **** 
 349:LWIP/Target/ethernetif.c **** }
 350:LWIP/Target/ethernetif.c **** #endif /* LWIP_ARP */
 351:LWIP/Target/ethernetif.c **** 
 352:LWIP/Target/ethernetif.c **** /**
 353:LWIP/Target/ethernetif.c ****  * @brief Should be called at the beginning of the program to set up the
 354:LWIP/Target/ethernetif.c ****  * network interface. It calls the function low_level_init() to do the
 355:LWIP/Target/ethernetif.c ****  * actual setup of the hardware.
 356:LWIP/Target/ethernetif.c ****  *
 357:LWIP/Target/ethernetif.c ****  * This function should be passed as a parameter to netif_add().
 358:LWIP/Target/ethernetif.c ****  *
 359:LWIP/Target/ethernetif.c ****  * @param netif the lwip network interface structure for this ethernetif
 360:LWIP/Target/ethernetif.c ****  * @return ERR_OK if the loopif is initialized
 361:LWIP/Target/ethernetif.c ****  *         ERR_MEM if private data couldn't be allocated
 362:LWIP/Target/ethernetif.c ****  *         any other err_t on error
 363:LWIP/Target/ethernetif.c ****  */
 364:LWIP/Target/ethernetif.c **** err_t ethernetif_init(struct netif *netif)
 365:LWIP/Target/ethernetif.c **** {
 366:LWIP/Target/ethernetif.c ****   LWIP_ASSERT("netif != NULL", (netif != NULL));
 367:LWIP/Target/ethernetif.c **** 
 368:LWIP/Target/ethernetif.c **** #if LWIP_NETIF_HOSTNAME
 369:LWIP/Target/ethernetif.c ****   /* Initialize interface hostname */
 370:LWIP/Target/ethernetif.c ****   netif->hostname = "lwip";
 371:LWIP/Target/ethernetif.c **** #endif /* LWIP_NETIF_HOSTNAME */
 372:LWIP/Target/ethernetif.c **** 
 373:LWIP/Target/ethernetif.c ****   /*
 374:LWIP/Target/ethernetif.c ****    * Initialize the snmp variables and counters inside the struct netif.
ARM GAS  /tmp/cc4uKuIh.s 			page 17


 375:LWIP/Target/ethernetif.c ****    * The last argument should be replaced with your link speed, in units
 376:LWIP/Target/ethernetif.c ****    * of bits per second.
 377:LWIP/Target/ethernetif.c ****    */
 378:LWIP/Target/ethernetif.c ****   // MIB2_INIT_NETIF(netif, snmp_ifType_ethernet_csmacd, LINK_SPEED_OF_YOUR_NETIF_IN_BPS);
 379:LWIP/Target/ethernetif.c **** 
 380:LWIP/Target/ethernetif.c ****   netif->name[0] = IFNAME0;
 381:LWIP/Target/ethernetif.c ****   netif->name[1] = IFNAME1;
 382:LWIP/Target/ethernetif.c ****   /* We directly use etharp_output() here to save a function call.
 383:LWIP/Target/ethernetif.c ****    * You can instead declare your own function an call etharp_output()
 384:LWIP/Target/ethernetif.c ****    * from it if you have to do some checks before sending (e.g. if link
 385:LWIP/Target/ethernetif.c ****    * is available...) */
 386:LWIP/Target/ethernetif.c **** 
 387:LWIP/Target/ethernetif.c **** #if LWIP_IPV4
 388:LWIP/Target/ethernetif.c **** #if LWIP_ARP || LWIP_ETHERNET
 389:LWIP/Target/ethernetif.c **** #if LWIP_ARP
 390:LWIP/Target/ethernetif.c ****   netif->output = etharp_output;
 391:LWIP/Target/ethernetif.c **** #else
 392:LWIP/Target/ethernetif.c ****   /* The user should write its own code in low_level_output_arp_off function */
 393:LWIP/Target/ethernetif.c ****   netif->output = low_level_output_arp_off;
 394:LWIP/Target/ethernetif.c **** #endif /* LWIP_ARP */
 395:LWIP/Target/ethernetif.c **** #endif /* LWIP_ARP || LWIP_ETHERNET */
 396:LWIP/Target/ethernetif.c **** #endif /* LWIP_IPV4 */
 397:LWIP/Target/ethernetif.c **** 
 398:LWIP/Target/ethernetif.c **** #if LWIP_IPV6
 399:LWIP/Target/ethernetif.c ****   netif->output_ip6 = ethip6_output;
 400:LWIP/Target/ethernetif.c **** #endif /* LWIP_IPV6 */
 401:LWIP/Target/ethernetif.c **** 
 402:LWIP/Target/ethernetif.c ****   netif->linkoutput = low_level_output;
 403:LWIP/Target/ethernetif.c **** 
 404:LWIP/Target/ethernetif.c ****   /* initialize the hardware */
 405:LWIP/Target/ethernetif.c ****   low_level_init(netif);
 406:LWIP/Target/ethernetif.c **** 
 407:LWIP/Target/ethernetif.c ****   return ERR_OK;
 408:LWIP/Target/ethernetif.c **** }
 409:LWIP/Target/ethernetif.c **** 
 410:LWIP/Target/ethernetif.c **** /**
 411:LWIP/Target/ethernetif.c ****   * @brief  Custom Rx pbuf free callback
 412:LWIP/Target/ethernetif.c ****   * @param  pbuf: pbuf to be freed
 413:LWIP/Target/ethernetif.c ****   * @retval None
 414:LWIP/Target/ethernetif.c ****   */
 415:LWIP/Target/ethernetif.c **** void pbuf_free_custom(struct pbuf *p)
 416:LWIP/Target/ethernetif.c **** {
 428              		.loc 1 416 1 is_stmt 1 view -0
 429              		.cfi_startproc
 430              		@ args = 0, pretend = 0, frame = 0
 431              		@ frame_needed = 0, uses_anonymous_args = 0
 432              		.loc 1 416 1 is_stmt 0 view .LVU128
 433 0000 08B5     		push	{r3, lr}
 434              	.LCFI11:
 435              		.cfi_def_cfa_offset 8
 436              		.cfi_offset 3, -8
 437              		.cfi_offset 14, -4
 438 0002 0146     		mov	r1, r0
 417:LWIP/Target/ethernetif.c ****   struct pbuf_custom* custom_pbuf = (struct pbuf_custom*)p;
 439              		.loc 1 417 3 is_stmt 1 view .LVU129
 440              	.LVL30:
 418:LWIP/Target/ethernetif.c ****   LWIP_MEMPOOL_FREE(RX_POOL, custom_pbuf);
ARM GAS  /tmp/cc4uKuIh.s 			page 18


 441              		.loc 1 418 3 view .LVU130
 442 0004 0548     		ldr	r0, .L29
 443              	.LVL31:
 444              		.loc 1 418 3 is_stmt 0 view .LVU131
 445 0006 FFF7FEFF 		bl	memp_free_pool
 446              	.LVL32:
 419:LWIP/Target/ethernetif.c **** 
 420:LWIP/Target/ethernetif.c ****   /* If the Rx Buffer Pool was exhausted, signal the ethernetif_input task to
 421:LWIP/Target/ethernetif.c ****    * call HAL_ETH_GetRxDataBuffer to rebuild the Rx descriptors. */
 422:LWIP/Target/ethernetif.c **** 
 423:LWIP/Target/ethernetif.c ****   if (RxAllocStatus == RX_ALLOC_ERROR)
 447              		.loc 1 423 3 is_stmt 1 view .LVU132
 448              		.loc 1 423 21 is_stmt 0 view .LVU133
 449 000a 054B     		ldr	r3, .L29+4
 450 000c 1B78     		ldrb	r3, [r3]	@ zero_extendqisi2
 451              		.loc 1 423 6 view .LVU134
 452 000e 012B     		cmp	r3, #1
 453 0010 00D0     		beq	.L28
 454              	.L25:
 424:LWIP/Target/ethernetif.c ****   {
 425:LWIP/Target/ethernetif.c ****     RxAllocStatus = RX_ALLOC_OK;
 426:LWIP/Target/ethernetif.c ****   }
 427:LWIP/Target/ethernetif.c **** }
 455              		.loc 1 427 1 view .LVU135
 456 0012 08BD     		pop	{r3, pc}
 457              	.L28:
 425:LWIP/Target/ethernetif.c ****   }
 458              		.loc 1 425 5 is_stmt 1 view .LVU136
 425:LWIP/Target/ethernetif.c ****   }
 459              		.loc 1 425 19 is_stmt 0 view .LVU137
 460 0014 024B     		ldr	r3, .L29+4
 461 0016 0022     		movs	r2, #0
 462 0018 1A70     		strb	r2, [r3]
 463              		.loc 1 427 1 view .LVU138
 464 001a FAE7     		b	.L25
 465              	.L30:
 466              		.align	2
 467              	.L29:
 468 001c 00000000 		.word	.LANCHOR5
 469 0020 00000000 		.word	.LANCHOR0
 470              		.cfi_endproc
 471              	.LFE172:
 473              		.section	.text.ethernetif_input,"ax",%progbits
 474              		.align	1
 475              		.global	ethernetif_input
 476              		.syntax unified
 477              		.thumb
 478              		.thumb_func
 480              	ethernetif_input:
 481              	.LVL33:
 482              	.LFB170:
 315:LWIP/Target/ethernetif.c ****   struct pbuf *p = NULL;
 483              		.loc 1 315 1 is_stmt 1 view -0
 484              		.cfi_startproc
 485              		@ args = 0, pretend = 0, frame = 0
 486              		@ frame_needed = 0, uses_anonymous_args = 0
 315:LWIP/Target/ethernetif.c ****   struct pbuf *p = NULL;
ARM GAS  /tmp/cc4uKuIh.s 			page 19


 487              		.loc 1 315 1 is_stmt 0 view .LVU140
 488 0000 38B5     		push	{r3, r4, r5, lr}
 489              	.LCFI12:
 490              		.cfi_def_cfa_offset 16
 491              		.cfi_offset 3, -16
 492              		.cfi_offset 4, -12
 493              		.cfi_offset 5, -8
 494              		.cfi_offset 14, -4
 495 0002 0546     		mov	r5, r0
 316:LWIP/Target/ethernetif.c **** 
 496              		.loc 1 316 3 is_stmt 1 view .LVU141
 497              	.LVL34:
 316:LWIP/Target/ethernetif.c **** 
 498              		.loc 1 316 3 is_stmt 0 view .LVU142
 499 0004 00E0     		b	.L33
 500              	.LVL35:
 501              	.L32:
 328:LWIP/Target/ethernetif.c **** }
 502              		.loc 1 328 10 is_stmt 1 view .LVU143
 328:LWIP/Target/ethernetif.c **** }
 503              		.loc 1 328 3 is_stmt 0 view .LVU144
 504 0006 74B1     		cbz	r4, .L35
 505              	.LVL36:
 506              	.L33:
 318:LWIP/Target/ethernetif.c ****   {
 507              		.loc 1 318 3 is_stmt 1 view .LVU145
 320:LWIP/Target/ethernetif.c ****     if (p != NULL)
 508              		.loc 1 320 5 view .LVU146
 320:LWIP/Target/ethernetif.c ****     if (p != NULL)
 509              		.loc 1 320 9 is_stmt 0 view .LVU147
 510 0008 2846     		mov	r0, r5
 511 000a FFF7FEFF 		bl	low_level_input
 512              	.LVL37:
 321:LWIP/Target/ethernetif.c ****     {
 513              		.loc 1 321 5 is_stmt 1 view .LVU148
 321:LWIP/Target/ethernetif.c ****     {
 514              		.loc 1 321 8 is_stmt 0 view .LVU149
 515 000e 0446     		mov	r4, r0
 516 0010 0028     		cmp	r0, #0
 517 0012 F8D0     		beq	.L32
 323:LWIP/Target/ethernetif.c ****       {
 518              		.loc 1 323 7 is_stmt 1 view .LVU150
 323:LWIP/Target/ethernetif.c ****       {
 519              		.loc 1 323 16 is_stmt 0 view .LVU151
 520 0014 2B69     		ldr	r3, [r5, #16]
 323:LWIP/Target/ethernetif.c ****       {
 521              		.loc 1 323 11 view .LVU152
 522 0016 2946     		mov	r1, r5
 523 0018 9847     		blx	r3
 524              	.LVL38:
 323:LWIP/Target/ethernetif.c ****       {
 525              		.loc 1 323 10 view .LVU153
 526 001a 0028     		cmp	r0, #0
 527 001c F3D0     		beq	.L32
 325:LWIP/Target/ethernetif.c ****       }
 528              		.loc 1 325 9 is_stmt 1 view .LVU154
 529 001e 2046     		mov	r0, r4
ARM GAS  /tmp/cc4uKuIh.s 			page 20


 530 0020 FFF7FEFF 		bl	pbuf_free
 531              	.LVL39:
 532 0024 EFE7     		b	.L32
 533              	.L35:
 329:LWIP/Target/ethernetif.c **** 
 534              		.loc 1 329 1 is_stmt 0 view .LVU155
 535 0026 38BD     		pop	{r3, r4, r5, pc}
 329:LWIP/Target/ethernetif.c **** 
 536              		.loc 1 329 1 view .LVU156
 537              		.cfi_endproc
 538              	.LFE170:
 540              		.section	.rodata.ethernetif_init.str1.4,"aMS",%progbits,1
 541              		.align	2
 542              	.LC0:
 543 0000 4C574950 		.ascii	"LWIP/Target/ethernetif.c\000"
 543      2F546172 
 543      6765742F 
 543      65746865 
 543      726E6574 
 544 0019 000000   		.align	2
 545              	.LC1:
 546 001c 6E657469 		.ascii	"netif != NULL\000"
 546      6620213D 
 546      204E554C 
 546      4C00
 547 002a 0000     		.align	2
 548              	.LC2:
 549 002c 41737365 		.ascii	"Assertion \"%s\" failed at line %d in %s\012\000"
 549      7274696F 
 549      6E202225 
 549      73222066 
 549      61696C65 
 550              		.section	.text.ethernetif_init,"ax",%progbits
 551              		.align	1
 552              		.global	ethernetif_init
 553              		.syntax unified
 554              		.thumb
 555              		.thumb_func
 557              	ethernetif_init:
 558              	.LVL40:
 559              	.LFB171:
 365:LWIP/Target/ethernetif.c ****   LWIP_ASSERT("netif != NULL", (netif != NULL));
 560              		.loc 1 365 1 is_stmt 1 view -0
 561              		.cfi_startproc
 562              		@ args = 0, pretend = 0, frame = 0
 563              		@ frame_needed = 0, uses_anonymous_args = 0
 365:LWIP/Target/ethernetif.c ****   LWIP_ASSERT("netif != NULL", (netif != NULL));
 564              		.loc 1 365 1 is_stmt 0 view .LVU158
 565 0000 10B5     		push	{r4, lr}
 566              	.LCFI13:
 567              		.cfi_def_cfa_offset 8
 568              		.cfi_offset 4, -8
 569              		.cfi_offset 14, -4
 366:LWIP/Target/ethernetif.c **** 
 570              		.loc 1 366 3 is_stmt 1 view .LVU159
 366:LWIP/Target/ethernetif.c **** 
 571              		.loc 1 366 3 view .LVU160
ARM GAS  /tmp/cc4uKuIh.s 			page 21


 572 0002 0446     		mov	r4, r0
 573 0004 70B1     		cbz	r0, .L39
 574              	.LVL41:
 575              	.L37:
 366:LWIP/Target/ethernetif.c **** 
 576              		.loc 1 366 3 discriminator 3 view .LVU161
 366:LWIP/Target/ethernetif.c **** 
 577              		.loc 1 366 3 discriminator 3 view .LVU162
 380:LWIP/Target/ethernetif.c ****   netif->name[1] = IFNAME1;
 578              		.loc 1 380 3 discriminator 3 view .LVU163
 380:LWIP/Target/ethernetif.c ****   netif->name[1] = IFNAME1;
 579              		.loc 1 380 18 is_stmt 0 discriminator 3 view .LVU164
 580 0006 7323     		movs	r3, #115
 581 0008 84F82E30 		strb	r3, [r4, #46]
 381:LWIP/Target/ethernetif.c ****   /* We directly use etharp_output() here to save a function call.
 582              		.loc 1 381 3 is_stmt 1 discriminator 3 view .LVU165
 381:LWIP/Target/ethernetif.c ****   /* We directly use etharp_output() here to save a function call.
 583              		.loc 1 381 18 is_stmt 0 discriminator 3 view .LVU166
 584 000c 7423     		movs	r3, #116
 585 000e 84F82F30 		strb	r3, [r4, #47]
 390:LWIP/Target/ethernetif.c **** #else
 586              		.loc 1 390 3 is_stmt 1 discriminator 3 view .LVU167
 390:LWIP/Target/ethernetif.c **** #else
 587              		.loc 1 390 17 is_stmt 0 discriminator 3 view .LVU168
 588 0012 084B     		ldr	r3, .L40
 589 0014 6361     		str	r3, [r4, #20]
 402:LWIP/Target/ethernetif.c **** 
 590              		.loc 1 402 3 is_stmt 1 discriminator 3 view .LVU169
 402:LWIP/Target/ethernetif.c **** 
 591              		.loc 1 402 21 is_stmt 0 discriminator 3 view .LVU170
 592 0016 084B     		ldr	r3, .L40+4
 593 0018 A361     		str	r3, [r4, #24]
 405:LWIP/Target/ethernetif.c **** 
 594              		.loc 1 405 3 is_stmt 1 discriminator 3 view .LVU171
 595 001a 2046     		mov	r0, r4
 596 001c FFF7FEFF 		bl	low_level_init
 597              	.LVL42:
 407:LWIP/Target/ethernetif.c **** }
 598              		.loc 1 407 3 discriminator 3 view .LVU172
 408:LWIP/Target/ethernetif.c **** 
 599              		.loc 1 408 1 is_stmt 0 discriminator 3 view .LVU173
 600 0020 0020     		movs	r0, #0
 601 0022 10BD     		pop	{r4, pc}
 602              	.LVL43:
 603              	.L39:
 366:LWIP/Target/ethernetif.c **** 
 604              		.loc 1 366 3 is_stmt 1 discriminator 1 view .LVU174
 366:LWIP/Target/ethernetif.c **** 
 605              		.loc 1 366 3 discriminator 1 view .LVU175
 606 0024 054B     		ldr	r3, .L40+8
 607 0026 4FF4B772 		mov	r2, #366
 608 002a 0549     		ldr	r1, .L40+12
 609 002c 0548     		ldr	r0, .L40+16
 610              	.LVL44:
 366:LWIP/Target/ethernetif.c **** 
 611              		.loc 1 366 3 is_stmt 0 discriminator 1 view .LVU176
 612 002e FFF7FEFF 		bl	printf
ARM GAS  /tmp/cc4uKuIh.s 			page 22


 613              	.LVL45:
 614 0032 E8E7     		b	.L37
 615              	.L41:
 616              		.align	2
 617              	.L40:
 618 0034 00000000 		.word	etharp_output
 619 0038 00000000 		.word	low_level_output
 620 003c 00000000 		.word	.LC0
 621 0040 1C000000 		.word	.LC1
 622 0044 2C000000 		.word	.LC2
 623              		.cfi_endproc
 624              	.LFE171:
 626              		.section	.text.sys_jiffies,"ax",%progbits
 627              		.align	1
 628              		.global	sys_jiffies
 629              		.syntax unified
 630              		.thumb
 631              		.thumb_func
 633              	sys_jiffies:
 634              	.LFB173:
 428:LWIP/Target/ethernetif.c **** 
 429:LWIP/Target/ethernetif.c **** /* USER CODE BEGIN 6 */
 430:LWIP/Target/ethernetif.c **** 
 431:LWIP/Target/ethernetif.c **** /**
 432:LWIP/Target/ethernetif.c **** * @brief  Returns the current time in milliseconds
 433:LWIP/Target/ethernetif.c **** *         when LWIP_TIMERS == 1 and NO_SYS == 1
 434:LWIP/Target/ethernetif.c **** * @param  None
 435:LWIP/Target/ethernetif.c **** * @retval Time
 436:LWIP/Target/ethernetif.c **** */
 437:LWIP/Target/ethernetif.c **** u32_t sys_jiffies(void)
 438:LWIP/Target/ethernetif.c **** {
 635              		.loc 1 438 1 is_stmt 1 view -0
 636              		.cfi_startproc
 637              		@ args = 0, pretend = 0, frame = 0
 638              		@ frame_needed = 0, uses_anonymous_args = 0
 639 0000 08B5     		push	{r3, lr}
 640              	.LCFI14:
 641              		.cfi_def_cfa_offset 8
 642              		.cfi_offset 3, -8
 643              		.cfi_offset 14, -4
 439:LWIP/Target/ethernetif.c ****   return HAL_GetTick();
 644              		.loc 1 439 3 view .LVU178
 645              		.loc 1 439 10 is_stmt 0 view .LVU179
 646 0002 FFF7FEFF 		bl	HAL_GetTick
 647              	.LVL46:
 440:LWIP/Target/ethernetif.c **** }
 648              		.loc 1 440 1 view .LVU180
 649 0006 08BD     		pop	{r3, pc}
 650              		.cfi_endproc
 651              	.LFE173:
 653              		.section	.text.sys_now,"ax",%progbits
 654              		.align	1
 655              		.global	sys_now
 656              		.syntax unified
 657              		.thumb
 658              		.thumb_func
 660              	sys_now:
ARM GAS  /tmp/cc4uKuIh.s 			page 23


 661              	.LFB174:
 441:LWIP/Target/ethernetif.c **** 
 442:LWIP/Target/ethernetif.c **** /**
 443:LWIP/Target/ethernetif.c **** * @brief  Returns the current time in milliseconds
 444:LWIP/Target/ethernetif.c **** *         when LWIP_TIMERS == 1 and NO_SYS == 1
 445:LWIP/Target/ethernetif.c **** * @param  None
 446:LWIP/Target/ethernetif.c **** * @retval Time
 447:LWIP/Target/ethernetif.c **** */
 448:LWIP/Target/ethernetif.c **** u32_t sys_now(void)
 449:LWIP/Target/ethernetif.c **** {
 662              		.loc 1 449 1 is_stmt 1 view -0
 663              		.cfi_startproc
 664              		@ args = 0, pretend = 0, frame = 0
 665              		@ frame_needed = 0, uses_anonymous_args = 0
 666 0000 08B5     		push	{r3, lr}
 667              	.LCFI15:
 668              		.cfi_def_cfa_offset 8
 669              		.cfi_offset 3, -8
 670              		.cfi_offset 14, -4
 450:LWIP/Target/ethernetif.c ****   return HAL_GetTick();
 671              		.loc 1 450 3 view .LVU182
 672              		.loc 1 450 10 is_stmt 0 view .LVU183
 673 0002 FFF7FEFF 		bl	HAL_GetTick
 674              	.LVL47:
 451:LWIP/Target/ethernetif.c **** }
 675              		.loc 1 451 1 view .LVU184
 676 0006 08BD     		pop	{r3, pc}
 677              		.cfi_endproc
 678              	.LFE174:
 680              		.section	.text.ethernet_link_check_state,"ax",%progbits
 681              		.align	1
 682              		.global	ethernet_link_check_state
 683              		.syntax unified
 684              		.thumb
 685              		.thumb_func
 687              	ethernet_link_check_state:
 688              	.LVL48:
 689              	.LFB175:
 452:LWIP/Target/ethernetif.c **** 
 453:LWIP/Target/ethernetif.c **** /* USER CODE END 6 */
 454:LWIP/Target/ethernetif.c **** 
 455:LWIP/Target/ethernetif.c **** /* USER CODE BEGIN PHI IO Functions for User BSP */
 456:LWIP/Target/ethernetif.c **** 
 457:LWIP/Target/ethernetif.c **** /* USER CODE END PHI IO Functions for User BSP */
 458:LWIP/Target/ethernetif.c **** 
 459:LWIP/Target/ethernetif.c **** /**
 460:LWIP/Target/ethernetif.c ****   * @brief  Check the ETH link state then update ETH driver and netif link accordingly.
 461:LWIP/Target/ethernetif.c ****   * @retval None
 462:LWIP/Target/ethernetif.c ****   */
 463:LWIP/Target/ethernetif.c **** void ethernet_link_check_state(struct netif *netif)
 464:LWIP/Target/ethernetif.c **** {
 690              		.loc 1 464 1 is_stmt 1 view -0
 691              		.cfi_startproc
 692              		@ args = 0, pretend = 0, frame = 0
 693              		@ frame_needed = 0, uses_anonymous_args = 0
 694              		@ link register save eliminated.
 465:LWIP/Target/ethernetif.c **** 
ARM GAS  /tmp/cc4uKuIh.s 			page 24


 466:LWIP/Target/ethernetif.c **** }
 695              		.loc 1 466 1 view .LVU186
 696 0000 7047     		bx	lr
 697              		.cfi_endproc
 698              	.LFE175:
 700              		.section	.text.HAL_ETH_RxAllocateCallback,"ax",%progbits
 701              		.align	1
 702              		.global	HAL_ETH_RxAllocateCallback
 703              		.syntax unified
 704              		.thumb
 705              		.thumb_func
 707              	HAL_ETH_RxAllocateCallback:
 708              	.LVL49:
 709              	.LFB176:
 467:LWIP/Target/ethernetif.c **** 
 468:LWIP/Target/ethernetif.c **** void HAL_ETH_RxAllocateCallback(uint8_t **buff)
 469:LWIP/Target/ethernetif.c **** {
 710              		.loc 1 469 1 view -0
 711              		.cfi_startproc
 712              		@ args = 0, pretend = 0, frame = 0
 713              		@ frame_needed = 0, uses_anonymous_args = 0
 714              		.loc 1 469 1 is_stmt 0 view .LVU188
 715 0000 10B5     		push	{r4, lr}
 716              	.LCFI16:
 717              		.cfi_def_cfa_offset 8
 718              		.cfi_offset 4, -8
 719              		.cfi_offset 14, -4
 720 0002 82B0     		sub	sp, sp, #8
 721              	.LCFI17:
 722              		.cfi_def_cfa_offset 16
 723 0004 0446     		mov	r4, r0
 470:LWIP/Target/ethernetif.c **** /* USER CODE BEGIN HAL ETH RxAllocateCallback */
 471:LWIP/Target/ethernetif.c ****   struct pbuf_custom *p = LWIP_MEMPOOL_ALLOC(RX_POOL);
 724              		.loc 1 471 3 is_stmt 1 view .LVU189
 725              		.loc 1 471 27 is_stmt 0 view .LVU190
 726 0006 0E48     		ldr	r0, .L51
 727              	.LVL50:
 728              		.loc 1 471 27 view .LVU191
 729 0008 FFF7FEFF 		bl	memp_malloc_pool
 730              	.LVL51:
 472:LWIP/Target/ethernetif.c ****   if (p)
 731              		.loc 1 472 3 is_stmt 1 view .LVU192
 732              		.loc 1 472 6 is_stmt 0 view .LVU193
 733 000c 88B1     		cbz	r0, .L48
 734 000e 0346     		mov	r3, r0
 473:LWIP/Target/ethernetif.c ****   {
 474:LWIP/Target/ethernetif.c ****     /* Get the buff from the struct pbuf address. */
 475:LWIP/Target/ethernetif.c ****     *buff = (uint8_t *)p + offsetof(RxBuff_t, buff);
 735              		.loc 1 475 5 is_stmt 1 view .LVU194
 736              		.loc 1 475 26 is_stmt 0 view .LVU195
 737 0010 00F12002 		add	r2, r0, #32
 738              		.loc 1 475 11 view .LVU196
 739 0014 2260     		str	r2, [r4]
 476:LWIP/Target/ethernetif.c ****     p->custom_free_function = pbuf_free_custom;
 740              		.loc 1 476 5 is_stmt 1 view .LVU197
 741              		.loc 1 476 29 is_stmt 0 view .LVU198
 742 0016 0B4A     		ldr	r2, .L51+4
ARM GAS  /tmp/cc4uKuIh.s 			page 25


 743 0018 0261     		str	r2, [r0, #16]
 477:LWIP/Target/ethernetif.c ****     /* Initialize the struct pbuf.
 478:LWIP/Target/ethernetif.c ****     * This must be performed whenever a buffer's allocated because it may be
 479:LWIP/Target/ethernetif.c ****     * changed by lwIP or the app, e.g., pbuf_free decrements ref. */
 480:LWIP/Target/ethernetif.c ****     pbuf_alloced_custom(PBUF_RAW, 0, PBUF_REF, p, *buff, ETH_RX_BUF_SIZE);
 744              		.loc 1 480 5 is_stmt 1 view .LVU199
 745 001a 4FF4C062 		mov	r2, #1536
 746 001e 0192     		str	r2, [sp, #4]
 747 0020 2268     		ldr	r2, [r4]
 748 0022 0092     		str	r2, [sp]
 749 0024 4122     		movs	r2, #65
 750 0026 0021     		movs	r1, #0
 751 0028 0846     		mov	r0, r1
 752              	.LVL52:
 753              		.loc 1 480 5 is_stmt 0 view .LVU200
 754 002a FFF7FEFF 		bl	pbuf_alloced_custom
 755              	.LVL53:
 756              	.L47:
 481:LWIP/Target/ethernetif.c ****   }
 482:LWIP/Target/ethernetif.c ****   else
 483:LWIP/Target/ethernetif.c ****   {
 484:LWIP/Target/ethernetif.c ****     RxAllocStatus = RX_ALLOC_ERROR;
 485:LWIP/Target/ethernetif.c ****     *buff = NULL;
 486:LWIP/Target/ethernetif.c ****   }
 487:LWIP/Target/ethernetif.c **** /* USER CODE END HAL ETH RxAllocateCallback */
 488:LWIP/Target/ethernetif.c **** }
 757              		.loc 1 488 1 view .LVU201
 758 002e 02B0     		add	sp, sp, #8
 759              	.LCFI18:
 760              		.cfi_remember_state
 761              		.cfi_def_cfa_offset 8
 762              		@ sp needed
 763 0030 10BD     		pop	{r4, pc}
 764              	.LVL54:
 765              	.L48:
 766              	.LCFI19:
 767              		.cfi_restore_state
 484:LWIP/Target/ethernetif.c ****     *buff = NULL;
 768              		.loc 1 484 5 is_stmt 1 view .LVU202
 484:LWIP/Target/ethernetif.c ****     *buff = NULL;
 769              		.loc 1 484 19 is_stmt 0 view .LVU203
 770 0032 054B     		ldr	r3, .L51+8
 771 0034 0122     		movs	r2, #1
 772 0036 1A70     		strb	r2, [r3]
 485:LWIP/Target/ethernetif.c ****   }
 773              		.loc 1 485 5 is_stmt 1 view .LVU204
 485:LWIP/Target/ethernetif.c ****   }
 774              		.loc 1 485 11 is_stmt 0 view .LVU205
 775 0038 0023     		movs	r3, #0
 776 003a 2360     		str	r3, [r4]
 777              		.loc 1 488 1 view .LVU206
 778 003c F7E7     		b	.L47
 779              	.L52:
 780 003e 00BF     		.align	2
 781              	.L51:
 782 0040 00000000 		.word	.LANCHOR5
 783 0044 00000000 		.word	pbuf_free_custom
ARM GAS  /tmp/cc4uKuIh.s 			page 26


 784 0048 00000000 		.word	.LANCHOR0
 785              		.cfi_endproc
 786              	.LFE176:
 788              		.section	.text.HAL_ETH_RxLinkCallback,"ax",%progbits
 789              		.align	1
 790              		.global	HAL_ETH_RxLinkCallback
 791              		.syntax unified
 792              		.thumb
 793              		.thumb_func
 795              	HAL_ETH_RxLinkCallback:
 796              	.LVL55:
 797              	.LFB177:
 489:LWIP/Target/ethernetif.c **** 
 490:LWIP/Target/ethernetif.c **** void HAL_ETH_RxLinkCallback(void **pStart, void **pEnd, uint8_t *buff, uint16_t Length)
 491:LWIP/Target/ethernetif.c **** {
 798              		.loc 1 491 1 is_stmt 1 view -0
 799              		.cfi_startproc
 800              		@ args = 0, pretend = 0, frame = 0
 801              		@ frame_needed = 0, uses_anonymous_args = 0
 802              		@ link register save eliminated.
 803              		.loc 1 491 1 is_stmt 0 view .LVU208
 804 0000 30B4     		push	{r4, r5}
 805              	.LCFI20:
 806              		.cfi_def_cfa_offset 8
 807              		.cfi_offset 4, -8
 808              		.cfi_offset 5, -4
 492:LWIP/Target/ethernetif.c **** /* USER CODE BEGIN HAL ETH RxLinkCallback */
 493:LWIP/Target/ethernetif.c **** 
 494:LWIP/Target/ethernetif.c ****   struct pbuf **ppStart = (struct pbuf **)pStart;
 809              		.loc 1 494 3 is_stmt 1 view .LVU209
 810              	.LVL56:
 495:LWIP/Target/ethernetif.c ****   struct pbuf **ppEnd = (struct pbuf **)pEnd;
 811              		.loc 1 495 3 view .LVU210
 496:LWIP/Target/ethernetif.c ****   struct pbuf *p = NULL;
 812              		.loc 1 496 3 view .LVU211
 497:LWIP/Target/ethernetif.c **** 
 498:LWIP/Target/ethernetif.c ****   /* Get the struct pbuf from the buff address. */
 499:LWIP/Target/ethernetif.c ****   p = (struct pbuf *)(buff - offsetof(RxBuff_t, buff));
 813              		.loc 1 499 3 view .LVU212
 814              		.loc 1 499 5 is_stmt 0 view .LVU213
 815 0002 A2F12004 		sub	r4, r2, #32
 816              	.LVL57:
 500:LWIP/Target/ethernetif.c ****   p->next = NULL;
 817              		.loc 1 500 3 is_stmt 1 view .LVU214
 818              		.loc 1 500 11 is_stmt 0 view .LVU215
 819 0006 0025     		movs	r5, #0
 820 0008 42F8205C 		str	r5, [r2, #-32]
 501:LWIP/Target/ethernetif.c ****   p->tot_len = 0;
 821              		.loc 1 501 3 is_stmt 1 view .LVU216
 822              		.loc 1 501 14 is_stmt 0 view .LVU217
 823 000c 22F8185C 		strh	r5, [r2, #-24]	@ movhi
 502:LWIP/Target/ethernetif.c ****   p->len = Length;
 824              		.loc 1 502 3 is_stmt 1 view .LVU218
 825              		.loc 1 502 10 is_stmt 0 view .LVU219
 826 0010 22F8163C 		strh	r3, [r2, #-22]	@ movhi
 503:LWIP/Target/ethernetif.c **** 
 504:LWIP/Target/ethernetif.c ****   /* Chain the buffer. */
ARM GAS  /tmp/cc4uKuIh.s 			page 27


 505:LWIP/Target/ethernetif.c ****   if (!*ppStart)
 827              		.loc 1 505 3 is_stmt 1 view .LVU220
 828              		.loc 1 505 8 is_stmt 0 view .LVU221
 829 0014 0568     		ldr	r5, [r0]
 830              		.loc 1 505 6 view .LVU222
 831 0016 25B1     		cbz	r5, .L61
 506:LWIP/Target/ethernetif.c ****   {
 507:LWIP/Target/ethernetif.c ****     /* The first buffer of the packet. */
 508:LWIP/Target/ethernetif.c ****     *ppStart = p;
 509:LWIP/Target/ethernetif.c ****   }
 510:LWIP/Target/ethernetif.c ****   else
 511:LWIP/Target/ethernetif.c ****   {
 512:LWIP/Target/ethernetif.c ****     /* Chain the buffer to the end of the packet. */
 513:LWIP/Target/ethernetif.c ****     (*ppEnd)->next = p;
 832              		.loc 1 513 5 is_stmt 1 view .LVU223
 833              		.loc 1 513 6 is_stmt 0 view .LVU224
 834 0018 0D68     		ldr	r5, [r1]
 835              		.loc 1 513 20 view .LVU225
 836 001a 2C60     		str	r4, [r5]
 837              	.L55:
 514:LWIP/Target/ethernetif.c ****   }
 515:LWIP/Target/ethernetif.c ****   *ppEnd  = p;
 838              		.loc 1 515 3 is_stmt 1 view .LVU226
 839              		.loc 1 515 11 is_stmt 0 view .LVU227
 840 001c 0C60     		str	r4, [r1]
 516:LWIP/Target/ethernetif.c **** 
 517:LWIP/Target/ethernetif.c ****   /* Update the total length of all the buffers of the chain. Each pbuf in the chain should have it
 518:LWIP/Target/ethernetif.c ****    * set to its own length, plus the length of all the following pbufs in the chain. */
 519:LWIP/Target/ethernetif.c ****   for (p = *ppStart; p != NULL; p = p->next)
 841              		.loc 1 519 3 is_stmt 1 view .LVU228
 842              		.loc 1 519 10 is_stmt 0 view .LVU229
 843 001e 0168     		ldr	r1, [r0]
 844              	.LVL58:
 845              		.loc 1 519 3 view .LVU230
 846 0020 05E0     		b	.L56
 847              	.LVL59:
 848              	.L61:
 508:LWIP/Target/ethernetif.c ****   }
 849              		.loc 1 508 5 is_stmt 1 view .LVU231
 508:LWIP/Target/ethernetif.c ****   }
 850              		.loc 1 508 14 is_stmt 0 view .LVU232
 851 0022 0460     		str	r4, [r0]
 852 0024 FAE7     		b	.L55
 853              	.LVL60:
 854              	.L57:
 520:LWIP/Target/ethernetif.c ****   {
 521:LWIP/Target/ethernetif.c ****     p->tot_len += Length;
 855              		.loc 1 521 5 is_stmt 1 discriminator 3 view .LVU233
 856              		.loc 1 521 16 is_stmt 0 discriminator 3 view .LVU234
 857 0026 0889     		ldrh	r0, [r1, #8]
 858 0028 1844     		add	r0, r0, r3
 859 002a 0881     		strh	r0, [r1, #8]	@ movhi
 519:LWIP/Target/ethernetif.c ****   {
 860              		.loc 1 519 33 is_stmt 1 discriminator 3 view .LVU235
 519:LWIP/Target/ethernetif.c ****   {
 861              		.loc 1 519 35 is_stmt 0 discriminator 3 view .LVU236
 862 002c 0968     		ldr	r1, [r1]
ARM GAS  /tmp/cc4uKuIh.s 			page 28


 863              	.LVL61:
 864              	.L56:
 519:LWIP/Target/ethernetif.c ****   {
 865              		.loc 1 519 22 is_stmt 1 discriminator 1 view .LVU237
 519:LWIP/Target/ethernetif.c ****   {
 866              		.loc 1 519 3 is_stmt 0 discriminator 1 view .LVU238
 867 002e 0029     		cmp	r1, #0
 868 0030 F9D1     		bne	.L57
 522:LWIP/Target/ethernetif.c ****   }
 523:LWIP/Target/ethernetif.c **** 
 524:LWIP/Target/ethernetif.c ****   /* Invalidate data cache because Rx DMA's writing to physical memory makes it stale. */
 525:LWIP/Target/ethernetif.c ****   SCB_InvalidateDCache_by_Addr((uint32_t *)buff, Length);
 869              		.loc 1 525 3 is_stmt 1 view .LVU239
 870              	.LVL62:
 871              	.LBB16:
 872              	.LBI16:
 873              		.file 2 "Drivers/CMSIS/Include/core_cm7.h"
   1:Drivers/CMSIS/Include/core_cm7.h **** /**************************************************************************//**
   2:Drivers/CMSIS/Include/core_cm7.h ****  * @file     core_cm7.h
   3:Drivers/CMSIS/Include/core_cm7.h ****  * @brief    CMSIS Cortex-M7 Core Peripheral Access Layer Header File
   4:Drivers/CMSIS/Include/core_cm7.h ****  * @version  V5.0.8
   5:Drivers/CMSIS/Include/core_cm7.h ****  * @date     04. June 2018
   6:Drivers/CMSIS/Include/core_cm7.h ****  ******************************************************************************/
   7:Drivers/CMSIS/Include/core_cm7.h **** /*
   8:Drivers/CMSIS/Include/core_cm7.h ****  * Copyright (c) 2009-2018 Arm Limited. All rights reserved.
   9:Drivers/CMSIS/Include/core_cm7.h ****  *
  10:Drivers/CMSIS/Include/core_cm7.h ****  * SPDX-License-Identifier: Apache-2.0
  11:Drivers/CMSIS/Include/core_cm7.h ****  *
  12:Drivers/CMSIS/Include/core_cm7.h ****  * Licensed under the Apache License, Version 2.0 (the License); you may
  13:Drivers/CMSIS/Include/core_cm7.h ****  * not use this file except in compliance with the License.
  14:Drivers/CMSIS/Include/core_cm7.h ****  * You may obtain a copy of the License at
  15:Drivers/CMSIS/Include/core_cm7.h ****  *
  16:Drivers/CMSIS/Include/core_cm7.h ****  * www.apache.org/licenses/LICENSE-2.0
  17:Drivers/CMSIS/Include/core_cm7.h ****  *
  18:Drivers/CMSIS/Include/core_cm7.h ****  * Unless required by applicable law or agreed to in writing, software
  19:Drivers/CMSIS/Include/core_cm7.h ****  * distributed under the License is distributed on an AS IS BASIS, WITHOUT
  20:Drivers/CMSIS/Include/core_cm7.h ****  * WARRANTIES OR CONDITIONS OF ANY KIND, either express or implied.
  21:Drivers/CMSIS/Include/core_cm7.h ****  * See the License for the specific language governing permissions and
  22:Drivers/CMSIS/Include/core_cm7.h ****  * limitations under the License.
  23:Drivers/CMSIS/Include/core_cm7.h ****  */
  24:Drivers/CMSIS/Include/core_cm7.h **** 
  25:Drivers/CMSIS/Include/core_cm7.h **** #if   defined ( __ICCARM__ )
  26:Drivers/CMSIS/Include/core_cm7.h ****   #pragma system_include         /* treat file as system include file for MISRA check */
  27:Drivers/CMSIS/Include/core_cm7.h **** #elif defined (__clang__)
  28:Drivers/CMSIS/Include/core_cm7.h ****   #pragma clang system_header   /* treat file as system include file */
  29:Drivers/CMSIS/Include/core_cm7.h **** #endif
  30:Drivers/CMSIS/Include/core_cm7.h **** 
  31:Drivers/CMSIS/Include/core_cm7.h **** #ifndef __CORE_CM7_H_GENERIC
  32:Drivers/CMSIS/Include/core_cm7.h **** #define __CORE_CM7_H_GENERIC
  33:Drivers/CMSIS/Include/core_cm7.h **** 
  34:Drivers/CMSIS/Include/core_cm7.h **** #include <stdint.h>
  35:Drivers/CMSIS/Include/core_cm7.h **** 
  36:Drivers/CMSIS/Include/core_cm7.h **** #ifdef __cplusplus
  37:Drivers/CMSIS/Include/core_cm7.h ****  extern "C" {
  38:Drivers/CMSIS/Include/core_cm7.h **** #endif
  39:Drivers/CMSIS/Include/core_cm7.h **** 
  40:Drivers/CMSIS/Include/core_cm7.h **** /**
ARM GAS  /tmp/cc4uKuIh.s 			page 29


  41:Drivers/CMSIS/Include/core_cm7.h ****   \page CMSIS_MISRA_Exceptions  MISRA-C:2004 Compliance Exceptions
  42:Drivers/CMSIS/Include/core_cm7.h ****   CMSIS violates the following MISRA-C:2004 rules:
  43:Drivers/CMSIS/Include/core_cm7.h **** 
  44:Drivers/CMSIS/Include/core_cm7.h ****    \li Required Rule 8.5, object/function definition in header file.<br>
  45:Drivers/CMSIS/Include/core_cm7.h ****      Function definitions in header files are used to allow 'inlining'.
  46:Drivers/CMSIS/Include/core_cm7.h **** 
  47:Drivers/CMSIS/Include/core_cm7.h ****    \li Required Rule 18.4, declaration of union type or object of union type: '{...}'.<br>
  48:Drivers/CMSIS/Include/core_cm7.h ****      Unions are used for effective representation of core registers.
  49:Drivers/CMSIS/Include/core_cm7.h **** 
  50:Drivers/CMSIS/Include/core_cm7.h ****    \li Advisory Rule 19.7, Function-like macro defined.<br>
  51:Drivers/CMSIS/Include/core_cm7.h ****      Function-like macros are used to allow more efficient code.
  52:Drivers/CMSIS/Include/core_cm7.h ****  */
  53:Drivers/CMSIS/Include/core_cm7.h **** 
  54:Drivers/CMSIS/Include/core_cm7.h **** 
  55:Drivers/CMSIS/Include/core_cm7.h **** /*******************************************************************************
  56:Drivers/CMSIS/Include/core_cm7.h ****  *                 CMSIS definitions
  57:Drivers/CMSIS/Include/core_cm7.h ****  ******************************************************************************/
  58:Drivers/CMSIS/Include/core_cm7.h **** /**
  59:Drivers/CMSIS/Include/core_cm7.h ****   \ingroup Cortex_M7
  60:Drivers/CMSIS/Include/core_cm7.h ****   @{
  61:Drivers/CMSIS/Include/core_cm7.h ****  */
  62:Drivers/CMSIS/Include/core_cm7.h **** 
  63:Drivers/CMSIS/Include/core_cm7.h **** #include "cmsis_version.h"
  64:Drivers/CMSIS/Include/core_cm7.h **** 
  65:Drivers/CMSIS/Include/core_cm7.h **** /* CMSIS CM7 definitions */
  66:Drivers/CMSIS/Include/core_cm7.h **** #define __CM7_CMSIS_VERSION_MAIN  (__CM_CMSIS_VERSION_MAIN)                  /*!< \deprecated [31:1
  67:Drivers/CMSIS/Include/core_cm7.h **** #define __CM7_CMSIS_VERSION_SUB   ( __CM_CMSIS_VERSION_SUB)                  /*!< \deprecated [15:0
  68:Drivers/CMSIS/Include/core_cm7.h **** #define __CM7_CMSIS_VERSION       ((__CM7_CMSIS_VERSION_MAIN << 16U) | \
  69:Drivers/CMSIS/Include/core_cm7.h ****                                     __CM7_CMSIS_VERSION_SUB           )      /*!< \deprecated CMSIS
  70:Drivers/CMSIS/Include/core_cm7.h **** 
  71:Drivers/CMSIS/Include/core_cm7.h **** #define __CORTEX_M                (7U)                                       /*!< Cortex-M Core */
  72:Drivers/CMSIS/Include/core_cm7.h **** 
  73:Drivers/CMSIS/Include/core_cm7.h **** /** __FPU_USED indicates whether an FPU is used or not.
  74:Drivers/CMSIS/Include/core_cm7.h ****     For this, __FPU_PRESENT has to be checked prior to making use of FPU specific registers and fun
  75:Drivers/CMSIS/Include/core_cm7.h **** */
  76:Drivers/CMSIS/Include/core_cm7.h **** #if defined ( __CC_ARM )
  77:Drivers/CMSIS/Include/core_cm7.h ****   #if defined __TARGET_FPU_VFP
  78:Drivers/CMSIS/Include/core_cm7.h ****     #if defined (__FPU_PRESENT) && (__FPU_PRESENT == 1U)
  79:Drivers/CMSIS/Include/core_cm7.h ****       #define __FPU_USED       1U
  80:Drivers/CMSIS/Include/core_cm7.h ****     #else
  81:Drivers/CMSIS/Include/core_cm7.h ****       #error "Compiler generates FPU instructions for a device without an FPU (check __FPU_PRESENT)
  82:Drivers/CMSIS/Include/core_cm7.h ****       #define __FPU_USED       0U
  83:Drivers/CMSIS/Include/core_cm7.h ****     #endif
  84:Drivers/CMSIS/Include/core_cm7.h ****   #else
  85:Drivers/CMSIS/Include/core_cm7.h ****     #define __FPU_USED         0U
  86:Drivers/CMSIS/Include/core_cm7.h ****   #endif
  87:Drivers/CMSIS/Include/core_cm7.h **** 
  88:Drivers/CMSIS/Include/core_cm7.h **** #elif defined (__ARMCC_VERSION) && (__ARMCC_VERSION >= 6010050)
  89:Drivers/CMSIS/Include/core_cm7.h ****   #if defined __ARM_PCS_VFP
  90:Drivers/CMSIS/Include/core_cm7.h ****     #if defined (__FPU_PRESENT) && (__FPU_PRESENT == 1U)
  91:Drivers/CMSIS/Include/core_cm7.h ****       #define __FPU_USED       1U
  92:Drivers/CMSIS/Include/core_cm7.h ****     #else
  93:Drivers/CMSIS/Include/core_cm7.h ****       #warning "Compiler generates FPU instructions for a device without an FPU (check __FPU_PRESEN
  94:Drivers/CMSIS/Include/core_cm7.h ****       #define __FPU_USED       0U
  95:Drivers/CMSIS/Include/core_cm7.h ****     #endif
  96:Drivers/CMSIS/Include/core_cm7.h ****   #else
  97:Drivers/CMSIS/Include/core_cm7.h ****     #define __FPU_USED         0U
ARM GAS  /tmp/cc4uKuIh.s 			page 30


  98:Drivers/CMSIS/Include/core_cm7.h ****   #endif
  99:Drivers/CMSIS/Include/core_cm7.h **** 
 100:Drivers/CMSIS/Include/core_cm7.h **** #elif defined ( __GNUC__ )
 101:Drivers/CMSIS/Include/core_cm7.h ****   #if defined (__VFP_FP__) && !defined(__SOFTFP__)
 102:Drivers/CMSIS/Include/core_cm7.h ****     #if defined (__FPU_PRESENT) && (__FPU_PRESENT == 1U)
 103:Drivers/CMSIS/Include/core_cm7.h ****       #define __FPU_USED       1U
 104:Drivers/CMSIS/Include/core_cm7.h ****     #else
 105:Drivers/CMSIS/Include/core_cm7.h ****       #error "Compiler generates FPU instructions for a device without an FPU (check __FPU_PRESENT)
 106:Drivers/CMSIS/Include/core_cm7.h ****       #define __FPU_USED       0U
 107:Drivers/CMSIS/Include/core_cm7.h ****     #endif
 108:Drivers/CMSIS/Include/core_cm7.h ****   #else
 109:Drivers/CMSIS/Include/core_cm7.h ****     #define __FPU_USED         0U
 110:Drivers/CMSIS/Include/core_cm7.h ****   #endif
 111:Drivers/CMSIS/Include/core_cm7.h **** 
 112:Drivers/CMSIS/Include/core_cm7.h **** #elif defined ( __ICCARM__ )
 113:Drivers/CMSIS/Include/core_cm7.h ****   #if defined __ARMVFP__
 114:Drivers/CMSIS/Include/core_cm7.h ****     #if defined (__FPU_PRESENT) && (__FPU_PRESENT == 1U)
 115:Drivers/CMSIS/Include/core_cm7.h ****       #define __FPU_USED       1U
 116:Drivers/CMSIS/Include/core_cm7.h ****     #else
 117:Drivers/CMSIS/Include/core_cm7.h ****       #error "Compiler generates FPU instructions for a device without an FPU (check __FPU_PRESENT)
 118:Drivers/CMSIS/Include/core_cm7.h ****       #define __FPU_USED       0U
 119:Drivers/CMSIS/Include/core_cm7.h ****     #endif
 120:Drivers/CMSIS/Include/core_cm7.h ****   #else
 121:Drivers/CMSIS/Include/core_cm7.h ****     #define __FPU_USED         0U
 122:Drivers/CMSIS/Include/core_cm7.h ****   #endif
 123:Drivers/CMSIS/Include/core_cm7.h **** 
 124:Drivers/CMSIS/Include/core_cm7.h **** #elif defined ( __TI_ARM__ )
 125:Drivers/CMSIS/Include/core_cm7.h ****   #if defined __TI_VFP_SUPPORT__
 126:Drivers/CMSIS/Include/core_cm7.h ****     #if defined (__FPU_PRESENT) && (__FPU_PRESENT == 1U)
 127:Drivers/CMSIS/Include/core_cm7.h ****       #define __FPU_USED       1U
 128:Drivers/CMSIS/Include/core_cm7.h ****     #else
 129:Drivers/CMSIS/Include/core_cm7.h ****       #error "Compiler generates FPU instructions for a device without an FPU (check __FPU_PRESENT)
 130:Drivers/CMSIS/Include/core_cm7.h ****       #define __FPU_USED       0U
 131:Drivers/CMSIS/Include/core_cm7.h ****     #endif
 132:Drivers/CMSIS/Include/core_cm7.h ****   #else
 133:Drivers/CMSIS/Include/core_cm7.h ****     #define __FPU_USED         0U
 134:Drivers/CMSIS/Include/core_cm7.h ****   #endif
 135:Drivers/CMSIS/Include/core_cm7.h **** 
 136:Drivers/CMSIS/Include/core_cm7.h **** #elif defined ( __TASKING__ )
 137:Drivers/CMSIS/Include/core_cm7.h ****   #if defined __FPU_VFP__
 138:Drivers/CMSIS/Include/core_cm7.h ****     #if defined (__FPU_PRESENT) && (__FPU_PRESENT == 1U)
 139:Drivers/CMSIS/Include/core_cm7.h ****       #define __FPU_USED       1U
 140:Drivers/CMSIS/Include/core_cm7.h ****     #else
 141:Drivers/CMSIS/Include/core_cm7.h ****       #error "Compiler generates FPU instructions for a device without an FPU (check __FPU_PRESENT)
 142:Drivers/CMSIS/Include/core_cm7.h ****       #define __FPU_USED       0U
 143:Drivers/CMSIS/Include/core_cm7.h ****     #endif
 144:Drivers/CMSIS/Include/core_cm7.h ****   #else
 145:Drivers/CMSIS/Include/core_cm7.h ****     #define __FPU_USED         0U
 146:Drivers/CMSIS/Include/core_cm7.h ****   #endif
 147:Drivers/CMSIS/Include/core_cm7.h **** 
 148:Drivers/CMSIS/Include/core_cm7.h **** #elif defined ( __CSMC__ )
 149:Drivers/CMSIS/Include/core_cm7.h ****   #if ( __CSMC__ & 0x400U)
 150:Drivers/CMSIS/Include/core_cm7.h ****     #if defined (__FPU_PRESENT) && (__FPU_PRESENT == 1U)
 151:Drivers/CMSIS/Include/core_cm7.h ****       #define __FPU_USED       1U
 152:Drivers/CMSIS/Include/core_cm7.h ****     #else
 153:Drivers/CMSIS/Include/core_cm7.h ****       #error "Compiler generates FPU instructions for a device without an FPU (check __FPU_PRESENT)
 154:Drivers/CMSIS/Include/core_cm7.h ****       #define __FPU_USED       0U
ARM GAS  /tmp/cc4uKuIh.s 			page 31


 155:Drivers/CMSIS/Include/core_cm7.h ****     #endif
 156:Drivers/CMSIS/Include/core_cm7.h ****   #else
 157:Drivers/CMSIS/Include/core_cm7.h ****     #define __FPU_USED         0U
 158:Drivers/CMSIS/Include/core_cm7.h ****   #endif
 159:Drivers/CMSIS/Include/core_cm7.h **** 
 160:Drivers/CMSIS/Include/core_cm7.h **** #endif
 161:Drivers/CMSIS/Include/core_cm7.h **** 
 162:Drivers/CMSIS/Include/core_cm7.h **** #include "cmsis_compiler.h"               /* CMSIS compiler specific defines */
 163:Drivers/CMSIS/Include/core_cm7.h **** 
 164:Drivers/CMSIS/Include/core_cm7.h **** 
 165:Drivers/CMSIS/Include/core_cm7.h **** #ifdef __cplusplus
 166:Drivers/CMSIS/Include/core_cm7.h **** }
 167:Drivers/CMSIS/Include/core_cm7.h **** #endif
 168:Drivers/CMSIS/Include/core_cm7.h **** 
 169:Drivers/CMSIS/Include/core_cm7.h **** #endif /* __CORE_CM7_H_GENERIC */
 170:Drivers/CMSIS/Include/core_cm7.h **** 
 171:Drivers/CMSIS/Include/core_cm7.h **** #ifndef __CMSIS_GENERIC
 172:Drivers/CMSIS/Include/core_cm7.h **** 
 173:Drivers/CMSIS/Include/core_cm7.h **** #ifndef __CORE_CM7_H_DEPENDANT
 174:Drivers/CMSIS/Include/core_cm7.h **** #define __CORE_CM7_H_DEPENDANT
 175:Drivers/CMSIS/Include/core_cm7.h **** 
 176:Drivers/CMSIS/Include/core_cm7.h **** #ifdef __cplusplus
 177:Drivers/CMSIS/Include/core_cm7.h ****  extern "C" {
 178:Drivers/CMSIS/Include/core_cm7.h **** #endif
 179:Drivers/CMSIS/Include/core_cm7.h **** 
 180:Drivers/CMSIS/Include/core_cm7.h **** /* check device defines and use defaults */
 181:Drivers/CMSIS/Include/core_cm7.h **** #if defined __CHECK_DEVICE_DEFINES
 182:Drivers/CMSIS/Include/core_cm7.h ****   #ifndef __CM7_REV
 183:Drivers/CMSIS/Include/core_cm7.h ****     #define __CM7_REV               0x0000U
 184:Drivers/CMSIS/Include/core_cm7.h ****     #warning "__CM7_REV not defined in device header file; using default!"
 185:Drivers/CMSIS/Include/core_cm7.h ****   #endif
 186:Drivers/CMSIS/Include/core_cm7.h **** 
 187:Drivers/CMSIS/Include/core_cm7.h ****   #ifndef __FPU_PRESENT
 188:Drivers/CMSIS/Include/core_cm7.h ****     #define __FPU_PRESENT             0U
 189:Drivers/CMSIS/Include/core_cm7.h ****     #warning "__FPU_PRESENT not defined in device header file; using default!"
 190:Drivers/CMSIS/Include/core_cm7.h ****   #endif
 191:Drivers/CMSIS/Include/core_cm7.h **** 
 192:Drivers/CMSIS/Include/core_cm7.h ****   #ifndef __MPU_PRESENT
 193:Drivers/CMSIS/Include/core_cm7.h ****     #define __MPU_PRESENT             0U
 194:Drivers/CMSIS/Include/core_cm7.h ****     #warning "__MPU_PRESENT not defined in device header file; using default!"
 195:Drivers/CMSIS/Include/core_cm7.h ****   #endif
 196:Drivers/CMSIS/Include/core_cm7.h **** 
 197:Drivers/CMSIS/Include/core_cm7.h ****   #ifndef __ICACHE_PRESENT
 198:Drivers/CMSIS/Include/core_cm7.h ****     #define __ICACHE_PRESENT          0U
 199:Drivers/CMSIS/Include/core_cm7.h ****     #warning "__ICACHE_PRESENT not defined in device header file; using default!"
 200:Drivers/CMSIS/Include/core_cm7.h ****   #endif
 201:Drivers/CMSIS/Include/core_cm7.h **** 
 202:Drivers/CMSIS/Include/core_cm7.h ****   #ifndef __DCACHE_PRESENT
 203:Drivers/CMSIS/Include/core_cm7.h ****     #define __DCACHE_PRESENT          0U
 204:Drivers/CMSIS/Include/core_cm7.h ****     #warning "__DCACHE_PRESENT not defined in device header file; using default!"
 205:Drivers/CMSIS/Include/core_cm7.h ****   #endif
 206:Drivers/CMSIS/Include/core_cm7.h **** 
 207:Drivers/CMSIS/Include/core_cm7.h ****   #ifndef __DTCM_PRESENT
 208:Drivers/CMSIS/Include/core_cm7.h ****     #define __DTCM_PRESENT            0U
 209:Drivers/CMSIS/Include/core_cm7.h ****     #warning "__DTCM_PRESENT        not defined in device header file; using default!"
 210:Drivers/CMSIS/Include/core_cm7.h ****   #endif
 211:Drivers/CMSIS/Include/core_cm7.h **** 
ARM GAS  /tmp/cc4uKuIh.s 			page 32


 212:Drivers/CMSIS/Include/core_cm7.h ****   #ifndef __NVIC_PRIO_BITS
 213:Drivers/CMSIS/Include/core_cm7.h ****     #define __NVIC_PRIO_BITS          3U
 214:Drivers/CMSIS/Include/core_cm7.h ****     #warning "__NVIC_PRIO_BITS not defined in device header file; using default!"
 215:Drivers/CMSIS/Include/core_cm7.h ****   #endif
 216:Drivers/CMSIS/Include/core_cm7.h **** 
 217:Drivers/CMSIS/Include/core_cm7.h ****   #ifndef __Vendor_SysTickConfig
 218:Drivers/CMSIS/Include/core_cm7.h ****     #define __Vendor_SysTickConfig    0U
 219:Drivers/CMSIS/Include/core_cm7.h ****     #warning "__Vendor_SysTickConfig not defined in device header file; using default!"
 220:Drivers/CMSIS/Include/core_cm7.h ****   #endif
 221:Drivers/CMSIS/Include/core_cm7.h **** #endif
 222:Drivers/CMSIS/Include/core_cm7.h **** 
 223:Drivers/CMSIS/Include/core_cm7.h **** /* IO definitions (access restrictions to peripheral registers) */
 224:Drivers/CMSIS/Include/core_cm7.h **** /**
 225:Drivers/CMSIS/Include/core_cm7.h ****     \defgroup CMSIS_glob_defs CMSIS Global Defines
 226:Drivers/CMSIS/Include/core_cm7.h **** 
 227:Drivers/CMSIS/Include/core_cm7.h ****     <strong>IO Type Qualifiers</strong> are used
 228:Drivers/CMSIS/Include/core_cm7.h ****     \li to specify the access to peripheral variables.
 229:Drivers/CMSIS/Include/core_cm7.h ****     \li for automatic generation of peripheral register debug information.
 230:Drivers/CMSIS/Include/core_cm7.h **** */
 231:Drivers/CMSIS/Include/core_cm7.h **** #ifdef __cplusplus
 232:Drivers/CMSIS/Include/core_cm7.h ****   #define   __I     volatile             /*!< Defines 'read only' permissions */
 233:Drivers/CMSIS/Include/core_cm7.h **** #else
 234:Drivers/CMSIS/Include/core_cm7.h ****   #define   __I     volatile const       /*!< Defines 'read only' permissions */
 235:Drivers/CMSIS/Include/core_cm7.h **** #endif
 236:Drivers/CMSIS/Include/core_cm7.h **** #define     __O     volatile             /*!< Defines 'write only' permissions */
 237:Drivers/CMSIS/Include/core_cm7.h **** #define     __IO    volatile             /*!< Defines 'read / write' permissions */
 238:Drivers/CMSIS/Include/core_cm7.h **** 
 239:Drivers/CMSIS/Include/core_cm7.h **** /* following defines should be used for structure members */
 240:Drivers/CMSIS/Include/core_cm7.h **** #define     __IM     volatile const      /*! Defines 'read only' structure member permissions */
 241:Drivers/CMSIS/Include/core_cm7.h **** #define     __OM     volatile            /*! Defines 'write only' structure member permissions */
 242:Drivers/CMSIS/Include/core_cm7.h **** #define     __IOM    volatile            /*! Defines 'read / write' structure member permissions */
 243:Drivers/CMSIS/Include/core_cm7.h **** 
 244:Drivers/CMSIS/Include/core_cm7.h **** /*@} end of group Cortex_M7 */
 245:Drivers/CMSIS/Include/core_cm7.h **** 
 246:Drivers/CMSIS/Include/core_cm7.h **** 
 247:Drivers/CMSIS/Include/core_cm7.h **** 
 248:Drivers/CMSIS/Include/core_cm7.h **** /*******************************************************************************
 249:Drivers/CMSIS/Include/core_cm7.h ****  *                 Register Abstraction
 250:Drivers/CMSIS/Include/core_cm7.h ****   Core Register contain:
 251:Drivers/CMSIS/Include/core_cm7.h ****   - Core Register
 252:Drivers/CMSIS/Include/core_cm7.h ****   - Core NVIC Register
 253:Drivers/CMSIS/Include/core_cm7.h ****   - Core SCB Register
 254:Drivers/CMSIS/Include/core_cm7.h ****   - Core SysTick Register
 255:Drivers/CMSIS/Include/core_cm7.h ****   - Core Debug Register
 256:Drivers/CMSIS/Include/core_cm7.h ****   - Core MPU Register
 257:Drivers/CMSIS/Include/core_cm7.h ****   - Core FPU Register
 258:Drivers/CMSIS/Include/core_cm7.h ****  ******************************************************************************/
 259:Drivers/CMSIS/Include/core_cm7.h **** /**
 260:Drivers/CMSIS/Include/core_cm7.h ****   \defgroup CMSIS_core_register Defines and Type Definitions
 261:Drivers/CMSIS/Include/core_cm7.h ****   \brief Type definitions and defines for Cortex-M processor based devices.
 262:Drivers/CMSIS/Include/core_cm7.h **** */
 263:Drivers/CMSIS/Include/core_cm7.h **** 
 264:Drivers/CMSIS/Include/core_cm7.h **** /**
 265:Drivers/CMSIS/Include/core_cm7.h ****   \ingroup    CMSIS_core_register
 266:Drivers/CMSIS/Include/core_cm7.h ****   \defgroup   CMSIS_CORE  Status and Control Registers
 267:Drivers/CMSIS/Include/core_cm7.h ****   \brief      Core Register type definitions.
 268:Drivers/CMSIS/Include/core_cm7.h ****   @{
ARM GAS  /tmp/cc4uKuIh.s 			page 33


 269:Drivers/CMSIS/Include/core_cm7.h ****  */
 270:Drivers/CMSIS/Include/core_cm7.h **** 
 271:Drivers/CMSIS/Include/core_cm7.h **** /**
 272:Drivers/CMSIS/Include/core_cm7.h ****   \brief  Union type to access the Application Program Status Register (APSR).
 273:Drivers/CMSIS/Include/core_cm7.h ****  */
 274:Drivers/CMSIS/Include/core_cm7.h **** typedef union
 275:Drivers/CMSIS/Include/core_cm7.h **** {
 276:Drivers/CMSIS/Include/core_cm7.h ****   struct
 277:Drivers/CMSIS/Include/core_cm7.h ****   {
 278:Drivers/CMSIS/Include/core_cm7.h ****     uint32_t _reserved0:16;              /*!< bit:  0..15  Reserved */
 279:Drivers/CMSIS/Include/core_cm7.h ****     uint32_t GE:4;                       /*!< bit: 16..19  Greater than or Equal flags */
 280:Drivers/CMSIS/Include/core_cm7.h ****     uint32_t _reserved1:7;               /*!< bit: 20..26  Reserved */
 281:Drivers/CMSIS/Include/core_cm7.h ****     uint32_t Q:1;                        /*!< bit:     27  Saturation condition flag */
 282:Drivers/CMSIS/Include/core_cm7.h ****     uint32_t V:1;                        /*!< bit:     28  Overflow condition code flag */
 283:Drivers/CMSIS/Include/core_cm7.h ****     uint32_t C:1;                        /*!< bit:     29  Carry condition code flag */
 284:Drivers/CMSIS/Include/core_cm7.h ****     uint32_t Z:1;                        /*!< bit:     30  Zero condition code flag */
 285:Drivers/CMSIS/Include/core_cm7.h ****     uint32_t N:1;                        /*!< bit:     31  Negative condition code flag */
 286:Drivers/CMSIS/Include/core_cm7.h ****   } b;                                   /*!< Structure used for bit  access */
 287:Drivers/CMSIS/Include/core_cm7.h ****   uint32_t w;                            /*!< Type      used for word access */
 288:Drivers/CMSIS/Include/core_cm7.h **** } APSR_Type;
 289:Drivers/CMSIS/Include/core_cm7.h **** 
 290:Drivers/CMSIS/Include/core_cm7.h **** /* APSR Register Definitions */
 291:Drivers/CMSIS/Include/core_cm7.h **** #define APSR_N_Pos                         31U                                            /*!< APSR
 292:Drivers/CMSIS/Include/core_cm7.h **** #define APSR_N_Msk                         (1UL << APSR_N_Pos)                            /*!< APSR
 293:Drivers/CMSIS/Include/core_cm7.h **** 
 294:Drivers/CMSIS/Include/core_cm7.h **** #define APSR_Z_Pos                         30U                                            /*!< APSR
 295:Drivers/CMSIS/Include/core_cm7.h **** #define APSR_Z_Msk                         (1UL << APSR_Z_Pos)                            /*!< APSR
 296:Drivers/CMSIS/Include/core_cm7.h **** 
 297:Drivers/CMSIS/Include/core_cm7.h **** #define APSR_C_Pos                         29U                                            /*!< APSR
 298:Drivers/CMSIS/Include/core_cm7.h **** #define APSR_C_Msk                         (1UL << APSR_C_Pos)                            /*!< APSR
 299:Drivers/CMSIS/Include/core_cm7.h **** 
 300:Drivers/CMSIS/Include/core_cm7.h **** #define APSR_V_Pos                         28U                                            /*!< APSR
 301:Drivers/CMSIS/Include/core_cm7.h **** #define APSR_V_Msk                         (1UL << APSR_V_Pos)                            /*!< APSR
 302:Drivers/CMSIS/Include/core_cm7.h **** 
 303:Drivers/CMSIS/Include/core_cm7.h **** #define APSR_Q_Pos                         27U                                            /*!< APSR
 304:Drivers/CMSIS/Include/core_cm7.h **** #define APSR_Q_Msk                         (1UL << APSR_Q_Pos)                            /*!< APSR
 305:Drivers/CMSIS/Include/core_cm7.h **** 
 306:Drivers/CMSIS/Include/core_cm7.h **** #define APSR_GE_Pos                        16U                                            /*!< APSR
 307:Drivers/CMSIS/Include/core_cm7.h **** #define APSR_GE_Msk                        (0xFUL << APSR_GE_Pos)                         /*!< APSR
 308:Drivers/CMSIS/Include/core_cm7.h **** 
 309:Drivers/CMSIS/Include/core_cm7.h **** 
 310:Drivers/CMSIS/Include/core_cm7.h **** /**
 311:Drivers/CMSIS/Include/core_cm7.h ****   \brief  Union type to access the Interrupt Program Status Register (IPSR).
 312:Drivers/CMSIS/Include/core_cm7.h ****  */
 313:Drivers/CMSIS/Include/core_cm7.h **** typedef union
 314:Drivers/CMSIS/Include/core_cm7.h **** {
 315:Drivers/CMSIS/Include/core_cm7.h ****   struct
 316:Drivers/CMSIS/Include/core_cm7.h ****   {
 317:Drivers/CMSIS/Include/core_cm7.h ****     uint32_t ISR:9;                      /*!< bit:  0.. 8  Exception number */
 318:Drivers/CMSIS/Include/core_cm7.h ****     uint32_t _reserved0:23;              /*!< bit:  9..31  Reserved */
 319:Drivers/CMSIS/Include/core_cm7.h ****   } b;                                   /*!< Structure used for bit  access */
 320:Drivers/CMSIS/Include/core_cm7.h ****   uint32_t w;                            /*!< Type      used for word access */
 321:Drivers/CMSIS/Include/core_cm7.h **** } IPSR_Type;
 322:Drivers/CMSIS/Include/core_cm7.h **** 
 323:Drivers/CMSIS/Include/core_cm7.h **** /* IPSR Register Definitions */
 324:Drivers/CMSIS/Include/core_cm7.h **** #define IPSR_ISR_Pos                        0U                                            /*!< IPSR
 325:Drivers/CMSIS/Include/core_cm7.h **** #define IPSR_ISR_Msk                       (0x1FFUL /*<< IPSR_ISR_Pos*/)                  /*!< IPSR
ARM GAS  /tmp/cc4uKuIh.s 			page 34


 326:Drivers/CMSIS/Include/core_cm7.h **** 
 327:Drivers/CMSIS/Include/core_cm7.h **** 
 328:Drivers/CMSIS/Include/core_cm7.h **** /**
 329:Drivers/CMSIS/Include/core_cm7.h ****   \brief  Union type to access the Special-Purpose Program Status Registers (xPSR).
 330:Drivers/CMSIS/Include/core_cm7.h ****  */
 331:Drivers/CMSIS/Include/core_cm7.h **** typedef union
 332:Drivers/CMSIS/Include/core_cm7.h **** {
 333:Drivers/CMSIS/Include/core_cm7.h ****   struct
 334:Drivers/CMSIS/Include/core_cm7.h ****   {
 335:Drivers/CMSIS/Include/core_cm7.h ****     uint32_t ISR:9;                      /*!< bit:  0.. 8  Exception number */
 336:Drivers/CMSIS/Include/core_cm7.h ****     uint32_t _reserved0:1;               /*!< bit:      9  Reserved */
 337:Drivers/CMSIS/Include/core_cm7.h ****     uint32_t ICI_IT_1:6;                 /*!< bit: 10..15  ICI/IT part 1 */
 338:Drivers/CMSIS/Include/core_cm7.h ****     uint32_t GE:4;                       /*!< bit: 16..19  Greater than or Equal flags */
 339:Drivers/CMSIS/Include/core_cm7.h ****     uint32_t _reserved1:4;               /*!< bit: 20..23  Reserved */
 340:Drivers/CMSIS/Include/core_cm7.h ****     uint32_t T:1;                        /*!< bit:     24  Thumb bit */
 341:Drivers/CMSIS/Include/core_cm7.h ****     uint32_t ICI_IT_2:2;                 /*!< bit: 25..26  ICI/IT part 2 */
 342:Drivers/CMSIS/Include/core_cm7.h ****     uint32_t Q:1;                        /*!< bit:     27  Saturation condition flag */
 343:Drivers/CMSIS/Include/core_cm7.h ****     uint32_t V:1;                        /*!< bit:     28  Overflow condition code flag */
 344:Drivers/CMSIS/Include/core_cm7.h ****     uint32_t C:1;                        /*!< bit:     29  Carry condition code flag */
 345:Drivers/CMSIS/Include/core_cm7.h ****     uint32_t Z:1;                        /*!< bit:     30  Zero condition code flag */
 346:Drivers/CMSIS/Include/core_cm7.h ****     uint32_t N:1;                        /*!< bit:     31  Negative condition code flag */
 347:Drivers/CMSIS/Include/core_cm7.h ****   } b;                                   /*!< Structure used for bit  access */
 348:Drivers/CMSIS/Include/core_cm7.h ****   uint32_t w;                            /*!< Type      used for word access */
 349:Drivers/CMSIS/Include/core_cm7.h **** } xPSR_Type;
 350:Drivers/CMSIS/Include/core_cm7.h **** 
 351:Drivers/CMSIS/Include/core_cm7.h **** /* xPSR Register Definitions */
 352:Drivers/CMSIS/Include/core_cm7.h **** #define xPSR_N_Pos                         31U                                            /*!< xPSR
 353:Drivers/CMSIS/Include/core_cm7.h **** #define xPSR_N_Msk                         (1UL << xPSR_N_Pos)                            /*!< xPSR
 354:Drivers/CMSIS/Include/core_cm7.h **** 
 355:Drivers/CMSIS/Include/core_cm7.h **** #define xPSR_Z_Pos                         30U                                            /*!< xPSR
 356:Drivers/CMSIS/Include/core_cm7.h **** #define xPSR_Z_Msk                         (1UL << xPSR_Z_Pos)                            /*!< xPSR
 357:Drivers/CMSIS/Include/core_cm7.h **** 
 358:Drivers/CMSIS/Include/core_cm7.h **** #define xPSR_C_Pos                         29U                                            /*!< xPSR
 359:Drivers/CMSIS/Include/core_cm7.h **** #define xPSR_C_Msk                         (1UL << xPSR_C_Pos)                            /*!< xPSR
 360:Drivers/CMSIS/Include/core_cm7.h **** 
 361:Drivers/CMSIS/Include/core_cm7.h **** #define xPSR_V_Pos                         28U                                            /*!< xPSR
 362:Drivers/CMSIS/Include/core_cm7.h **** #define xPSR_V_Msk                         (1UL << xPSR_V_Pos)                            /*!< xPSR
 363:Drivers/CMSIS/Include/core_cm7.h **** 
 364:Drivers/CMSIS/Include/core_cm7.h **** #define xPSR_Q_Pos                         27U                                            /*!< xPSR
 365:Drivers/CMSIS/Include/core_cm7.h **** #define xPSR_Q_Msk                         (1UL << xPSR_Q_Pos)                            /*!< xPSR
 366:Drivers/CMSIS/Include/core_cm7.h **** 
 367:Drivers/CMSIS/Include/core_cm7.h **** #define xPSR_ICI_IT_2_Pos                  25U                                            /*!< xPSR
 368:Drivers/CMSIS/Include/core_cm7.h **** #define xPSR_ICI_IT_2_Msk                  (3UL << xPSR_ICI_IT_2_Pos)                     /*!< xPSR
 369:Drivers/CMSIS/Include/core_cm7.h **** 
 370:Drivers/CMSIS/Include/core_cm7.h **** #define xPSR_T_Pos                         24U                                            /*!< xPSR
 371:Drivers/CMSIS/Include/core_cm7.h **** #define xPSR_T_Msk                         (1UL << xPSR_T_Pos)                            /*!< xPSR
 372:Drivers/CMSIS/Include/core_cm7.h **** 
 373:Drivers/CMSIS/Include/core_cm7.h **** #define xPSR_GE_Pos                        16U                                            /*!< xPSR
 374:Drivers/CMSIS/Include/core_cm7.h **** #define xPSR_GE_Msk                        (0xFUL << xPSR_GE_Pos)                         /*!< xPSR
 375:Drivers/CMSIS/Include/core_cm7.h **** 
 376:Drivers/CMSIS/Include/core_cm7.h **** #define xPSR_ICI_IT_1_Pos                  10U                                            /*!< xPSR
 377:Drivers/CMSIS/Include/core_cm7.h **** #define xPSR_ICI_IT_1_Msk                  (0x3FUL << xPSR_ICI_IT_1_Pos)                  /*!< xPSR
 378:Drivers/CMSIS/Include/core_cm7.h **** 
 379:Drivers/CMSIS/Include/core_cm7.h **** #define xPSR_ISR_Pos                        0U                                            /*!< xPSR
 380:Drivers/CMSIS/Include/core_cm7.h **** #define xPSR_ISR_Msk                       (0x1FFUL /*<< xPSR_ISR_Pos*/)                  /*!< xPSR
 381:Drivers/CMSIS/Include/core_cm7.h **** 
 382:Drivers/CMSIS/Include/core_cm7.h **** 
ARM GAS  /tmp/cc4uKuIh.s 			page 35


 383:Drivers/CMSIS/Include/core_cm7.h **** /**
 384:Drivers/CMSIS/Include/core_cm7.h ****   \brief  Union type to access the Control Registers (CONTROL).
 385:Drivers/CMSIS/Include/core_cm7.h ****  */
 386:Drivers/CMSIS/Include/core_cm7.h **** typedef union
 387:Drivers/CMSIS/Include/core_cm7.h **** {
 388:Drivers/CMSIS/Include/core_cm7.h ****   struct
 389:Drivers/CMSIS/Include/core_cm7.h ****   {
 390:Drivers/CMSIS/Include/core_cm7.h ****     uint32_t nPRIV:1;                    /*!< bit:      0  Execution privilege in Thread mode */
 391:Drivers/CMSIS/Include/core_cm7.h ****     uint32_t SPSEL:1;                    /*!< bit:      1  Stack to be used */
 392:Drivers/CMSIS/Include/core_cm7.h ****     uint32_t FPCA:1;                     /*!< bit:      2  FP extension active flag */
 393:Drivers/CMSIS/Include/core_cm7.h ****     uint32_t _reserved0:29;              /*!< bit:  3..31  Reserved */
 394:Drivers/CMSIS/Include/core_cm7.h ****   } b;                                   /*!< Structure used for bit  access */
 395:Drivers/CMSIS/Include/core_cm7.h ****   uint32_t w;                            /*!< Type      used for word access */
 396:Drivers/CMSIS/Include/core_cm7.h **** } CONTROL_Type;
 397:Drivers/CMSIS/Include/core_cm7.h **** 
 398:Drivers/CMSIS/Include/core_cm7.h **** /* CONTROL Register Definitions */
 399:Drivers/CMSIS/Include/core_cm7.h **** #define CONTROL_FPCA_Pos                    2U                                            /*!< CONT
 400:Drivers/CMSIS/Include/core_cm7.h **** #define CONTROL_FPCA_Msk                   (1UL << CONTROL_FPCA_Pos)                      /*!< CONT
 401:Drivers/CMSIS/Include/core_cm7.h **** 
 402:Drivers/CMSIS/Include/core_cm7.h **** #define CONTROL_SPSEL_Pos                   1U                                            /*!< CONT
 403:Drivers/CMSIS/Include/core_cm7.h **** #define CONTROL_SPSEL_Msk                  (1UL << CONTROL_SPSEL_Pos)                     /*!< CONT
 404:Drivers/CMSIS/Include/core_cm7.h **** 
 405:Drivers/CMSIS/Include/core_cm7.h **** #define CONTROL_nPRIV_Pos                   0U                                            /*!< CONT
 406:Drivers/CMSIS/Include/core_cm7.h **** #define CONTROL_nPRIV_Msk                  (1UL /*<< CONTROL_nPRIV_Pos*/)                 /*!< CONT
 407:Drivers/CMSIS/Include/core_cm7.h **** 
 408:Drivers/CMSIS/Include/core_cm7.h **** /*@} end of group CMSIS_CORE */
 409:Drivers/CMSIS/Include/core_cm7.h **** 
 410:Drivers/CMSIS/Include/core_cm7.h **** 
 411:Drivers/CMSIS/Include/core_cm7.h **** /**
 412:Drivers/CMSIS/Include/core_cm7.h ****   \ingroup    CMSIS_core_register
 413:Drivers/CMSIS/Include/core_cm7.h ****   \defgroup   CMSIS_NVIC  Nested Vectored Interrupt Controller (NVIC)
 414:Drivers/CMSIS/Include/core_cm7.h ****   \brief      Type definitions for the NVIC Registers
 415:Drivers/CMSIS/Include/core_cm7.h ****   @{
 416:Drivers/CMSIS/Include/core_cm7.h ****  */
 417:Drivers/CMSIS/Include/core_cm7.h **** 
 418:Drivers/CMSIS/Include/core_cm7.h **** /**
 419:Drivers/CMSIS/Include/core_cm7.h ****   \brief  Structure type to access the Nested Vectored Interrupt Controller (NVIC).
 420:Drivers/CMSIS/Include/core_cm7.h ****  */
 421:Drivers/CMSIS/Include/core_cm7.h **** typedef struct
 422:Drivers/CMSIS/Include/core_cm7.h **** {
 423:Drivers/CMSIS/Include/core_cm7.h ****   __IOM uint32_t ISER[8U];               /*!< Offset: 0x000 (R/W)  Interrupt Set Enable Register */
 424:Drivers/CMSIS/Include/core_cm7.h ****         uint32_t RESERVED0[24U];
 425:Drivers/CMSIS/Include/core_cm7.h ****   __IOM uint32_t ICER[8U];               /*!< Offset: 0x080 (R/W)  Interrupt Clear Enable Register 
 426:Drivers/CMSIS/Include/core_cm7.h ****         uint32_t RSERVED1[24U];
 427:Drivers/CMSIS/Include/core_cm7.h ****   __IOM uint32_t ISPR[8U];               /*!< Offset: 0x100 (R/W)  Interrupt Set Pending Register *
 428:Drivers/CMSIS/Include/core_cm7.h ****         uint32_t RESERVED2[24U];
 429:Drivers/CMSIS/Include/core_cm7.h ****   __IOM uint32_t ICPR[8U];               /*!< Offset: 0x180 (R/W)  Interrupt Clear Pending Register
 430:Drivers/CMSIS/Include/core_cm7.h ****         uint32_t RESERVED3[24U];
 431:Drivers/CMSIS/Include/core_cm7.h ****   __IOM uint32_t IABR[8U];               /*!< Offset: 0x200 (R/W)  Interrupt Active bit Register */
 432:Drivers/CMSIS/Include/core_cm7.h ****         uint32_t RESERVED4[56U];
 433:Drivers/CMSIS/Include/core_cm7.h ****   __IOM uint8_t  IP[240U];               /*!< Offset: 0x300 (R/W)  Interrupt Priority Register (8Bi
 434:Drivers/CMSIS/Include/core_cm7.h ****         uint32_t RESERVED5[644U];
 435:Drivers/CMSIS/Include/core_cm7.h ****   __OM  uint32_t STIR;                   /*!< Offset: 0xE00 ( /W)  Software Trigger Interrupt Regis
 436:Drivers/CMSIS/Include/core_cm7.h **** }  NVIC_Type;
 437:Drivers/CMSIS/Include/core_cm7.h **** 
 438:Drivers/CMSIS/Include/core_cm7.h **** /* Software Triggered Interrupt Register Definitions */
 439:Drivers/CMSIS/Include/core_cm7.h **** #define NVIC_STIR_INTID_Pos                 0U                                         /*!< STIR: I
ARM GAS  /tmp/cc4uKuIh.s 			page 36


 440:Drivers/CMSIS/Include/core_cm7.h **** #define NVIC_STIR_INTID_Msk                (0x1FFUL /*<< NVIC_STIR_INTID_Pos*/)        /*!< STIR: I
 441:Drivers/CMSIS/Include/core_cm7.h **** 
 442:Drivers/CMSIS/Include/core_cm7.h **** /*@} end of group CMSIS_NVIC */
 443:Drivers/CMSIS/Include/core_cm7.h **** 
 444:Drivers/CMSIS/Include/core_cm7.h **** 
 445:Drivers/CMSIS/Include/core_cm7.h **** /**
 446:Drivers/CMSIS/Include/core_cm7.h ****   \ingroup  CMSIS_core_register
 447:Drivers/CMSIS/Include/core_cm7.h ****   \defgroup CMSIS_SCB     System Control Block (SCB)
 448:Drivers/CMSIS/Include/core_cm7.h ****   \brief    Type definitions for the System Control Block Registers
 449:Drivers/CMSIS/Include/core_cm7.h ****   @{
 450:Drivers/CMSIS/Include/core_cm7.h ****  */
 451:Drivers/CMSIS/Include/core_cm7.h **** 
 452:Drivers/CMSIS/Include/core_cm7.h **** /**
 453:Drivers/CMSIS/Include/core_cm7.h ****   \brief  Structure type to access the System Control Block (SCB).
 454:Drivers/CMSIS/Include/core_cm7.h ****  */
 455:Drivers/CMSIS/Include/core_cm7.h **** typedef struct
 456:Drivers/CMSIS/Include/core_cm7.h **** {
 457:Drivers/CMSIS/Include/core_cm7.h ****   __IM  uint32_t CPUID;                  /*!< Offset: 0x000 (R/ )  CPUID Base Register */
 458:Drivers/CMSIS/Include/core_cm7.h ****   __IOM uint32_t ICSR;                   /*!< Offset: 0x004 (R/W)  Interrupt Control and State Regi
 459:Drivers/CMSIS/Include/core_cm7.h ****   __IOM uint32_t VTOR;                   /*!< Offset: 0x008 (R/W)  Vector Table Offset Register */
 460:Drivers/CMSIS/Include/core_cm7.h ****   __IOM uint32_t AIRCR;                  /*!< Offset: 0x00C (R/W)  Application Interrupt and Reset 
 461:Drivers/CMSIS/Include/core_cm7.h ****   __IOM uint32_t SCR;                    /*!< Offset: 0x010 (R/W)  System Control Register */
 462:Drivers/CMSIS/Include/core_cm7.h ****   __IOM uint32_t CCR;                    /*!< Offset: 0x014 (R/W)  Configuration Control Register *
 463:Drivers/CMSIS/Include/core_cm7.h ****   __IOM uint8_t  SHPR[12U];              /*!< Offset: 0x018 (R/W)  System Handlers Priority Registe
 464:Drivers/CMSIS/Include/core_cm7.h ****   __IOM uint32_t SHCSR;                  /*!< Offset: 0x024 (R/W)  System Handler Control and State
 465:Drivers/CMSIS/Include/core_cm7.h ****   __IOM uint32_t CFSR;                   /*!< Offset: 0x028 (R/W)  Configurable Fault Status Regist
 466:Drivers/CMSIS/Include/core_cm7.h ****   __IOM uint32_t HFSR;                   /*!< Offset: 0x02C (R/W)  HardFault Status Register */
 467:Drivers/CMSIS/Include/core_cm7.h ****   __IOM uint32_t DFSR;                   /*!< Offset: 0x030 (R/W)  Debug Fault Status Register */
 468:Drivers/CMSIS/Include/core_cm7.h ****   __IOM uint32_t MMFAR;                  /*!< Offset: 0x034 (R/W)  MemManage Fault Address Register
 469:Drivers/CMSIS/Include/core_cm7.h ****   __IOM uint32_t BFAR;                   /*!< Offset: 0x038 (R/W)  BusFault Address Register */
 470:Drivers/CMSIS/Include/core_cm7.h ****   __IOM uint32_t AFSR;                   /*!< Offset: 0x03C (R/W)  Auxiliary Fault Status Register 
 471:Drivers/CMSIS/Include/core_cm7.h ****   __IM  uint32_t ID_PFR[2U];             /*!< Offset: 0x040 (R/ )  Processor Feature Register */
 472:Drivers/CMSIS/Include/core_cm7.h ****   __IM  uint32_t ID_DFR;                 /*!< Offset: 0x048 (R/ )  Debug Feature Register */
 473:Drivers/CMSIS/Include/core_cm7.h ****   __IM  uint32_t ID_AFR;                 /*!< Offset: 0x04C (R/ )  Auxiliary Feature Register */
 474:Drivers/CMSIS/Include/core_cm7.h ****   __IM  uint32_t ID_MFR[4U];             /*!< Offset: 0x050 (R/ )  Memory Model Feature Register */
 475:Drivers/CMSIS/Include/core_cm7.h ****   __IM  uint32_t ID_ISAR[5U];            /*!< Offset: 0x060 (R/ )  Instruction Set Attributes Regis
 476:Drivers/CMSIS/Include/core_cm7.h ****         uint32_t RESERVED0[1U];
 477:Drivers/CMSIS/Include/core_cm7.h ****   __IM  uint32_t CLIDR;                  /*!< Offset: 0x078 (R/ )  Cache Level ID register */
 478:Drivers/CMSIS/Include/core_cm7.h ****   __IM  uint32_t CTR;                    /*!< Offset: 0x07C (R/ )  Cache Type register */
 479:Drivers/CMSIS/Include/core_cm7.h ****   __IM  uint32_t CCSIDR;                 /*!< Offset: 0x080 (R/ )  Cache Size ID Register */
 480:Drivers/CMSIS/Include/core_cm7.h ****   __IOM uint32_t CSSELR;                 /*!< Offset: 0x084 (R/W)  Cache Size Selection Register */
 481:Drivers/CMSIS/Include/core_cm7.h ****   __IOM uint32_t CPACR;                  /*!< Offset: 0x088 (R/W)  Coprocessor Access Control Regis
 482:Drivers/CMSIS/Include/core_cm7.h ****         uint32_t RESERVED3[93U];
 483:Drivers/CMSIS/Include/core_cm7.h ****   __OM  uint32_t STIR;                   /*!< Offset: 0x200 ( /W)  Software Triggered Interrupt Reg
 484:Drivers/CMSIS/Include/core_cm7.h ****         uint32_t RESERVED4[15U];
 485:Drivers/CMSIS/Include/core_cm7.h ****   __IM  uint32_t MVFR0;                  /*!< Offset: 0x240 (R/ )  Media and VFP Feature Register 0
 486:Drivers/CMSIS/Include/core_cm7.h ****   __IM  uint32_t MVFR1;                  /*!< Offset: 0x244 (R/ )  Media and VFP Feature Register 1
 487:Drivers/CMSIS/Include/core_cm7.h ****   __IM  uint32_t MVFR2;                  /*!< Offset: 0x248 (R/ )  Media and VFP Feature Register 2
 488:Drivers/CMSIS/Include/core_cm7.h ****         uint32_t RESERVED5[1U];
 489:Drivers/CMSIS/Include/core_cm7.h ****   __OM  uint32_t ICIALLU;                /*!< Offset: 0x250 ( /W)  I-Cache Invalidate All to PoU */
 490:Drivers/CMSIS/Include/core_cm7.h ****         uint32_t RESERVED6[1U];
 491:Drivers/CMSIS/Include/core_cm7.h ****   __OM  uint32_t ICIMVAU;                /*!< Offset: 0x258 ( /W)  I-Cache Invalidate by MVA to PoU
 492:Drivers/CMSIS/Include/core_cm7.h ****   __OM  uint32_t DCIMVAC;                /*!< Offset: 0x25C ( /W)  D-Cache Invalidate by MVA to PoC
 493:Drivers/CMSIS/Include/core_cm7.h ****   __OM  uint32_t DCISW;                  /*!< Offset: 0x260 ( /W)  D-Cache Invalidate by Set-way */
 494:Drivers/CMSIS/Include/core_cm7.h ****   __OM  uint32_t DCCMVAU;                /*!< Offset: 0x264 ( /W)  D-Cache Clean by MVA to PoU */
 495:Drivers/CMSIS/Include/core_cm7.h ****   __OM  uint32_t DCCMVAC;                /*!< Offset: 0x268 ( /W)  D-Cache Clean by MVA to PoC */
 496:Drivers/CMSIS/Include/core_cm7.h ****   __OM  uint32_t DCCSW;                  /*!< Offset: 0x26C ( /W)  D-Cache Clean by Set-way */
ARM GAS  /tmp/cc4uKuIh.s 			page 37


 497:Drivers/CMSIS/Include/core_cm7.h ****   __OM  uint32_t DCCIMVAC;               /*!< Offset: 0x270 ( /W)  D-Cache Clean and Invalidate by 
 498:Drivers/CMSIS/Include/core_cm7.h ****   __OM  uint32_t DCCISW;                 /*!< Offset: 0x274 ( /W)  D-Cache Clean and Invalidate by 
 499:Drivers/CMSIS/Include/core_cm7.h ****         uint32_t RESERVED7[6U];
 500:Drivers/CMSIS/Include/core_cm7.h ****   __IOM uint32_t ITCMCR;                 /*!< Offset: 0x290 (R/W)  Instruction Tightly-Coupled Memo
 501:Drivers/CMSIS/Include/core_cm7.h ****   __IOM uint32_t DTCMCR;                 /*!< Offset: 0x294 (R/W)  Data Tightly-Coupled Memory Cont
 502:Drivers/CMSIS/Include/core_cm7.h ****   __IOM uint32_t AHBPCR;                 /*!< Offset: 0x298 (R/W)  AHBP Control Register */
 503:Drivers/CMSIS/Include/core_cm7.h ****   __IOM uint32_t CACR;                   /*!< Offset: 0x29C (R/W)  L1 Cache Control Register */
 504:Drivers/CMSIS/Include/core_cm7.h ****   __IOM uint32_t AHBSCR;                 /*!< Offset: 0x2A0 (R/W)  AHB Slave Control Register */
 505:Drivers/CMSIS/Include/core_cm7.h ****         uint32_t RESERVED8[1U];
 506:Drivers/CMSIS/Include/core_cm7.h ****   __IOM uint32_t ABFSR;                  /*!< Offset: 0x2A8 (R/W)  Auxiliary Bus Fault Status Regis
 507:Drivers/CMSIS/Include/core_cm7.h **** } SCB_Type;
 508:Drivers/CMSIS/Include/core_cm7.h **** 
 509:Drivers/CMSIS/Include/core_cm7.h **** /* SCB CPUID Register Definitions */
 510:Drivers/CMSIS/Include/core_cm7.h **** #define SCB_CPUID_IMPLEMENTER_Pos          24U                                            /*!< SCB 
 511:Drivers/CMSIS/Include/core_cm7.h **** #define SCB_CPUID_IMPLEMENTER_Msk          (0xFFUL << SCB_CPUID_IMPLEMENTER_Pos)          /*!< SCB 
 512:Drivers/CMSIS/Include/core_cm7.h **** 
 513:Drivers/CMSIS/Include/core_cm7.h **** #define SCB_CPUID_VARIANT_Pos              20U                                            /*!< SCB 
 514:Drivers/CMSIS/Include/core_cm7.h **** #define SCB_CPUID_VARIANT_Msk              (0xFUL << SCB_CPUID_VARIANT_Pos)               /*!< SCB 
 515:Drivers/CMSIS/Include/core_cm7.h **** 
 516:Drivers/CMSIS/Include/core_cm7.h **** #define SCB_CPUID_ARCHITECTURE_Pos         16U                                            /*!< SCB 
 517:Drivers/CMSIS/Include/core_cm7.h **** #define SCB_CPUID_ARCHITECTURE_Msk         (0xFUL << SCB_CPUID_ARCHITECTURE_Pos)          /*!< SCB 
 518:Drivers/CMSIS/Include/core_cm7.h **** 
 519:Drivers/CMSIS/Include/core_cm7.h **** #define SCB_CPUID_PARTNO_Pos                4U                                            /*!< SCB 
 520:Drivers/CMSIS/Include/core_cm7.h **** #define SCB_CPUID_PARTNO_Msk               (0xFFFUL << SCB_CPUID_PARTNO_Pos)              /*!< SCB 
 521:Drivers/CMSIS/Include/core_cm7.h **** 
 522:Drivers/CMSIS/Include/core_cm7.h **** #define SCB_CPUID_REVISION_Pos              0U                                            /*!< SCB 
 523:Drivers/CMSIS/Include/core_cm7.h **** #define SCB_CPUID_REVISION_Msk             (0xFUL /*<< SCB_CPUID_REVISION_Pos*/)          /*!< SCB 
 524:Drivers/CMSIS/Include/core_cm7.h **** 
 525:Drivers/CMSIS/Include/core_cm7.h **** /* SCB Interrupt Control State Register Definitions */
 526:Drivers/CMSIS/Include/core_cm7.h **** #define SCB_ICSR_NMIPENDSET_Pos            31U                                            /*!< SCB 
 527:Drivers/CMSIS/Include/core_cm7.h **** #define SCB_ICSR_NMIPENDSET_Msk            (1UL << SCB_ICSR_NMIPENDSET_Pos)               /*!< SCB 
 528:Drivers/CMSIS/Include/core_cm7.h **** 
 529:Drivers/CMSIS/Include/core_cm7.h **** #define SCB_ICSR_PENDSVSET_Pos             28U                                            /*!< SCB 
 530:Drivers/CMSIS/Include/core_cm7.h **** #define SCB_ICSR_PENDSVSET_Msk             (1UL << SCB_ICSR_PENDSVSET_Pos)                /*!< SCB 
 531:Drivers/CMSIS/Include/core_cm7.h **** 
 532:Drivers/CMSIS/Include/core_cm7.h **** #define SCB_ICSR_PENDSVCLR_Pos             27U                                            /*!< SCB 
 533:Drivers/CMSIS/Include/core_cm7.h **** #define SCB_ICSR_PENDSVCLR_Msk             (1UL << SCB_ICSR_PENDSVCLR_Pos)                /*!< SCB 
 534:Drivers/CMSIS/Include/core_cm7.h **** 
 535:Drivers/CMSIS/Include/core_cm7.h **** #define SCB_ICSR_PENDSTSET_Pos             26U                                            /*!< SCB 
 536:Drivers/CMSIS/Include/core_cm7.h **** #define SCB_ICSR_PENDSTSET_Msk             (1UL << SCB_ICSR_PENDSTSET_Pos)                /*!< SCB 
 537:Drivers/CMSIS/Include/core_cm7.h **** 
 538:Drivers/CMSIS/Include/core_cm7.h **** #define SCB_ICSR_PENDSTCLR_Pos             25U                                            /*!< SCB 
 539:Drivers/CMSIS/Include/core_cm7.h **** #define SCB_ICSR_PENDSTCLR_Msk             (1UL << SCB_ICSR_PENDSTCLR_Pos)                /*!< SCB 
 540:Drivers/CMSIS/Include/core_cm7.h **** 
 541:Drivers/CMSIS/Include/core_cm7.h **** #define SCB_ICSR_ISRPREEMPT_Pos            23U                                            /*!< SCB 
 542:Drivers/CMSIS/Include/core_cm7.h **** #define SCB_ICSR_ISRPREEMPT_Msk            (1UL << SCB_ICSR_ISRPREEMPT_Pos)               /*!< SCB 
 543:Drivers/CMSIS/Include/core_cm7.h **** 
 544:Drivers/CMSIS/Include/core_cm7.h **** #define SCB_ICSR_ISRPENDING_Pos            22U                                            /*!< SCB 
 545:Drivers/CMSIS/Include/core_cm7.h **** #define SCB_ICSR_ISRPENDING_Msk            (1UL << SCB_ICSR_ISRPENDING_Pos)               /*!< SCB 
 546:Drivers/CMSIS/Include/core_cm7.h **** 
 547:Drivers/CMSIS/Include/core_cm7.h **** #define SCB_ICSR_VECTPENDING_Pos           12U                                            /*!< SCB 
 548:Drivers/CMSIS/Include/core_cm7.h **** #define SCB_ICSR_VECTPENDING_Msk           (0x1FFUL << SCB_ICSR_VECTPENDING_Pos)          /*!< SCB 
 549:Drivers/CMSIS/Include/core_cm7.h **** 
 550:Drivers/CMSIS/Include/core_cm7.h **** #define SCB_ICSR_RETTOBASE_Pos             11U                                            /*!< SCB 
 551:Drivers/CMSIS/Include/core_cm7.h **** #define SCB_ICSR_RETTOBASE_Msk             (1UL << SCB_ICSR_RETTOBASE_Pos)                /*!< SCB 
 552:Drivers/CMSIS/Include/core_cm7.h **** 
 553:Drivers/CMSIS/Include/core_cm7.h **** #define SCB_ICSR_VECTACTIVE_Pos             0U                                            /*!< SCB 
ARM GAS  /tmp/cc4uKuIh.s 			page 38


 554:Drivers/CMSIS/Include/core_cm7.h **** #define SCB_ICSR_VECTACTIVE_Msk            (0x1FFUL /*<< SCB_ICSR_VECTACTIVE_Pos*/)       /*!< SCB 
 555:Drivers/CMSIS/Include/core_cm7.h **** 
 556:Drivers/CMSIS/Include/core_cm7.h **** /* SCB Vector Table Offset Register Definitions */
 557:Drivers/CMSIS/Include/core_cm7.h **** #define SCB_VTOR_TBLOFF_Pos                 7U                                            /*!< SCB 
 558:Drivers/CMSIS/Include/core_cm7.h **** #define SCB_VTOR_TBLOFF_Msk                (0x1FFFFFFUL << SCB_VTOR_TBLOFF_Pos)           /*!< SCB 
 559:Drivers/CMSIS/Include/core_cm7.h **** 
 560:Drivers/CMSIS/Include/core_cm7.h **** /* SCB Application Interrupt and Reset Control Register Definitions */
 561:Drivers/CMSIS/Include/core_cm7.h **** #define SCB_AIRCR_VECTKEY_Pos              16U                                            /*!< SCB 
 562:Drivers/CMSIS/Include/core_cm7.h **** #define SCB_AIRCR_VECTKEY_Msk              (0xFFFFUL << SCB_AIRCR_VECTKEY_Pos)            /*!< SCB 
 563:Drivers/CMSIS/Include/core_cm7.h **** 
 564:Drivers/CMSIS/Include/core_cm7.h **** #define SCB_AIRCR_VECTKEYSTAT_Pos          16U                                            /*!< SCB 
 565:Drivers/CMSIS/Include/core_cm7.h **** #define SCB_AIRCR_VECTKEYSTAT_Msk          (0xFFFFUL << SCB_AIRCR_VECTKEYSTAT_Pos)        /*!< SCB 
 566:Drivers/CMSIS/Include/core_cm7.h **** 
 567:Drivers/CMSIS/Include/core_cm7.h **** #define SCB_AIRCR_ENDIANESS_Pos            15U                                            /*!< SCB 
 568:Drivers/CMSIS/Include/core_cm7.h **** #define SCB_AIRCR_ENDIANESS_Msk            (1UL << SCB_AIRCR_ENDIANESS_Pos)               /*!< SCB 
 569:Drivers/CMSIS/Include/core_cm7.h **** 
 570:Drivers/CMSIS/Include/core_cm7.h **** #define SCB_AIRCR_PRIGROUP_Pos              8U                                            /*!< SCB 
 571:Drivers/CMSIS/Include/core_cm7.h **** #define SCB_AIRCR_PRIGROUP_Msk             (7UL << SCB_AIRCR_PRIGROUP_Pos)                /*!< SCB 
 572:Drivers/CMSIS/Include/core_cm7.h **** 
 573:Drivers/CMSIS/Include/core_cm7.h **** #define SCB_AIRCR_SYSRESETREQ_Pos           2U                                            /*!< SCB 
 574:Drivers/CMSIS/Include/core_cm7.h **** #define SCB_AIRCR_SYSRESETREQ_Msk          (1UL << SCB_AIRCR_SYSRESETREQ_Pos)             /*!< SCB 
 575:Drivers/CMSIS/Include/core_cm7.h **** 
 576:Drivers/CMSIS/Include/core_cm7.h **** #define SCB_AIRCR_VECTCLRACTIVE_Pos         1U                                            /*!< SCB 
 577:Drivers/CMSIS/Include/core_cm7.h **** #define SCB_AIRCR_VECTCLRACTIVE_Msk        (1UL << SCB_AIRCR_VECTCLRACTIVE_Pos)           /*!< SCB 
 578:Drivers/CMSIS/Include/core_cm7.h **** 
 579:Drivers/CMSIS/Include/core_cm7.h **** #define SCB_AIRCR_VECTRESET_Pos             0U                                            /*!< SCB 
 580:Drivers/CMSIS/Include/core_cm7.h **** #define SCB_AIRCR_VECTRESET_Msk            (1UL /*<< SCB_AIRCR_VECTRESET_Pos*/)           /*!< SCB 
 581:Drivers/CMSIS/Include/core_cm7.h **** 
 582:Drivers/CMSIS/Include/core_cm7.h **** /* SCB System Control Register Definitions */
 583:Drivers/CMSIS/Include/core_cm7.h **** #define SCB_SCR_SEVONPEND_Pos               4U                                            /*!< SCB 
 584:Drivers/CMSIS/Include/core_cm7.h **** #define SCB_SCR_SEVONPEND_Msk              (1UL << SCB_SCR_SEVONPEND_Pos)                 /*!< SCB 
 585:Drivers/CMSIS/Include/core_cm7.h **** 
 586:Drivers/CMSIS/Include/core_cm7.h **** #define SCB_SCR_SLEEPDEEP_Pos               2U                                            /*!< SCB 
 587:Drivers/CMSIS/Include/core_cm7.h **** #define SCB_SCR_SLEEPDEEP_Msk              (1UL << SCB_SCR_SLEEPDEEP_Pos)                 /*!< SCB 
 588:Drivers/CMSIS/Include/core_cm7.h **** 
 589:Drivers/CMSIS/Include/core_cm7.h **** #define SCB_SCR_SLEEPONEXIT_Pos             1U                                            /*!< SCB 
 590:Drivers/CMSIS/Include/core_cm7.h **** #define SCB_SCR_SLEEPONEXIT_Msk            (1UL << SCB_SCR_SLEEPONEXIT_Pos)               /*!< SCB 
 591:Drivers/CMSIS/Include/core_cm7.h **** 
 592:Drivers/CMSIS/Include/core_cm7.h **** /* SCB Configuration Control Register Definitions */
 593:Drivers/CMSIS/Include/core_cm7.h **** #define SCB_CCR_BP_Pos                      18U                                           /*!< SCB 
 594:Drivers/CMSIS/Include/core_cm7.h **** #define SCB_CCR_BP_Msk                     (1UL << SCB_CCR_BP_Pos)                        /*!< SCB 
 595:Drivers/CMSIS/Include/core_cm7.h **** 
 596:Drivers/CMSIS/Include/core_cm7.h **** #define SCB_CCR_IC_Pos                      17U                                           /*!< SCB 
 597:Drivers/CMSIS/Include/core_cm7.h **** #define SCB_CCR_IC_Msk                     (1UL << SCB_CCR_IC_Pos)                        /*!< SCB 
 598:Drivers/CMSIS/Include/core_cm7.h **** 
 599:Drivers/CMSIS/Include/core_cm7.h **** #define SCB_CCR_DC_Pos                      16U                                           /*!< SCB 
 600:Drivers/CMSIS/Include/core_cm7.h **** #define SCB_CCR_DC_Msk                     (1UL << SCB_CCR_DC_Pos)                        /*!< SCB 
 601:Drivers/CMSIS/Include/core_cm7.h **** 
 602:Drivers/CMSIS/Include/core_cm7.h **** #define SCB_CCR_STKALIGN_Pos                9U                                            /*!< SCB 
 603:Drivers/CMSIS/Include/core_cm7.h **** #define SCB_CCR_STKALIGN_Msk               (1UL << SCB_CCR_STKALIGN_Pos)                  /*!< SCB 
 604:Drivers/CMSIS/Include/core_cm7.h **** 
 605:Drivers/CMSIS/Include/core_cm7.h **** #define SCB_CCR_BFHFNMIGN_Pos               8U                                            /*!< SCB 
 606:Drivers/CMSIS/Include/core_cm7.h **** #define SCB_CCR_BFHFNMIGN_Msk              (1UL << SCB_CCR_BFHFNMIGN_Pos)                 /*!< SCB 
 607:Drivers/CMSIS/Include/core_cm7.h **** 
 608:Drivers/CMSIS/Include/core_cm7.h **** #define SCB_CCR_DIV_0_TRP_Pos               4U                                            /*!< SCB 
 609:Drivers/CMSIS/Include/core_cm7.h **** #define SCB_CCR_DIV_0_TRP_Msk              (1UL << SCB_CCR_DIV_0_TRP_Pos)                 /*!< SCB 
 610:Drivers/CMSIS/Include/core_cm7.h **** 
ARM GAS  /tmp/cc4uKuIh.s 			page 39


 611:Drivers/CMSIS/Include/core_cm7.h **** #define SCB_CCR_UNALIGN_TRP_Pos             3U                                            /*!< SCB 
 612:Drivers/CMSIS/Include/core_cm7.h **** #define SCB_CCR_UNALIGN_TRP_Msk            (1UL << SCB_CCR_UNALIGN_TRP_Pos)               /*!< SCB 
 613:Drivers/CMSIS/Include/core_cm7.h **** 
 614:Drivers/CMSIS/Include/core_cm7.h **** #define SCB_CCR_USERSETMPEND_Pos            1U                                            /*!< SCB 
 615:Drivers/CMSIS/Include/core_cm7.h **** #define SCB_CCR_USERSETMPEND_Msk           (1UL << SCB_CCR_USERSETMPEND_Pos)              /*!< SCB 
 616:Drivers/CMSIS/Include/core_cm7.h **** 
 617:Drivers/CMSIS/Include/core_cm7.h **** #define SCB_CCR_NONBASETHRDENA_Pos          0U                                            /*!< SCB 
 618:Drivers/CMSIS/Include/core_cm7.h **** #define SCB_CCR_NONBASETHRDENA_Msk         (1UL /*<< SCB_CCR_NONBASETHRDENA_Pos*/)        /*!< SCB 
 619:Drivers/CMSIS/Include/core_cm7.h **** 
 620:Drivers/CMSIS/Include/core_cm7.h **** /* SCB System Handler Control and State Register Definitions */
 621:Drivers/CMSIS/Include/core_cm7.h **** #define SCB_SHCSR_USGFAULTENA_Pos          18U                                            /*!< SCB 
 622:Drivers/CMSIS/Include/core_cm7.h **** #define SCB_SHCSR_USGFAULTENA_Msk          (1UL << SCB_SHCSR_USGFAULTENA_Pos)             /*!< SCB 
 623:Drivers/CMSIS/Include/core_cm7.h **** 
 624:Drivers/CMSIS/Include/core_cm7.h **** #define SCB_SHCSR_BUSFAULTENA_Pos          17U                                            /*!< SCB 
 625:Drivers/CMSIS/Include/core_cm7.h **** #define SCB_SHCSR_BUSFAULTENA_Msk          (1UL << SCB_SHCSR_BUSFAULTENA_Pos)             /*!< SCB 
 626:Drivers/CMSIS/Include/core_cm7.h **** 
 627:Drivers/CMSIS/Include/core_cm7.h **** #define SCB_SHCSR_MEMFAULTENA_Pos          16U                                            /*!< SCB 
 628:Drivers/CMSIS/Include/core_cm7.h **** #define SCB_SHCSR_MEMFAULTENA_Msk          (1UL << SCB_SHCSR_MEMFAULTENA_Pos)             /*!< SCB 
 629:Drivers/CMSIS/Include/core_cm7.h **** 
 630:Drivers/CMSIS/Include/core_cm7.h **** #define SCB_SHCSR_SVCALLPENDED_Pos         15U                                            /*!< SCB 
 631:Drivers/CMSIS/Include/core_cm7.h **** #define SCB_SHCSR_SVCALLPENDED_Msk         (1UL << SCB_SHCSR_SVCALLPENDED_Pos)            /*!< SCB 
 632:Drivers/CMSIS/Include/core_cm7.h **** 
 633:Drivers/CMSIS/Include/core_cm7.h **** #define SCB_SHCSR_BUSFAULTPENDED_Pos       14U                                            /*!< SCB 
 634:Drivers/CMSIS/Include/core_cm7.h **** #define SCB_SHCSR_BUSFAULTPENDED_Msk       (1UL << SCB_SHCSR_BUSFAULTPENDED_Pos)          /*!< SCB 
 635:Drivers/CMSIS/Include/core_cm7.h **** 
 636:Drivers/CMSIS/Include/core_cm7.h **** #define SCB_SHCSR_MEMFAULTPENDED_Pos       13U                                            /*!< SCB 
 637:Drivers/CMSIS/Include/core_cm7.h **** #define SCB_SHCSR_MEMFAULTPENDED_Msk       (1UL << SCB_SHCSR_MEMFAULTPENDED_Pos)          /*!< SCB 
 638:Drivers/CMSIS/Include/core_cm7.h **** 
 639:Drivers/CMSIS/Include/core_cm7.h **** #define SCB_SHCSR_USGFAULTPENDED_Pos       12U                                            /*!< SCB 
 640:Drivers/CMSIS/Include/core_cm7.h **** #define SCB_SHCSR_USGFAULTPENDED_Msk       (1UL << SCB_SHCSR_USGFAULTPENDED_Pos)          /*!< SCB 
 641:Drivers/CMSIS/Include/core_cm7.h **** 
 642:Drivers/CMSIS/Include/core_cm7.h **** #define SCB_SHCSR_SYSTICKACT_Pos           11U                                            /*!< SCB 
 643:Drivers/CMSIS/Include/core_cm7.h **** #define SCB_SHCSR_SYSTICKACT_Msk           (1UL << SCB_SHCSR_SYSTICKACT_Pos)              /*!< SCB 
 644:Drivers/CMSIS/Include/core_cm7.h **** 
 645:Drivers/CMSIS/Include/core_cm7.h **** #define SCB_SHCSR_PENDSVACT_Pos            10U                                            /*!< SCB 
 646:Drivers/CMSIS/Include/core_cm7.h **** #define SCB_SHCSR_PENDSVACT_Msk            (1UL << SCB_SHCSR_PENDSVACT_Pos)               /*!< SCB 
 647:Drivers/CMSIS/Include/core_cm7.h **** 
 648:Drivers/CMSIS/Include/core_cm7.h **** #define SCB_SHCSR_MONITORACT_Pos            8U                                            /*!< SCB 
 649:Drivers/CMSIS/Include/core_cm7.h **** #define SCB_SHCSR_MONITORACT_Msk           (1UL << SCB_SHCSR_MONITORACT_Pos)              /*!< SCB 
 650:Drivers/CMSIS/Include/core_cm7.h **** 
 651:Drivers/CMSIS/Include/core_cm7.h **** #define SCB_SHCSR_SVCALLACT_Pos             7U                                            /*!< SCB 
 652:Drivers/CMSIS/Include/core_cm7.h **** #define SCB_SHCSR_SVCALLACT_Msk            (1UL << SCB_SHCSR_SVCALLACT_Pos)               /*!< SCB 
 653:Drivers/CMSIS/Include/core_cm7.h **** 
 654:Drivers/CMSIS/Include/core_cm7.h **** #define SCB_SHCSR_USGFAULTACT_Pos           3U                                            /*!< SCB 
 655:Drivers/CMSIS/Include/core_cm7.h **** #define SCB_SHCSR_USGFAULTACT_Msk          (1UL << SCB_SHCSR_USGFAULTACT_Pos)             /*!< SCB 
 656:Drivers/CMSIS/Include/core_cm7.h **** 
 657:Drivers/CMSIS/Include/core_cm7.h **** #define SCB_SHCSR_BUSFAULTACT_Pos           1U                                            /*!< SCB 
 658:Drivers/CMSIS/Include/core_cm7.h **** #define SCB_SHCSR_BUSFAULTACT_Msk          (1UL << SCB_SHCSR_BUSFAULTACT_Pos)             /*!< SCB 
 659:Drivers/CMSIS/Include/core_cm7.h **** 
 660:Drivers/CMSIS/Include/core_cm7.h **** #define SCB_SHCSR_MEMFAULTACT_Pos           0U                                            /*!< SCB 
 661:Drivers/CMSIS/Include/core_cm7.h **** #define SCB_SHCSR_MEMFAULTACT_Msk          (1UL /*<< SCB_SHCSR_MEMFAULTACT_Pos*/)         /*!< SCB 
 662:Drivers/CMSIS/Include/core_cm7.h **** 
 663:Drivers/CMSIS/Include/core_cm7.h **** /* SCB Configurable Fault Status Register Definitions */
 664:Drivers/CMSIS/Include/core_cm7.h **** #define SCB_CFSR_USGFAULTSR_Pos            16U                                            /*!< SCB 
 665:Drivers/CMSIS/Include/core_cm7.h **** #define SCB_CFSR_USGFAULTSR_Msk            (0xFFFFUL << SCB_CFSR_USGFAULTSR_Pos)          /*!< SCB 
 666:Drivers/CMSIS/Include/core_cm7.h **** 
 667:Drivers/CMSIS/Include/core_cm7.h **** #define SCB_CFSR_BUSFAULTSR_Pos             8U                                            /*!< SCB 
ARM GAS  /tmp/cc4uKuIh.s 			page 40


 668:Drivers/CMSIS/Include/core_cm7.h **** #define SCB_CFSR_BUSFAULTSR_Msk            (0xFFUL << SCB_CFSR_BUSFAULTSR_Pos)            /*!< SCB 
 669:Drivers/CMSIS/Include/core_cm7.h **** 
 670:Drivers/CMSIS/Include/core_cm7.h **** #define SCB_CFSR_MEMFAULTSR_Pos             0U                                            /*!< SCB 
 671:Drivers/CMSIS/Include/core_cm7.h **** #define SCB_CFSR_MEMFAULTSR_Msk            (0xFFUL /*<< SCB_CFSR_MEMFAULTSR_Pos*/)        /*!< SCB 
 672:Drivers/CMSIS/Include/core_cm7.h **** 
 673:Drivers/CMSIS/Include/core_cm7.h **** /* MemManage Fault Status Register (part of SCB Configurable Fault Status Register) */
 674:Drivers/CMSIS/Include/core_cm7.h **** #define SCB_CFSR_MMARVALID_Pos             (SCB_SHCSR_MEMFAULTACT_Pos + 7U)               /*!< SCB 
 675:Drivers/CMSIS/Include/core_cm7.h **** #define SCB_CFSR_MMARVALID_Msk             (1UL << SCB_CFSR_MMARVALID_Pos)                /*!< SCB 
 676:Drivers/CMSIS/Include/core_cm7.h **** 
 677:Drivers/CMSIS/Include/core_cm7.h **** #define SCB_CFSR_MLSPERR_Pos               (SCB_SHCSR_MEMFAULTACT_Pos + 5U)               /*!< SCB 
 678:Drivers/CMSIS/Include/core_cm7.h **** #define SCB_CFSR_MLSPERR_Msk               (1UL << SCB_CFSR_MLSPERR_Pos)                  /*!< SCB 
 679:Drivers/CMSIS/Include/core_cm7.h **** 
 680:Drivers/CMSIS/Include/core_cm7.h **** #define SCB_CFSR_MSTKERR_Pos               (SCB_SHCSR_MEMFAULTACT_Pos + 4U)               /*!< SCB 
 681:Drivers/CMSIS/Include/core_cm7.h **** #define SCB_CFSR_MSTKERR_Msk               (1UL << SCB_CFSR_MSTKERR_Pos)                  /*!< SCB 
 682:Drivers/CMSIS/Include/core_cm7.h **** 
 683:Drivers/CMSIS/Include/core_cm7.h **** #define SCB_CFSR_MUNSTKERR_Pos             (SCB_SHCSR_MEMFAULTACT_Pos + 3U)               /*!< SCB 
 684:Drivers/CMSIS/Include/core_cm7.h **** #define SCB_CFSR_MUNSTKERR_Msk             (1UL << SCB_CFSR_MUNSTKERR_Pos)                /*!< SCB 
 685:Drivers/CMSIS/Include/core_cm7.h **** 
 686:Drivers/CMSIS/Include/core_cm7.h **** #define SCB_CFSR_DACCVIOL_Pos              (SCB_SHCSR_MEMFAULTACT_Pos + 1U)               /*!< SCB 
 687:Drivers/CMSIS/Include/core_cm7.h **** #define SCB_CFSR_DACCVIOL_Msk              (1UL << SCB_CFSR_DACCVIOL_Pos)                 /*!< SCB 
 688:Drivers/CMSIS/Include/core_cm7.h **** 
 689:Drivers/CMSIS/Include/core_cm7.h **** #define SCB_CFSR_IACCVIOL_Pos              (SCB_SHCSR_MEMFAULTACT_Pos + 0U)               /*!< SCB 
 690:Drivers/CMSIS/Include/core_cm7.h **** #define SCB_CFSR_IACCVIOL_Msk              (1UL /*<< SCB_CFSR_IACCVIOL_Pos*/)             /*!< SCB 
 691:Drivers/CMSIS/Include/core_cm7.h **** 
 692:Drivers/CMSIS/Include/core_cm7.h **** /* BusFault Status Register (part of SCB Configurable Fault Status Register) */
 693:Drivers/CMSIS/Include/core_cm7.h **** #define SCB_CFSR_BFARVALID_Pos            (SCB_CFSR_BUSFAULTSR_Pos + 7U)                  /*!< SCB 
 694:Drivers/CMSIS/Include/core_cm7.h **** #define SCB_CFSR_BFARVALID_Msk            (1UL << SCB_CFSR_BFARVALID_Pos)                 /*!< SCB 
 695:Drivers/CMSIS/Include/core_cm7.h **** 
 696:Drivers/CMSIS/Include/core_cm7.h **** #define SCB_CFSR_LSPERR_Pos               (SCB_CFSR_BUSFAULTSR_Pos + 5U)                  /*!< SCB 
 697:Drivers/CMSIS/Include/core_cm7.h **** #define SCB_CFSR_LSPERR_Msk               (1UL << SCB_CFSR_LSPERR_Pos)                    /*!< SCB 
 698:Drivers/CMSIS/Include/core_cm7.h **** 
 699:Drivers/CMSIS/Include/core_cm7.h **** #define SCB_CFSR_STKERR_Pos               (SCB_CFSR_BUSFAULTSR_Pos + 4U)                  /*!< SCB 
 700:Drivers/CMSIS/Include/core_cm7.h **** #define SCB_CFSR_STKERR_Msk               (1UL << SCB_CFSR_STKERR_Pos)                    /*!< SCB 
 701:Drivers/CMSIS/Include/core_cm7.h **** 
 702:Drivers/CMSIS/Include/core_cm7.h **** #define SCB_CFSR_UNSTKERR_Pos             (SCB_CFSR_BUSFAULTSR_Pos + 3U)                  /*!< SCB 
 703:Drivers/CMSIS/Include/core_cm7.h **** #define SCB_CFSR_UNSTKERR_Msk             (1UL << SCB_CFSR_UNSTKERR_Pos)                  /*!< SCB 
 704:Drivers/CMSIS/Include/core_cm7.h **** 
 705:Drivers/CMSIS/Include/core_cm7.h **** #define SCB_CFSR_IMPRECISERR_Pos          (SCB_CFSR_BUSFAULTSR_Pos + 2U)                  /*!< SCB 
 706:Drivers/CMSIS/Include/core_cm7.h **** #define SCB_CFSR_IMPRECISERR_Msk          (1UL << SCB_CFSR_IMPRECISERR_Pos)               /*!< SCB 
 707:Drivers/CMSIS/Include/core_cm7.h **** 
 708:Drivers/CMSIS/Include/core_cm7.h **** #define SCB_CFSR_PRECISERR_Pos            (SCB_CFSR_BUSFAULTSR_Pos + 1U)                  /*!< SCB 
 709:Drivers/CMSIS/Include/core_cm7.h **** #define SCB_CFSR_PRECISERR_Msk            (1UL << SCB_CFSR_PRECISERR_Pos)                 /*!< SCB 
 710:Drivers/CMSIS/Include/core_cm7.h **** 
 711:Drivers/CMSIS/Include/core_cm7.h **** #define SCB_CFSR_IBUSERR_Pos              (SCB_CFSR_BUSFAULTSR_Pos + 0U)                  /*!< SCB 
 712:Drivers/CMSIS/Include/core_cm7.h **** #define SCB_CFSR_IBUSERR_Msk              (1UL << SCB_CFSR_IBUSERR_Pos)                   /*!< SCB 
 713:Drivers/CMSIS/Include/core_cm7.h **** 
 714:Drivers/CMSIS/Include/core_cm7.h **** /* UsageFault Status Register (part of SCB Configurable Fault Status Register) */
 715:Drivers/CMSIS/Include/core_cm7.h **** #define SCB_CFSR_DIVBYZERO_Pos            (SCB_CFSR_USGFAULTSR_Pos + 9U)                  /*!< SCB 
 716:Drivers/CMSIS/Include/core_cm7.h **** #define SCB_CFSR_DIVBYZERO_Msk            (1UL << SCB_CFSR_DIVBYZERO_Pos)                 /*!< SCB 
 717:Drivers/CMSIS/Include/core_cm7.h **** 
 718:Drivers/CMSIS/Include/core_cm7.h **** #define SCB_CFSR_UNALIGNED_Pos            (SCB_CFSR_USGFAULTSR_Pos + 8U)                  /*!< SCB 
 719:Drivers/CMSIS/Include/core_cm7.h **** #define SCB_CFSR_UNALIGNED_Msk            (1UL << SCB_CFSR_UNALIGNED_Pos)                 /*!< SCB 
 720:Drivers/CMSIS/Include/core_cm7.h **** 
 721:Drivers/CMSIS/Include/core_cm7.h **** #define SCB_CFSR_NOCP_Pos                 (SCB_CFSR_USGFAULTSR_Pos + 3U)                  /*!< SCB 
 722:Drivers/CMSIS/Include/core_cm7.h **** #define SCB_CFSR_NOCP_Msk                 (1UL << SCB_CFSR_NOCP_Pos)                      /*!< SCB 
 723:Drivers/CMSIS/Include/core_cm7.h **** 
 724:Drivers/CMSIS/Include/core_cm7.h **** #define SCB_CFSR_INVPC_Pos                (SCB_CFSR_USGFAULTSR_Pos + 2U)                  /*!< SCB 
ARM GAS  /tmp/cc4uKuIh.s 			page 41


 725:Drivers/CMSIS/Include/core_cm7.h **** #define SCB_CFSR_INVPC_Msk                (1UL << SCB_CFSR_INVPC_Pos)                     /*!< SCB 
 726:Drivers/CMSIS/Include/core_cm7.h **** 
 727:Drivers/CMSIS/Include/core_cm7.h **** #define SCB_CFSR_INVSTATE_Pos             (SCB_CFSR_USGFAULTSR_Pos + 1U)                  /*!< SCB 
 728:Drivers/CMSIS/Include/core_cm7.h **** #define SCB_CFSR_INVSTATE_Msk             (1UL << SCB_CFSR_INVSTATE_Pos)                  /*!< SCB 
 729:Drivers/CMSIS/Include/core_cm7.h **** 
 730:Drivers/CMSIS/Include/core_cm7.h **** #define SCB_CFSR_UNDEFINSTR_Pos           (SCB_CFSR_USGFAULTSR_Pos + 0U)                  /*!< SCB 
 731:Drivers/CMSIS/Include/core_cm7.h **** #define SCB_CFSR_UNDEFINSTR_Msk           (1UL << SCB_CFSR_UNDEFINSTR_Pos)                /*!< SCB 
 732:Drivers/CMSIS/Include/core_cm7.h **** 
 733:Drivers/CMSIS/Include/core_cm7.h **** /* SCB Hard Fault Status Register Definitions */
 734:Drivers/CMSIS/Include/core_cm7.h **** #define SCB_HFSR_DEBUGEVT_Pos              31U                                            /*!< SCB 
 735:Drivers/CMSIS/Include/core_cm7.h **** #define SCB_HFSR_DEBUGEVT_Msk              (1UL << SCB_HFSR_DEBUGEVT_Pos)                 /*!< SCB 
 736:Drivers/CMSIS/Include/core_cm7.h **** 
 737:Drivers/CMSIS/Include/core_cm7.h **** #define SCB_HFSR_FORCED_Pos                30U                                            /*!< SCB 
 738:Drivers/CMSIS/Include/core_cm7.h **** #define SCB_HFSR_FORCED_Msk                (1UL << SCB_HFSR_FORCED_Pos)                   /*!< SCB 
 739:Drivers/CMSIS/Include/core_cm7.h **** 
 740:Drivers/CMSIS/Include/core_cm7.h **** #define SCB_HFSR_VECTTBL_Pos                1U                                            /*!< SCB 
 741:Drivers/CMSIS/Include/core_cm7.h **** #define SCB_HFSR_VECTTBL_Msk               (1UL << SCB_HFSR_VECTTBL_Pos)                  /*!< SCB 
 742:Drivers/CMSIS/Include/core_cm7.h **** 
 743:Drivers/CMSIS/Include/core_cm7.h **** /* SCB Debug Fault Status Register Definitions */
 744:Drivers/CMSIS/Include/core_cm7.h **** #define SCB_DFSR_EXTERNAL_Pos               4U                                            /*!< SCB 
 745:Drivers/CMSIS/Include/core_cm7.h **** #define SCB_DFSR_EXTERNAL_Msk              (1UL << SCB_DFSR_EXTERNAL_Pos)                 /*!< SCB 
 746:Drivers/CMSIS/Include/core_cm7.h **** 
 747:Drivers/CMSIS/Include/core_cm7.h **** #define SCB_DFSR_VCATCH_Pos                 3U                                            /*!< SCB 
 748:Drivers/CMSIS/Include/core_cm7.h **** #define SCB_DFSR_VCATCH_Msk                (1UL << SCB_DFSR_VCATCH_Pos)                   /*!< SCB 
 749:Drivers/CMSIS/Include/core_cm7.h **** 
 750:Drivers/CMSIS/Include/core_cm7.h **** #define SCB_DFSR_DWTTRAP_Pos                2U                                            /*!< SCB 
 751:Drivers/CMSIS/Include/core_cm7.h **** #define SCB_DFSR_DWTTRAP_Msk               (1UL << SCB_DFSR_DWTTRAP_Pos)                  /*!< SCB 
 752:Drivers/CMSIS/Include/core_cm7.h **** 
 753:Drivers/CMSIS/Include/core_cm7.h **** #define SCB_DFSR_BKPT_Pos                   1U                                            /*!< SCB 
 754:Drivers/CMSIS/Include/core_cm7.h **** #define SCB_DFSR_BKPT_Msk                  (1UL << SCB_DFSR_BKPT_Pos)                     /*!< SCB 
 755:Drivers/CMSIS/Include/core_cm7.h **** 
 756:Drivers/CMSIS/Include/core_cm7.h **** #define SCB_DFSR_HALTED_Pos                 0U                                            /*!< SCB 
 757:Drivers/CMSIS/Include/core_cm7.h **** #define SCB_DFSR_HALTED_Msk                (1UL /*<< SCB_DFSR_HALTED_Pos*/)               /*!< SCB 
 758:Drivers/CMSIS/Include/core_cm7.h **** 
 759:Drivers/CMSIS/Include/core_cm7.h **** /* SCB Cache Level ID Register Definitions */
 760:Drivers/CMSIS/Include/core_cm7.h **** #define SCB_CLIDR_LOUU_Pos                 27U                                            /*!< SCB 
 761:Drivers/CMSIS/Include/core_cm7.h **** #define SCB_CLIDR_LOUU_Msk                 (7UL << SCB_CLIDR_LOUU_Pos)                    /*!< SCB 
 762:Drivers/CMSIS/Include/core_cm7.h **** 
 763:Drivers/CMSIS/Include/core_cm7.h **** #define SCB_CLIDR_LOC_Pos                  24U                                            /*!< SCB 
 764:Drivers/CMSIS/Include/core_cm7.h **** #define SCB_CLIDR_LOC_Msk                  (7UL << SCB_CLIDR_LOC_Pos)                     /*!< SCB 
 765:Drivers/CMSIS/Include/core_cm7.h **** 
 766:Drivers/CMSIS/Include/core_cm7.h **** /* SCB Cache Type Register Definitions */
 767:Drivers/CMSIS/Include/core_cm7.h **** #define SCB_CTR_FORMAT_Pos                 29U                                            /*!< SCB 
 768:Drivers/CMSIS/Include/core_cm7.h **** #define SCB_CTR_FORMAT_Msk                 (7UL << SCB_CTR_FORMAT_Pos)                    /*!< SCB 
 769:Drivers/CMSIS/Include/core_cm7.h **** 
 770:Drivers/CMSIS/Include/core_cm7.h **** #define SCB_CTR_CWG_Pos                    24U                                            /*!< SCB 
 771:Drivers/CMSIS/Include/core_cm7.h **** #define SCB_CTR_CWG_Msk                    (0xFUL << SCB_CTR_CWG_Pos)                     /*!< SCB 
 772:Drivers/CMSIS/Include/core_cm7.h **** 
 773:Drivers/CMSIS/Include/core_cm7.h **** #define SCB_CTR_ERG_Pos                    20U                                            /*!< SCB 
 774:Drivers/CMSIS/Include/core_cm7.h **** #define SCB_CTR_ERG_Msk                    (0xFUL << SCB_CTR_ERG_Pos)                     /*!< SCB 
 775:Drivers/CMSIS/Include/core_cm7.h **** 
 776:Drivers/CMSIS/Include/core_cm7.h **** #define SCB_CTR_DMINLINE_Pos               16U                                            /*!< SCB 
 777:Drivers/CMSIS/Include/core_cm7.h **** #define SCB_CTR_DMINLINE_Msk               (0xFUL << SCB_CTR_DMINLINE_Pos)                /*!< SCB 
 778:Drivers/CMSIS/Include/core_cm7.h **** 
 779:Drivers/CMSIS/Include/core_cm7.h **** #define SCB_CTR_IMINLINE_Pos                0U                                            /*!< SCB 
 780:Drivers/CMSIS/Include/core_cm7.h **** #define SCB_CTR_IMINLINE_Msk               (0xFUL /*<< SCB_CTR_IMINLINE_Pos*/)            /*!< SCB 
 781:Drivers/CMSIS/Include/core_cm7.h **** 
ARM GAS  /tmp/cc4uKuIh.s 			page 42


 782:Drivers/CMSIS/Include/core_cm7.h **** /* SCB Cache Size ID Register Definitions */
 783:Drivers/CMSIS/Include/core_cm7.h **** #define SCB_CCSIDR_WT_Pos                  31U                                            /*!< SCB 
 784:Drivers/CMSIS/Include/core_cm7.h **** #define SCB_CCSIDR_WT_Msk                  (1UL << SCB_CCSIDR_WT_Pos)                     /*!< SCB 
 785:Drivers/CMSIS/Include/core_cm7.h **** 
 786:Drivers/CMSIS/Include/core_cm7.h **** #define SCB_CCSIDR_WB_Pos                  30U                                            /*!< SCB 
 787:Drivers/CMSIS/Include/core_cm7.h **** #define SCB_CCSIDR_WB_Msk                  (1UL << SCB_CCSIDR_WB_Pos)                     /*!< SCB 
 788:Drivers/CMSIS/Include/core_cm7.h **** 
 789:Drivers/CMSIS/Include/core_cm7.h **** #define SCB_CCSIDR_RA_Pos                  29U                                            /*!< SCB 
 790:Drivers/CMSIS/Include/core_cm7.h **** #define SCB_CCSIDR_RA_Msk                  (1UL << SCB_CCSIDR_RA_Pos)                     /*!< SCB 
 791:Drivers/CMSIS/Include/core_cm7.h **** 
 792:Drivers/CMSIS/Include/core_cm7.h **** #define SCB_CCSIDR_WA_Pos                  28U                                            /*!< SCB 
 793:Drivers/CMSIS/Include/core_cm7.h **** #define SCB_CCSIDR_WA_Msk                  (1UL << SCB_CCSIDR_WA_Pos)                     /*!< SCB 
 794:Drivers/CMSIS/Include/core_cm7.h **** 
 795:Drivers/CMSIS/Include/core_cm7.h **** #define SCB_CCSIDR_NUMSETS_Pos             13U                                            /*!< SCB 
 796:Drivers/CMSIS/Include/core_cm7.h **** #define SCB_CCSIDR_NUMSETS_Msk             (0x7FFFUL << SCB_CCSIDR_NUMSETS_Pos)           /*!< SCB 
 797:Drivers/CMSIS/Include/core_cm7.h **** 
 798:Drivers/CMSIS/Include/core_cm7.h **** #define SCB_CCSIDR_ASSOCIATIVITY_Pos        3U                                            /*!< SCB 
 799:Drivers/CMSIS/Include/core_cm7.h **** #define SCB_CCSIDR_ASSOCIATIVITY_Msk       (0x3FFUL << SCB_CCSIDR_ASSOCIATIVITY_Pos)      /*!< SCB 
 800:Drivers/CMSIS/Include/core_cm7.h **** 
 801:Drivers/CMSIS/Include/core_cm7.h **** #define SCB_CCSIDR_LINESIZE_Pos             0U                                            /*!< SCB 
 802:Drivers/CMSIS/Include/core_cm7.h **** #define SCB_CCSIDR_LINESIZE_Msk            (7UL /*<< SCB_CCSIDR_LINESIZE_Pos*/)           /*!< SCB 
 803:Drivers/CMSIS/Include/core_cm7.h **** 
 804:Drivers/CMSIS/Include/core_cm7.h **** /* SCB Cache Size Selection Register Definitions */
 805:Drivers/CMSIS/Include/core_cm7.h **** #define SCB_CSSELR_LEVEL_Pos                1U                                            /*!< SCB 
 806:Drivers/CMSIS/Include/core_cm7.h **** #define SCB_CSSELR_LEVEL_Msk               (7UL << SCB_CSSELR_LEVEL_Pos)                  /*!< SCB 
 807:Drivers/CMSIS/Include/core_cm7.h **** 
 808:Drivers/CMSIS/Include/core_cm7.h **** #define SCB_CSSELR_IND_Pos                  0U                                            /*!< SCB 
 809:Drivers/CMSIS/Include/core_cm7.h **** #define SCB_CSSELR_IND_Msk                 (1UL /*<< SCB_CSSELR_IND_Pos*/)                /*!< SCB 
 810:Drivers/CMSIS/Include/core_cm7.h **** 
 811:Drivers/CMSIS/Include/core_cm7.h **** /* SCB Software Triggered Interrupt Register Definitions */
 812:Drivers/CMSIS/Include/core_cm7.h **** #define SCB_STIR_INTID_Pos                  0U                                            /*!< SCB 
 813:Drivers/CMSIS/Include/core_cm7.h **** #define SCB_STIR_INTID_Msk                 (0x1FFUL /*<< SCB_STIR_INTID_Pos*/)            /*!< SCB 
 814:Drivers/CMSIS/Include/core_cm7.h **** 
 815:Drivers/CMSIS/Include/core_cm7.h **** /* SCB D-Cache Invalidate by Set-way Register Definitions */
 816:Drivers/CMSIS/Include/core_cm7.h **** #define SCB_DCISW_WAY_Pos                  30U                                            /*!< SCB 
 817:Drivers/CMSIS/Include/core_cm7.h **** #define SCB_DCISW_WAY_Msk                  (3UL << SCB_DCISW_WAY_Pos)                     /*!< SCB 
 818:Drivers/CMSIS/Include/core_cm7.h **** 
 819:Drivers/CMSIS/Include/core_cm7.h **** #define SCB_DCISW_SET_Pos                   5U                                            /*!< SCB 
 820:Drivers/CMSIS/Include/core_cm7.h **** #define SCB_DCISW_SET_Msk                  (0x1FFUL << SCB_DCISW_SET_Pos)                 /*!< SCB 
 821:Drivers/CMSIS/Include/core_cm7.h **** 
 822:Drivers/CMSIS/Include/core_cm7.h **** /* SCB D-Cache Clean by Set-way Register Definitions */
 823:Drivers/CMSIS/Include/core_cm7.h **** #define SCB_DCCSW_WAY_Pos                  30U                                            /*!< SCB 
 824:Drivers/CMSIS/Include/core_cm7.h **** #define SCB_DCCSW_WAY_Msk                  (3UL << SCB_DCCSW_WAY_Pos)                     /*!< SCB 
 825:Drivers/CMSIS/Include/core_cm7.h **** 
 826:Drivers/CMSIS/Include/core_cm7.h **** #define SCB_DCCSW_SET_Pos                   5U                                            /*!< SCB 
 827:Drivers/CMSIS/Include/core_cm7.h **** #define SCB_DCCSW_SET_Msk                  (0x1FFUL << SCB_DCCSW_SET_Pos)                 /*!< SCB 
 828:Drivers/CMSIS/Include/core_cm7.h **** 
 829:Drivers/CMSIS/Include/core_cm7.h **** /* SCB D-Cache Clean and Invalidate by Set-way Register Definitions */
 830:Drivers/CMSIS/Include/core_cm7.h **** #define SCB_DCCISW_WAY_Pos                 30U                                            /*!< SCB 
 831:Drivers/CMSIS/Include/core_cm7.h **** #define SCB_DCCISW_WAY_Msk                 (3UL << SCB_DCCISW_WAY_Pos)                    /*!< SCB 
 832:Drivers/CMSIS/Include/core_cm7.h **** 
 833:Drivers/CMSIS/Include/core_cm7.h **** #define SCB_DCCISW_SET_Pos                  5U                                            /*!< SCB 
 834:Drivers/CMSIS/Include/core_cm7.h **** #define SCB_DCCISW_SET_Msk                 (0x1FFUL << SCB_DCCISW_SET_Pos)                /*!< SCB 
 835:Drivers/CMSIS/Include/core_cm7.h **** 
 836:Drivers/CMSIS/Include/core_cm7.h **** /* Instruction Tightly-Coupled Memory Control Register Definitions */
 837:Drivers/CMSIS/Include/core_cm7.h **** #define SCB_ITCMCR_SZ_Pos                   3U                                            /*!< SCB 
 838:Drivers/CMSIS/Include/core_cm7.h **** #define SCB_ITCMCR_SZ_Msk                  (0xFUL << SCB_ITCMCR_SZ_Pos)                   /*!< SCB 
ARM GAS  /tmp/cc4uKuIh.s 			page 43


 839:Drivers/CMSIS/Include/core_cm7.h **** 
 840:Drivers/CMSIS/Include/core_cm7.h **** #define SCB_ITCMCR_RETEN_Pos                2U                                            /*!< SCB 
 841:Drivers/CMSIS/Include/core_cm7.h **** #define SCB_ITCMCR_RETEN_Msk               (1UL << SCB_ITCMCR_RETEN_Pos)                  /*!< SCB 
 842:Drivers/CMSIS/Include/core_cm7.h **** 
 843:Drivers/CMSIS/Include/core_cm7.h **** #define SCB_ITCMCR_RMW_Pos                  1U                                            /*!< SCB 
 844:Drivers/CMSIS/Include/core_cm7.h **** #define SCB_ITCMCR_RMW_Msk                 (1UL << SCB_ITCMCR_RMW_Pos)                    /*!< SCB 
 845:Drivers/CMSIS/Include/core_cm7.h **** 
 846:Drivers/CMSIS/Include/core_cm7.h **** #define SCB_ITCMCR_EN_Pos                   0U                                            /*!< SCB 
 847:Drivers/CMSIS/Include/core_cm7.h **** #define SCB_ITCMCR_EN_Msk                  (1UL /*<< SCB_ITCMCR_EN_Pos*/)                 /*!< SCB 
 848:Drivers/CMSIS/Include/core_cm7.h **** 
 849:Drivers/CMSIS/Include/core_cm7.h **** /* Data Tightly-Coupled Memory Control Register Definitions */
 850:Drivers/CMSIS/Include/core_cm7.h **** #define SCB_DTCMCR_SZ_Pos                   3U                                            /*!< SCB 
 851:Drivers/CMSIS/Include/core_cm7.h **** #define SCB_DTCMCR_SZ_Msk                  (0xFUL << SCB_DTCMCR_SZ_Pos)                   /*!< SCB 
 852:Drivers/CMSIS/Include/core_cm7.h **** 
 853:Drivers/CMSIS/Include/core_cm7.h **** #define SCB_DTCMCR_RETEN_Pos                2U                                            /*!< SCB 
 854:Drivers/CMSIS/Include/core_cm7.h **** #define SCB_DTCMCR_RETEN_Msk               (1UL << SCB_DTCMCR_RETEN_Pos)                   /*!< SCB
 855:Drivers/CMSIS/Include/core_cm7.h **** 
 856:Drivers/CMSIS/Include/core_cm7.h **** #define SCB_DTCMCR_RMW_Pos                  1U                                            /*!< SCB 
 857:Drivers/CMSIS/Include/core_cm7.h **** #define SCB_DTCMCR_RMW_Msk                 (1UL << SCB_DTCMCR_RMW_Pos)                    /*!< SCB 
 858:Drivers/CMSIS/Include/core_cm7.h **** 
 859:Drivers/CMSIS/Include/core_cm7.h **** #define SCB_DTCMCR_EN_Pos                   0U                                            /*!< SCB 
 860:Drivers/CMSIS/Include/core_cm7.h **** #define SCB_DTCMCR_EN_Msk                  (1UL /*<< SCB_DTCMCR_EN_Pos*/)                 /*!< SCB 
 861:Drivers/CMSIS/Include/core_cm7.h **** 
 862:Drivers/CMSIS/Include/core_cm7.h **** /* AHBP Control Register Definitions */
 863:Drivers/CMSIS/Include/core_cm7.h **** #define SCB_AHBPCR_SZ_Pos                   1U                                            /*!< SCB 
 864:Drivers/CMSIS/Include/core_cm7.h **** #define SCB_AHBPCR_SZ_Msk                  (7UL << SCB_AHBPCR_SZ_Pos)                     /*!< SCB 
 865:Drivers/CMSIS/Include/core_cm7.h **** 
 866:Drivers/CMSIS/Include/core_cm7.h **** #define SCB_AHBPCR_EN_Pos                   0U                                            /*!< SCB 
 867:Drivers/CMSIS/Include/core_cm7.h **** #define SCB_AHBPCR_EN_Msk                  (1UL /*<< SCB_AHBPCR_EN_Pos*/)                 /*!< SCB 
 868:Drivers/CMSIS/Include/core_cm7.h **** 
 869:Drivers/CMSIS/Include/core_cm7.h **** /* L1 Cache Control Register Definitions */
 870:Drivers/CMSIS/Include/core_cm7.h **** #define SCB_CACR_FORCEWT_Pos                2U                                            /*!< SCB 
 871:Drivers/CMSIS/Include/core_cm7.h **** #define SCB_CACR_FORCEWT_Msk               (1UL << SCB_CACR_FORCEWT_Pos)                  /*!< SCB 
 872:Drivers/CMSIS/Include/core_cm7.h **** 
 873:Drivers/CMSIS/Include/core_cm7.h **** #define SCB_CACR_ECCEN_Pos                  1U                                            /*!< SCB 
 874:Drivers/CMSIS/Include/core_cm7.h **** #define SCB_CACR_ECCEN_Msk                 (1UL << SCB_CACR_ECCEN_Pos)                    /*!< SCB 
 875:Drivers/CMSIS/Include/core_cm7.h **** 
 876:Drivers/CMSIS/Include/core_cm7.h **** #define SCB_CACR_SIWT_Pos                   0U                                            /*!< SCB 
 877:Drivers/CMSIS/Include/core_cm7.h **** #define SCB_CACR_SIWT_Msk                  (1UL /*<< SCB_CACR_SIWT_Pos*/)                 /*!< SCB 
 878:Drivers/CMSIS/Include/core_cm7.h **** 
 879:Drivers/CMSIS/Include/core_cm7.h **** /* AHBS Control Register Definitions */
 880:Drivers/CMSIS/Include/core_cm7.h **** #define SCB_AHBSCR_INITCOUNT_Pos           11U                                            /*!< SCB 
 881:Drivers/CMSIS/Include/core_cm7.h **** #define SCB_AHBSCR_INITCOUNT_Msk           (0x1FUL << SCB_AHBPCR_INITCOUNT_Pos)           /*!< SCB 
 882:Drivers/CMSIS/Include/core_cm7.h **** 
 883:Drivers/CMSIS/Include/core_cm7.h **** #define SCB_AHBSCR_TPRI_Pos                 2U                                            /*!< SCB 
 884:Drivers/CMSIS/Include/core_cm7.h **** #define SCB_AHBSCR_TPRI_Msk                (0x1FFUL << SCB_AHBPCR_TPRI_Pos)               /*!< SCB 
 885:Drivers/CMSIS/Include/core_cm7.h **** 
 886:Drivers/CMSIS/Include/core_cm7.h **** #define SCB_AHBSCR_CTL_Pos                  0U                                            /*!< SCB 
 887:Drivers/CMSIS/Include/core_cm7.h **** #define SCB_AHBSCR_CTL_Msk                 (3UL /*<< SCB_AHBPCR_CTL_Pos*/)                /*!< SCB 
 888:Drivers/CMSIS/Include/core_cm7.h **** 
 889:Drivers/CMSIS/Include/core_cm7.h **** /* Auxiliary Bus Fault Status Register Definitions */
 890:Drivers/CMSIS/Include/core_cm7.h **** #define SCB_ABFSR_AXIMTYPE_Pos              8U                                            /*!< SCB 
 891:Drivers/CMSIS/Include/core_cm7.h **** #define SCB_ABFSR_AXIMTYPE_Msk             (3UL << SCB_ABFSR_AXIMTYPE_Pos)                /*!< SCB 
 892:Drivers/CMSIS/Include/core_cm7.h **** 
 893:Drivers/CMSIS/Include/core_cm7.h **** #define SCB_ABFSR_EPPB_Pos                  4U                                            /*!< SCB 
 894:Drivers/CMSIS/Include/core_cm7.h **** #define SCB_ABFSR_EPPB_Msk                 (1UL << SCB_ABFSR_EPPB_Pos)                    /*!< SCB 
 895:Drivers/CMSIS/Include/core_cm7.h **** 
ARM GAS  /tmp/cc4uKuIh.s 			page 44


 896:Drivers/CMSIS/Include/core_cm7.h **** #define SCB_ABFSR_AXIM_Pos                  3U                                            /*!< SCB 
 897:Drivers/CMSIS/Include/core_cm7.h **** #define SCB_ABFSR_AXIM_Msk                 (1UL << SCB_ABFSR_AXIM_Pos)                    /*!< SCB 
 898:Drivers/CMSIS/Include/core_cm7.h **** 
 899:Drivers/CMSIS/Include/core_cm7.h **** #define SCB_ABFSR_AHBP_Pos                  2U                                            /*!< SCB 
 900:Drivers/CMSIS/Include/core_cm7.h **** #define SCB_ABFSR_AHBP_Msk                 (1UL << SCB_ABFSR_AHBP_Pos)                    /*!< SCB 
 901:Drivers/CMSIS/Include/core_cm7.h **** 
 902:Drivers/CMSIS/Include/core_cm7.h **** #define SCB_ABFSR_DTCM_Pos                  1U                                            /*!< SCB 
 903:Drivers/CMSIS/Include/core_cm7.h **** #define SCB_ABFSR_DTCM_Msk                 (1UL << SCB_ABFSR_DTCM_Pos)                    /*!< SCB 
 904:Drivers/CMSIS/Include/core_cm7.h **** 
 905:Drivers/CMSIS/Include/core_cm7.h **** #define SCB_ABFSR_ITCM_Pos                  0U                                            /*!< SCB 
 906:Drivers/CMSIS/Include/core_cm7.h **** #define SCB_ABFSR_ITCM_Msk                 (1UL /*<< SCB_ABFSR_ITCM_Pos*/)                /*!< SCB 
 907:Drivers/CMSIS/Include/core_cm7.h **** 
 908:Drivers/CMSIS/Include/core_cm7.h **** /*@} end of group CMSIS_SCB */
 909:Drivers/CMSIS/Include/core_cm7.h **** 
 910:Drivers/CMSIS/Include/core_cm7.h **** 
 911:Drivers/CMSIS/Include/core_cm7.h **** /**
 912:Drivers/CMSIS/Include/core_cm7.h ****   \ingroup  CMSIS_core_register
 913:Drivers/CMSIS/Include/core_cm7.h ****   \defgroup CMSIS_SCnSCB System Controls not in SCB (SCnSCB)
 914:Drivers/CMSIS/Include/core_cm7.h ****   \brief    Type definitions for the System Control and ID Register not in the SCB
 915:Drivers/CMSIS/Include/core_cm7.h ****   @{
 916:Drivers/CMSIS/Include/core_cm7.h ****  */
 917:Drivers/CMSIS/Include/core_cm7.h **** 
 918:Drivers/CMSIS/Include/core_cm7.h **** /**
 919:Drivers/CMSIS/Include/core_cm7.h ****   \brief  Structure type to access the System Control and ID Register not in the SCB.
 920:Drivers/CMSIS/Include/core_cm7.h ****  */
 921:Drivers/CMSIS/Include/core_cm7.h **** typedef struct
 922:Drivers/CMSIS/Include/core_cm7.h **** {
 923:Drivers/CMSIS/Include/core_cm7.h ****         uint32_t RESERVED0[1U];
 924:Drivers/CMSIS/Include/core_cm7.h ****   __IM  uint32_t ICTR;                   /*!< Offset: 0x004 (R/ )  Interrupt Controller Type Regist
 925:Drivers/CMSIS/Include/core_cm7.h ****   __IOM uint32_t ACTLR;                  /*!< Offset: 0x008 (R/W)  Auxiliary Control Register */
 926:Drivers/CMSIS/Include/core_cm7.h **** } SCnSCB_Type;
 927:Drivers/CMSIS/Include/core_cm7.h **** 
 928:Drivers/CMSIS/Include/core_cm7.h **** /* Interrupt Controller Type Register Definitions */
 929:Drivers/CMSIS/Include/core_cm7.h **** #define SCnSCB_ICTR_INTLINESNUM_Pos         0U                                         /*!< ICTR: I
 930:Drivers/CMSIS/Include/core_cm7.h **** #define SCnSCB_ICTR_INTLINESNUM_Msk        (0xFUL /*<< SCnSCB_ICTR_INTLINESNUM_Pos*/)  /*!< ICTR: I
 931:Drivers/CMSIS/Include/core_cm7.h **** 
 932:Drivers/CMSIS/Include/core_cm7.h **** /* Auxiliary Control Register Definitions */
 933:Drivers/CMSIS/Include/core_cm7.h **** #define SCnSCB_ACTLR_DISITMATBFLUSH_Pos    12U                                         /*!< ACTLR: 
 934:Drivers/CMSIS/Include/core_cm7.h **** #define SCnSCB_ACTLR_DISITMATBFLUSH_Msk    (1UL << SCnSCB_ACTLR_DISITMATBFLUSH_Pos)    /*!< ACTLR: 
 935:Drivers/CMSIS/Include/core_cm7.h **** 
 936:Drivers/CMSIS/Include/core_cm7.h **** #define SCnSCB_ACTLR_DISRAMODE_Pos         11U                                         /*!< ACTLR: 
 937:Drivers/CMSIS/Include/core_cm7.h **** #define SCnSCB_ACTLR_DISRAMODE_Msk         (1UL << SCnSCB_ACTLR_DISRAMODE_Pos)         /*!< ACTLR: 
 938:Drivers/CMSIS/Include/core_cm7.h **** 
 939:Drivers/CMSIS/Include/core_cm7.h **** #define SCnSCB_ACTLR_FPEXCODIS_Pos         10U                                         /*!< ACTLR: 
 940:Drivers/CMSIS/Include/core_cm7.h **** #define SCnSCB_ACTLR_FPEXCODIS_Msk         (1UL << SCnSCB_ACTLR_FPEXCODIS_Pos)         /*!< ACTLR: 
 941:Drivers/CMSIS/Include/core_cm7.h **** 
 942:Drivers/CMSIS/Include/core_cm7.h **** #define SCnSCB_ACTLR_DISFOLD_Pos            2U                                         /*!< ACTLR: 
 943:Drivers/CMSIS/Include/core_cm7.h **** #define SCnSCB_ACTLR_DISFOLD_Msk           (1UL << SCnSCB_ACTLR_DISFOLD_Pos)           /*!< ACTLR: 
 944:Drivers/CMSIS/Include/core_cm7.h **** 
 945:Drivers/CMSIS/Include/core_cm7.h **** #define SCnSCB_ACTLR_DISMCYCINT_Pos         0U                                         /*!< ACTLR: 
 946:Drivers/CMSIS/Include/core_cm7.h **** #define SCnSCB_ACTLR_DISMCYCINT_Msk        (1UL /*<< SCnSCB_ACTLR_DISMCYCINT_Pos*/)    /*!< ACTLR: 
 947:Drivers/CMSIS/Include/core_cm7.h **** 
 948:Drivers/CMSIS/Include/core_cm7.h **** /*@} end of group CMSIS_SCnotSCB */
 949:Drivers/CMSIS/Include/core_cm7.h **** 
 950:Drivers/CMSIS/Include/core_cm7.h **** 
 951:Drivers/CMSIS/Include/core_cm7.h **** /**
 952:Drivers/CMSIS/Include/core_cm7.h ****   \ingroup  CMSIS_core_register
ARM GAS  /tmp/cc4uKuIh.s 			page 45


 953:Drivers/CMSIS/Include/core_cm7.h ****   \defgroup CMSIS_SysTick     System Tick Timer (SysTick)
 954:Drivers/CMSIS/Include/core_cm7.h ****   \brief    Type definitions for the System Timer Registers.
 955:Drivers/CMSIS/Include/core_cm7.h ****   @{
 956:Drivers/CMSIS/Include/core_cm7.h ****  */
 957:Drivers/CMSIS/Include/core_cm7.h **** 
 958:Drivers/CMSIS/Include/core_cm7.h **** /**
 959:Drivers/CMSIS/Include/core_cm7.h ****   \brief  Structure type to access the System Timer (SysTick).
 960:Drivers/CMSIS/Include/core_cm7.h ****  */
 961:Drivers/CMSIS/Include/core_cm7.h **** typedef struct
 962:Drivers/CMSIS/Include/core_cm7.h **** {
 963:Drivers/CMSIS/Include/core_cm7.h ****   __IOM uint32_t CTRL;                   /*!< Offset: 0x000 (R/W)  SysTick Control and Status Regis
 964:Drivers/CMSIS/Include/core_cm7.h ****   __IOM uint32_t LOAD;                   /*!< Offset: 0x004 (R/W)  SysTick Reload Value Register */
 965:Drivers/CMSIS/Include/core_cm7.h ****   __IOM uint32_t VAL;                    /*!< Offset: 0x008 (R/W)  SysTick Current Value Register *
 966:Drivers/CMSIS/Include/core_cm7.h ****   __IM  uint32_t CALIB;                  /*!< Offset: 0x00C (R/ )  SysTick Calibration Register */
 967:Drivers/CMSIS/Include/core_cm7.h **** } SysTick_Type;
 968:Drivers/CMSIS/Include/core_cm7.h **** 
 969:Drivers/CMSIS/Include/core_cm7.h **** /* SysTick Control / Status Register Definitions */
 970:Drivers/CMSIS/Include/core_cm7.h **** #define SysTick_CTRL_COUNTFLAG_Pos         16U                                            /*!< SysT
 971:Drivers/CMSIS/Include/core_cm7.h **** #define SysTick_CTRL_COUNTFLAG_Msk         (1UL << SysTick_CTRL_COUNTFLAG_Pos)            /*!< SysT
 972:Drivers/CMSIS/Include/core_cm7.h **** 
 973:Drivers/CMSIS/Include/core_cm7.h **** #define SysTick_CTRL_CLKSOURCE_Pos          2U                                            /*!< SysT
 974:Drivers/CMSIS/Include/core_cm7.h **** #define SysTick_CTRL_CLKSOURCE_Msk         (1UL << SysTick_CTRL_CLKSOURCE_Pos)            /*!< SysT
 975:Drivers/CMSIS/Include/core_cm7.h **** 
 976:Drivers/CMSIS/Include/core_cm7.h **** #define SysTick_CTRL_TICKINT_Pos            1U                                            /*!< SysT
 977:Drivers/CMSIS/Include/core_cm7.h **** #define SysTick_CTRL_TICKINT_Msk           (1UL << SysTick_CTRL_TICKINT_Pos)              /*!< SysT
 978:Drivers/CMSIS/Include/core_cm7.h **** 
 979:Drivers/CMSIS/Include/core_cm7.h **** #define SysTick_CTRL_ENABLE_Pos             0U                                            /*!< SysT
 980:Drivers/CMSIS/Include/core_cm7.h **** #define SysTick_CTRL_ENABLE_Msk            (1UL /*<< SysTick_CTRL_ENABLE_Pos*/)           /*!< SysT
 981:Drivers/CMSIS/Include/core_cm7.h **** 
 982:Drivers/CMSIS/Include/core_cm7.h **** /* SysTick Reload Register Definitions */
 983:Drivers/CMSIS/Include/core_cm7.h **** #define SysTick_LOAD_RELOAD_Pos             0U                                            /*!< SysT
 984:Drivers/CMSIS/Include/core_cm7.h **** #define SysTick_LOAD_RELOAD_Msk            (0xFFFFFFUL /*<< SysTick_LOAD_RELOAD_Pos*/)    /*!< SysT
 985:Drivers/CMSIS/Include/core_cm7.h **** 
 986:Drivers/CMSIS/Include/core_cm7.h **** /* SysTick Current Register Definitions */
 987:Drivers/CMSIS/Include/core_cm7.h **** #define SysTick_VAL_CURRENT_Pos             0U                                            /*!< SysT
 988:Drivers/CMSIS/Include/core_cm7.h **** #define SysTick_VAL_CURRENT_Msk            (0xFFFFFFUL /*<< SysTick_VAL_CURRENT_Pos*/)    /*!< SysT
 989:Drivers/CMSIS/Include/core_cm7.h **** 
 990:Drivers/CMSIS/Include/core_cm7.h **** /* SysTick Calibration Register Definitions */
 991:Drivers/CMSIS/Include/core_cm7.h **** #define SysTick_CALIB_NOREF_Pos            31U                                            /*!< SysT
 992:Drivers/CMSIS/Include/core_cm7.h **** #define SysTick_CALIB_NOREF_Msk            (1UL << SysTick_CALIB_NOREF_Pos)               /*!< SysT
 993:Drivers/CMSIS/Include/core_cm7.h **** 
 994:Drivers/CMSIS/Include/core_cm7.h **** #define SysTick_CALIB_SKEW_Pos             30U                                            /*!< SysT
 995:Drivers/CMSIS/Include/core_cm7.h **** #define SysTick_CALIB_SKEW_Msk             (1UL << SysTick_CALIB_SKEW_Pos)                /*!< SysT
 996:Drivers/CMSIS/Include/core_cm7.h **** 
 997:Drivers/CMSIS/Include/core_cm7.h **** #define SysTick_CALIB_TENMS_Pos             0U                                            /*!< SysT
 998:Drivers/CMSIS/Include/core_cm7.h **** #define SysTick_CALIB_TENMS_Msk            (0xFFFFFFUL /*<< SysTick_CALIB_TENMS_Pos*/)    /*!< SysT
 999:Drivers/CMSIS/Include/core_cm7.h **** 
1000:Drivers/CMSIS/Include/core_cm7.h **** /*@} end of group CMSIS_SysTick */
1001:Drivers/CMSIS/Include/core_cm7.h **** 
1002:Drivers/CMSIS/Include/core_cm7.h **** 
1003:Drivers/CMSIS/Include/core_cm7.h **** /**
1004:Drivers/CMSIS/Include/core_cm7.h ****   \ingroup  CMSIS_core_register
1005:Drivers/CMSIS/Include/core_cm7.h ****   \defgroup CMSIS_ITM     Instrumentation Trace Macrocell (ITM)
1006:Drivers/CMSIS/Include/core_cm7.h ****   \brief    Type definitions for the Instrumentation Trace Macrocell (ITM)
1007:Drivers/CMSIS/Include/core_cm7.h ****   @{
1008:Drivers/CMSIS/Include/core_cm7.h ****  */
1009:Drivers/CMSIS/Include/core_cm7.h **** 
ARM GAS  /tmp/cc4uKuIh.s 			page 46


1010:Drivers/CMSIS/Include/core_cm7.h **** /**
1011:Drivers/CMSIS/Include/core_cm7.h ****   \brief  Structure type to access the Instrumentation Trace Macrocell Register (ITM).
1012:Drivers/CMSIS/Include/core_cm7.h ****  */
1013:Drivers/CMSIS/Include/core_cm7.h **** typedef struct
1014:Drivers/CMSIS/Include/core_cm7.h **** {
1015:Drivers/CMSIS/Include/core_cm7.h ****   __OM  union
1016:Drivers/CMSIS/Include/core_cm7.h ****   {
1017:Drivers/CMSIS/Include/core_cm7.h ****     __OM  uint8_t    u8;                 /*!< Offset: 0x000 ( /W)  ITM Stimulus Port 8-bit */
1018:Drivers/CMSIS/Include/core_cm7.h ****     __OM  uint16_t   u16;                /*!< Offset: 0x000 ( /W)  ITM Stimulus Port 16-bit */
1019:Drivers/CMSIS/Include/core_cm7.h ****     __OM  uint32_t   u32;                /*!< Offset: 0x000 ( /W)  ITM Stimulus Port 32-bit */
1020:Drivers/CMSIS/Include/core_cm7.h ****   }  PORT [32U];                         /*!< Offset: 0x000 ( /W)  ITM Stimulus Port Registers */
1021:Drivers/CMSIS/Include/core_cm7.h ****         uint32_t RESERVED0[864U];
1022:Drivers/CMSIS/Include/core_cm7.h ****   __IOM uint32_t TER;                    /*!< Offset: 0xE00 (R/W)  ITM Trace Enable Register */
1023:Drivers/CMSIS/Include/core_cm7.h ****         uint32_t RESERVED1[15U];
1024:Drivers/CMSIS/Include/core_cm7.h ****   __IOM uint32_t TPR;                    /*!< Offset: 0xE40 (R/W)  ITM Trace Privilege Register */
1025:Drivers/CMSIS/Include/core_cm7.h ****         uint32_t RESERVED2[15U];
1026:Drivers/CMSIS/Include/core_cm7.h ****   __IOM uint32_t TCR;                    /*!< Offset: 0xE80 (R/W)  ITM Trace Control Register */
1027:Drivers/CMSIS/Include/core_cm7.h ****         uint32_t RESERVED3[29U];
1028:Drivers/CMSIS/Include/core_cm7.h ****   __OM  uint32_t IWR;                    /*!< Offset: 0xEF8 ( /W)  ITM Integration Write Register *
1029:Drivers/CMSIS/Include/core_cm7.h ****   __IM  uint32_t IRR;                    /*!< Offset: 0xEFC (R/ )  ITM Integration Read Register */
1030:Drivers/CMSIS/Include/core_cm7.h ****   __IOM uint32_t IMCR;                   /*!< Offset: 0xF00 (R/W)  ITM Integration Mode Control Reg
1031:Drivers/CMSIS/Include/core_cm7.h ****         uint32_t RESERVED4[43U];
1032:Drivers/CMSIS/Include/core_cm7.h ****   __OM  uint32_t LAR;                    /*!< Offset: 0xFB0 ( /W)  ITM Lock Access Register */
1033:Drivers/CMSIS/Include/core_cm7.h ****   __IM  uint32_t LSR;                    /*!< Offset: 0xFB4 (R/ )  ITM Lock Status Register */
1034:Drivers/CMSIS/Include/core_cm7.h ****         uint32_t RESERVED5[6U];
1035:Drivers/CMSIS/Include/core_cm7.h ****   __IM  uint32_t PID4;                   /*!< Offset: 0xFD0 (R/ )  ITM Peripheral Identification Re
1036:Drivers/CMSIS/Include/core_cm7.h ****   __IM  uint32_t PID5;                   /*!< Offset: 0xFD4 (R/ )  ITM Peripheral Identification Re
1037:Drivers/CMSIS/Include/core_cm7.h ****   __IM  uint32_t PID6;                   /*!< Offset: 0xFD8 (R/ )  ITM Peripheral Identification Re
1038:Drivers/CMSIS/Include/core_cm7.h ****   __IM  uint32_t PID7;                   /*!< Offset: 0xFDC (R/ )  ITM Peripheral Identification Re
1039:Drivers/CMSIS/Include/core_cm7.h ****   __IM  uint32_t PID0;                   /*!< Offset: 0xFE0 (R/ )  ITM Peripheral Identification Re
1040:Drivers/CMSIS/Include/core_cm7.h ****   __IM  uint32_t PID1;                   /*!< Offset: 0xFE4 (R/ )  ITM Peripheral Identification Re
1041:Drivers/CMSIS/Include/core_cm7.h ****   __IM  uint32_t PID2;                   /*!< Offset: 0xFE8 (R/ )  ITM Peripheral Identification Re
1042:Drivers/CMSIS/Include/core_cm7.h ****   __IM  uint32_t PID3;                   /*!< Offset: 0xFEC (R/ )  ITM Peripheral Identification Re
1043:Drivers/CMSIS/Include/core_cm7.h ****   __IM  uint32_t CID0;                   /*!< Offset: 0xFF0 (R/ )  ITM Component  Identification Re
1044:Drivers/CMSIS/Include/core_cm7.h ****   __IM  uint32_t CID1;                   /*!< Offset: 0xFF4 (R/ )  ITM Component  Identification Re
1045:Drivers/CMSIS/Include/core_cm7.h ****   __IM  uint32_t CID2;                   /*!< Offset: 0xFF8 (R/ )  ITM Component  Identification Re
1046:Drivers/CMSIS/Include/core_cm7.h ****   __IM  uint32_t CID3;                   /*!< Offset: 0xFFC (R/ )  ITM Component  Identification Re
1047:Drivers/CMSIS/Include/core_cm7.h **** } ITM_Type;
1048:Drivers/CMSIS/Include/core_cm7.h **** 
1049:Drivers/CMSIS/Include/core_cm7.h **** /* ITM Trace Privilege Register Definitions */
1050:Drivers/CMSIS/Include/core_cm7.h **** #define ITM_TPR_PRIVMASK_Pos                0U                                            /*!< ITM 
1051:Drivers/CMSIS/Include/core_cm7.h **** #define ITM_TPR_PRIVMASK_Msk               (0xFFFFFFFFUL /*<< ITM_TPR_PRIVMASK_Pos*/)     /*!< ITM 
1052:Drivers/CMSIS/Include/core_cm7.h **** 
1053:Drivers/CMSIS/Include/core_cm7.h **** /* ITM Trace Control Register Definitions */
1054:Drivers/CMSIS/Include/core_cm7.h **** #define ITM_TCR_BUSY_Pos                   23U                                            /*!< ITM 
1055:Drivers/CMSIS/Include/core_cm7.h **** #define ITM_TCR_BUSY_Msk                   (1UL << ITM_TCR_BUSY_Pos)                      /*!< ITM 
1056:Drivers/CMSIS/Include/core_cm7.h **** 
1057:Drivers/CMSIS/Include/core_cm7.h **** #define ITM_TCR_TraceBusID_Pos             16U                                            /*!< ITM 
1058:Drivers/CMSIS/Include/core_cm7.h **** #define ITM_TCR_TraceBusID_Msk             (0x7FUL << ITM_TCR_TraceBusID_Pos)             /*!< ITM 
1059:Drivers/CMSIS/Include/core_cm7.h **** 
1060:Drivers/CMSIS/Include/core_cm7.h **** #define ITM_TCR_GTSFREQ_Pos                10U                                            /*!< ITM 
1061:Drivers/CMSIS/Include/core_cm7.h **** #define ITM_TCR_GTSFREQ_Msk                (3UL << ITM_TCR_GTSFREQ_Pos)                   /*!< ITM 
1062:Drivers/CMSIS/Include/core_cm7.h **** 
1063:Drivers/CMSIS/Include/core_cm7.h **** #define ITM_TCR_TSPrescale_Pos              8U                                            /*!< ITM 
1064:Drivers/CMSIS/Include/core_cm7.h **** #define ITM_TCR_TSPrescale_Msk             (3UL << ITM_TCR_TSPrescale_Pos)                /*!< ITM 
1065:Drivers/CMSIS/Include/core_cm7.h **** 
1066:Drivers/CMSIS/Include/core_cm7.h **** #define ITM_TCR_SWOENA_Pos                  4U                                            /*!< ITM 
ARM GAS  /tmp/cc4uKuIh.s 			page 47


1067:Drivers/CMSIS/Include/core_cm7.h **** #define ITM_TCR_SWOENA_Msk                 (1UL << ITM_TCR_SWOENA_Pos)                    /*!< ITM 
1068:Drivers/CMSIS/Include/core_cm7.h **** 
1069:Drivers/CMSIS/Include/core_cm7.h **** #define ITM_TCR_DWTENA_Pos                  3U                                            /*!< ITM 
1070:Drivers/CMSIS/Include/core_cm7.h **** #define ITM_TCR_DWTENA_Msk                 (1UL << ITM_TCR_DWTENA_Pos)                    /*!< ITM 
1071:Drivers/CMSIS/Include/core_cm7.h **** 
1072:Drivers/CMSIS/Include/core_cm7.h **** #define ITM_TCR_SYNCENA_Pos                 2U                                            /*!< ITM 
1073:Drivers/CMSIS/Include/core_cm7.h **** #define ITM_TCR_SYNCENA_Msk                (1UL << ITM_TCR_SYNCENA_Pos)                   /*!< ITM 
1074:Drivers/CMSIS/Include/core_cm7.h **** 
1075:Drivers/CMSIS/Include/core_cm7.h **** #define ITM_TCR_TSENA_Pos                   1U                                            /*!< ITM 
1076:Drivers/CMSIS/Include/core_cm7.h **** #define ITM_TCR_TSENA_Msk                  (1UL << ITM_TCR_TSENA_Pos)                     /*!< ITM 
1077:Drivers/CMSIS/Include/core_cm7.h **** 
1078:Drivers/CMSIS/Include/core_cm7.h **** #define ITM_TCR_ITMENA_Pos                  0U                                            /*!< ITM 
1079:Drivers/CMSIS/Include/core_cm7.h **** #define ITM_TCR_ITMENA_Msk                 (1UL /*<< ITM_TCR_ITMENA_Pos*/)                /*!< ITM 
1080:Drivers/CMSIS/Include/core_cm7.h **** 
1081:Drivers/CMSIS/Include/core_cm7.h **** /* ITM Integration Write Register Definitions */
1082:Drivers/CMSIS/Include/core_cm7.h **** #define ITM_IWR_ATVALIDM_Pos                0U                                            /*!< ITM 
1083:Drivers/CMSIS/Include/core_cm7.h **** #define ITM_IWR_ATVALIDM_Msk               (1UL /*<< ITM_IWR_ATVALIDM_Pos*/)              /*!< ITM 
1084:Drivers/CMSIS/Include/core_cm7.h **** 
1085:Drivers/CMSIS/Include/core_cm7.h **** /* ITM Integration Read Register Definitions */
1086:Drivers/CMSIS/Include/core_cm7.h **** #define ITM_IRR_ATREADYM_Pos                0U                                            /*!< ITM 
1087:Drivers/CMSIS/Include/core_cm7.h **** #define ITM_IRR_ATREADYM_Msk               (1UL /*<< ITM_IRR_ATREADYM_Pos*/)              /*!< ITM 
1088:Drivers/CMSIS/Include/core_cm7.h **** 
1089:Drivers/CMSIS/Include/core_cm7.h **** /* ITM Integration Mode Control Register Definitions */
1090:Drivers/CMSIS/Include/core_cm7.h **** #define ITM_IMCR_INTEGRATION_Pos            0U                                            /*!< ITM 
1091:Drivers/CMSIS/Include/core_cm7.h **** #define ITM_IMCR_INTEGRATION_Msk           (1UL /*<< ITM_IMCR_INTEGRATION_Pos*/)          /*!< ITM 
1092:Drivers/CMSIS/Include/core_cm7.h **** 
1093:Drivers/CMSIS/Include/core_cm7.h **** /* ITM Lock Status Register Definitions */
1094:Drivers/CMSIS/Include/core_cm7.h **** #define ITM_LSR_ByteAcc_Pos                 2U                                            /*!< ITM 
1095:Drivers/CMSIS/Include/core_cm7.h **** #define ITM_LSR_ByteAcc_Msk                (1UL << ITM_LSR_ByteAcc_Pos)                   /*!< ITM 
1096:Drivers/CMSIS/Include/core_cm7.h **** 
1097:Drivers/CMSIS/Include/core_cm7.h **** #define ITM_LSR_Access_Pos                  1U                                            /*!< ITM 
1098:Drivers/CMSIS/Include/core_cm7.h **** #define ITM_LSR_Access_Msk                 (1UL << ITM_LSR_Access_Pos)                    /*!< ITM 
1099:Drivers/CMSIS/Include/core_cm7.h **** 
1100:Drivers/CMSIS/Include/core_cm7.h **** #define ITM_LSR_Present_Pos                 0U                                            /*!< ITM 
1101:Drivers/CMSIS/Include/core_cm7.h **** #define ITM_LSR_Present_Msk                (1UL /*<< ITM_LSR_Present_Pos*/)               /*!< ITM 
1102:Drivers/CMSIS/Include/core_cm7.h **** 
1103:Drivers/CMSIS/Include/core_cm7.h **** /*@}*/ /* end of group CMSIS_ITM */
1104:Drivers/CMSIS/Include/core_cm7.h **** 
1105:Drivers/CMSIS/Include/core_cm7.h **** 
1106:Drivers/CMSIS/Include/core_cm7.h **** /**
1107:Drivers/CMSIS/Include/core_cm7.h ****   \ingroup  CMSIS_core_register
1108:Drivers/CMSIS/Include/core_cm7.h ****   \defgroup CMSIS_DWT     Data Watchpoint and Trace (DWT)
1109:Drivers/CMSIS/Include/core_cm7.h ****   \brief    Type definitions for the Data Watchpoint and Trace (DWT)
1110:Drivers/CMSIS/Include/core_cm7.h ****   @{
1111:Drivers/CMSIS/Include/core_cm7.h ****  */
1112:Drivers/CMSIS/Include/core_cm7.h **** 
1113:Drivers/CMSIS/Include/core_cm7.h **** /**
1114:Drivers/CMSIS/Include/core_cm7.h ****   \brief  Structure type to access the Data Watchpoint and Trace Register (DWT).
1115:Drivers/CMSIS/Include/core_cm7.h ****  */
1116:Drivers/CMSIS/Include/core_cm7.h **** typedef struct
1117:Drivers/CMSIS/Include/core_cm7.h **** {
1118:Drivers/CMSIS/Include/core_cm7.h ****   __IOM uint32_t CTRL;                   /*!< Offset: 0x000 (R/W)  Control Register */
1119:Drivers/CMSIS/Include/core_cm7.h ****   __IOM uint32_t CYCCNT;                 /*!< Offset: 0x004 (R/W)  Cycle Count Register */
1120:Drivers/CMSIS/Include/core_cm7.h ****   __IOM uint32_t CPICNT;                 /*!< Offset: 0x008 (R/W)  CPI Count Register */
1121:Drivers/CMSIS/Include/core_cm7.h ****   __IOM uint32_t EXCCNT;                 /*!< Offset: 0x00C (R/W)  Exception Overhead Count Registe
1122:Drivers/CMSIS/Include/core_cm7.h ****   __IOM uint32_t SLEEPCNT;               /*!< Offset: 0x010 (R/W)  Sleep Count Register */
1123:Drivers/CMSIS/Include/core_cm7.h ****   __IOM uint32_t LSUCNT;                 /*!< Offset: 0x014 (R/W)  LSU Count Register */
ARM GAS  /tmp/cc4uKuIh.s 			page 48


1124:Drivers/CMSIS/Include/core_cm7.h ****   __IOM uint32_t FOLDCNT;                /*!< Offset: 0x018 (R/W)  Folded-instruction Count Registe
1125:Drivers/CMSIS/Include/core_cm7.h ****   __IM  uint32_t PCSR;                   /*!< Offset: 0x01C (R/ )  Program Counter Sample Register 
1126:Drivers/CMSIS/Include/core_cm7.h ****   __IOM uint32_t COMP0;                  /*!< Offset: 0x020 (R/W)  Comparator Register 0 */
1127:Drivers/CMSIS/Include/core_cm7.h ****   __IOM uint32_t MASK0;                  /*!< Offset: 0x024 (R/W)  Mask Register 0 */
1128:Drivers/CMSIS/Include/core_cm7.h ****   __IOM uint32_t FUNCTION0;              /*!< Offset: 0x028 (R/W)  Function Register 0 */
1129:Drivers/CMSIS/Include/core_cm7.h ****         uint32_t RESERVED0[1U];
1130:Drivers/CMSIS/Include/core_cm7.h ****   __IOM uint32_t COMP1;                  /*!< Offset: 0x030 (R/W)  Comparator Register 1 */
1131:Drivers/CMSIS/Include/core_cm7.h ****   __IOM uint32_t MASK1;                  /*!< Offset: 0x034 (R/W)  Mask Register 1 */
1132:Drivers/CMSIS/Include/core_cm7.h ****   __IOM uint32_t FUNCTION1;              /*!< Offset: 0x038 (R/W)  Function Register 1 */
1133:Drivers/CMSIS/Include/core_cm7.h ****         uint32_t RESERVED1[1U];
1134:Drivers/CMSIS/Include/core_cm7.h ****   __IOM uint32_t COMP2;                  /*!< Offset: 0x040 (R/W)  Comparator Register 2 */
1135:Drivers/CMSIS/Include/core_cm7.h ****   __IOM uint32_t MASK2;                  /*!< Offset: 0x044 (R/W)  Mask Register 2 */
1136:Drivers/CMSIS/Include/core_cm7.h ****   __IOM uint32_t FUNCTION2;              /*!< Offset: 0x048 (R/W)  Function Register 2 */
1137:Drivers/CMSIS/Include/core_cm7.h ****         uint32_t RESERVED2[1U];
1138:Drivers/CMSIS/Include/core_cm7.h ****   __IOM uint32_t COMP3;                  /*!< Offset: 0x050 (R/W)  Comparator Register 3 */
1139:Drivers/CMSIS/Include/core_cm7.h ****   __IOM uint32_t MASK3;                  /*!< Offset: 0x054 (R/W)  Mask Register 3 */
1140:Drivers/CMSIS/Include/core_cm7.h ****   __IOM uint32_t FUNCTION3;              /*!< Offset: 0x058 (R/W)  Function Register 3 */
1141:Drivers/CMSIS/Include/core_cm7.h ****         uint32_t RESERVED3[981U];
1142:Drivers/CMSIS/Include/core_cm7.h ****   __OM  uint32_t LAR;                    /*!< Offset: 0xFB0 (  W)  Lock Access Register */
1143:Drivers/CMSIS/Include/core_cm7.h ****   __IM  uint32_t LSR;                    /*!< Offset: 0xFB4 (R  )  Lock Status Register */
1144:Drivers/CMSIS/Include/core_cm7.h **** } DWT_Type;
1145:Drivers/CMSIS/Include/core_cm7.h **** 
1146:Drivers/CMSIS/Include/core_cm7.h **** /* DWT Control Register Definitions */
1147:Drivers/CMSIS/Include/core_cm7.h **** #define DWT_CTRL_NUMCOMP_Pos               28U                                         /*!< DWT CTR
1148:Drivers/CMSIS/Include/core_cm7.h **** #define DWT_CTRL_NUMCOMP_Msk               (0xFUL << DWT_CTRL_NUMCOMP_Pos)             /*!< DWT CTR
1149:Drivers/CMSIS/Include/core_cm7.h **** 
1150:Drivers/CMSIS/Include/core_cm7.h **** #define DWT_CTRL_NOTRCPKT_Pos              27U                                         /*!< DWT CTR
1151:Drivers/CMSIS/Include/core_cm7.h **** #define DWT_CTRL_NOTRCPKT_Msk              (0x1UL << DWT_CTRL_NOTRCPKT_Pos)            /*!< DWT CTR
1152:Drivers/CMSIS/Include/core_cm7.h **** 
1153:Drivers/CMSIS/Include/core_cm7.h **** #define DWT_CTRL_NOEXTTRIG_Pos             26U                                         /*!< DWT CTR
1154:Drivers/CMSIS/Include/core_cm7.h **** #define DWT_CTRL_NOEXTTRIG_Msk             (0x1UL << DWT_CTRL_NOEXTTRIG_Pos)           /*!< DWT CTR
1155:Drivers/CMSIS/Include/core_cm7.h **** 
1156:Drivers/CMSIS/Include/core_cm7.h **** #define DWT_CTRL_NOCYCCNT_Pos              25U                                         /*!< DWT CTR
1157:Drivers/CMSIS/Include/core_cm7.h **** #define DWT_CTRL_NOCYCCNT_Msk              (0x1UL << DWT_CTRL_NOCYCCNT_Pos)            /*!< DWT CTR
1158:Drivers/CMSIS/Include/core_cm7.h **** 
1159:Drivers/CMSIS/Include/core_cm7.h **** #define DWT_CTRL_NOPRFCNT_Pos              24U                                         /*!< DWT CTR
1160:Drivers/CMSIS/Include/core_cm7.h **** #define DWT_CTRL_NOPRFCNT_Msk              (0x1UL << DWT_CTRL_NOPRFCNT_Pos)            /*!< DWT CTR
1161:Drivers/CMSIS/Include/core_cm7.h **** 
1162:Drivers/CMSIS/Include/core_cm7.h **** #define DWT_CTRL_CYCEVTENA_Pos             22U                                         /*!< DWT CTR
1163:Drivers/CMSIS/Include/core_cm7.h **** #define DWT_CTRL_CYCEVTENA_Msk             (0x1UL << DWT_CTRL_CYCEVTENA_Pos)           /*!< DWT CTR
1164:Drivers/CMSIS/Include/core_cm7.h **** 
1165:Drivers/CMSIS/Include/core_cm7.h **** #define DWT_CTRL_FOLDEVTENA_Pos            21U                                         /*!< DWT CTR
1166:Drivers/CMSIS/Include/core_cm7.h **** #define DWT_CTRL_FOLDEVTENA_Msk            (0x1UL << DWT_CTRL_FOLDEVTENA_Pos)          /*!< DWT CTR
1167:Drivers/CMSIS/Include/core_cm7.h **** 
1168:Drivers/CMSIS/Include/core_cm7.h **** #define DWT_CTRL_LSUEVTENA_Pos             20U                                         /*!< DWT CTR
1169:Drivers/CMSIS/Include/core_cm7.h **** #define DWT_CTRL_LSUEVTENA_Msk             (0x1UL << DWT_CTRL_LSUEVTENA_Pos)           /*!< DWT CTR
1170:Drivers/CMSIS/Include/core_cm7.h **** 
1171:Drivers/CMSIS/Include/core_cm7.h **** #define DWT_CTRL_SLEEPEVTENA_Pos           19U                                         /*!< DWT CTR
1172:Drivers/CMSIS/Include/core_cm7.h **** #define DWT_CTRL_SLEEPEVTENA_Msk           (0x1UL << DWT_CTRL_SLEEPEVTENA_Pos)         /*!< DWT CTR
1173:Drivers/CMSIS/Include/core_cm7.h **** 
1174:Drivers/CMSIS/Include/core_cm7.h **** #define DWT_CTRL_EXCEVTENA_Pos             18U                                         /*!< DWT CTR
1175:Drivers/CMSIS/Include/core_cm7.h **** #define DWT_CTRL_EXCEVTENA_Msk             (0x1UL << DWT_CTRL_EXCEVTENA_Pos)           /*!< DWT CTR
1176:Drivers/CMSIS/Include/core_cm7.h **** 
1177:Drivers/CMSIS/Include/core_cm7.h **** #define DWT_CTRL_CPIEVTENA_Pos             17U                                         /*!< DWT CTR
1178:Drivers/CMSIS/Include/core_cm7.h **** #define DWT_CTRL_CPIEVTENA_Msk             (0x1UL << DWT_CTRL_CPIEVTENA_Pos)           /*!< DWT CTR
1179:Drivers/CMSIS/Include/core_cm7.h **** 
1180:Drivers/CMSIS/Include/core_cm7.h **** #define DWT_CTRL_EXCTRCENA_Pos             16U                                         /*!< DWT CTR
ARM GAS  /tmp/cc4uKuIh.s 			page 49


1181:Drivers/CMSIS/Include/core_cm7.h **** #define DWT_CTRL_EXCTRCENA_Msk             (0x1UL << DWT_CTRL_EXCTRCENA_Pos)           /*!< DWT CTR
1182:Drivers/CMSIS/Include/core_cm7.h **** 
1183:Drivers/CMSIS/Include/core_cm7.h **** #define DWT_CTRL_PCSAMPLENA_Pos            12U                                         /*!< DWT CTR
1184:Drivers/CMSIS/Include/core_cm7.h **** #define DWT_CTRL_PCSAMPLENA_Msk            (0x1UL << DWT_CTRL_PCSAMPLENA_Pos)          /*!< DWT CTR
1185:Drivers/CMSIS/Include/core_cm7.h **** 
1186:Drivers/CMSIS/Include/core_cm7.h **** #define DWT_CTRL_SYNCTAP_Pos               10U                                         /*!< DWT CTR
1187:Drivers/CMSIS/Include/core_cm7.h **** #define DWT_CTRL_SYNCTAP_Msk               (0x3UL << DWT_CTRL_SYNCTAP_Pos)             /*!< DWT CTR
1188:Drivers/CMSIS/Include/core_cm7.h **** 
1189:Drivers/CMSIS/Include/core_cm7.h **** #define DWT_CTRL_CYCTAP_Pos                 9U                                         /*!< DWT CTR
1190:Drivers/CMSIS/Include/core_cm7.h **** #define DWT_CTRL_CYCTAP_Msk                (0x1UL << DWT_CTRL_CYCTAP_Pos)              /*!< DWT CTR
1191:Drivers/CMSIS/Include/core_cm7.h **** 
1192:Drivers/CMSIS/Include/core_cm7.h **** #define DWT_CTRL_POSTINIT_Pos               5U                                         /*!< DWT CTR
1193:Drivers/CMSIS/Include/core_cm7.h **** #define DWT_CTRL_POSTINIT_Msk              (0xFUL << DWT_CTRL_POSTINIT_Pos)            /*!< DWT CTR
1194:Drivers/CMSIS/Include/core_cm7.h **** 
1195:Drivers/CMSIS/Include/core_cm7.h **** #define DWT_CTRL_POSTPRESET_Pos             1U                                         /*!< DWT CTR
1196:Drivers/CMSIS/Include/core_cm7.h **** #define DWT_CTRL_POSTPRESET_Msk            (0xFUL << DWT_CTRL_POSTPRESET_Pos)          /*!< DWT CTR
1197:Drivers/CMSIS/Include/core_cm7.h **** 
1198:Drivers/CMSIS/Include/core_cm7.h **** #define DWT_CTRL_CYCCNTENA_Pos              0U                                         /*!< DWT CTR
1199:Drivers/CMSIS/Include/core_cm7.h **** #define DWT_CTRL_CYCCNTENA_Msk             (0x1UL /*<< DWT_CTRL_CYCCNTENA_Pos*/)       /*!< DWT CTR
1200:Drivers/CMSIS/Include/core_cm7.h **** 
1201:Drivers/CMSIS/Include/core_cm7.h **** /* DWT CPI Count Register Definitions */
1202:Drivers/CMSIS/Include/core_cm7.h **** #define DWT_CPICNT_CPICNT_Pos               0U                                         /*!< DWT CPI
1203:Drivers/CMSIS/Include/core_cm7.h **** #define DWT_CPICNT_CPICNT_Msk              (0xFFUL /*<< DWT_CPICNT_CPICNT_Pos*/)       /*!< DWT CPI
1204:Drivers/CMSIS/Include/core_cm7.h **** 
1205:Drivers/CMSIS/Include/core_cm7.h **** /* DWT Exception Overhead Count Register Definitions */
1206:Drivers/CMSIS/Include/core_cm7.h **** #define DWT_EXCCNT_EXCCNT_Pos               0U                                         /*!< DWT EXC
1207:Drivers/CMSIS/Include/core_cm7.h **** #define DWT_EXCCNT_EXCCNT_Msk              (0xFFUL /*<< DWT_EXCCNT_EXCCNT_Pos*/)       /*!< DWT EXC
1208:Drivers/CMSIS/Include/core_cm7.h **** 
1209:Drivers/CMSIS/Include/core_cm7.h **** /* DWT Sleep Count Register Definitions */
1210:Drivers/CMSIS/Include/core_cm7.h **** #define DWT_SLEEPCNT_SLEEPCNT_Pos           0U                                         /*!< DWT SLE
1211:Drivers/CMSIS/Include/core_cm7.h **** #define DWT_SLEEPCNT_SLEEPCNT_Msk          (0xFFUL /*<< DWT_SLEEPCNT_SLEEPCNT_Pos*/)   /*!< DWT SLE
1212:Drivers/CMSIS/Include/core_cm7.h **** 
1213:Drivers/CMSIS/Include/core_cm7.h **** /* DWT LSU Count Register Definitions */
1214:Drivers/CMSIS/Include/core_cm7.h **** #define DWT_LSUCNT_LSUCNT_Pos               0U                                         /*!< DWT LSU
1215:Drivers/CMSIS/Include/core_cm7.h **** #define DWT_LSUCNT_LSUCNT_Msk              (0xFFUL /*<< DWT_LSUCNT_LSUCNT_Pos*/)       /*!< DWT LSU
1216:Drivers/CMSIS/Include/core_cm7.h **** 
1217:Drivers/CMSIS/Include/core_cm7.h **** /* DWT Folded-instruction Count Register Definitions */
1218:Drivers/CMSIS/Include/core_cm7.h **** #define DWT_FOLDCNT_FOLDCNT_Pos             0U                                         /*!< DWT FOL
1219:Drivers/CMSIS/Include/core_cm7.h **** #define DWT_FOLDCNT_FOLDCNT_Msk            (0xFFUL /*<< DWT_FOLDCNT_FOLDCNT_Pos*/)     /*!< DWT FOL
1220:Drivers/CMSIS/Include/core_cm7.h **** 
1221:Drivers/CMSIS/Include/core_cm7.h **** /* DWT Comparator Mask Register Definitions */
1222:Drivers/CMSIS/Include/core_cm7.h **** #define DWT_MASK_MASK_Pos                   0U                                         /*!< DWT MAS
1223:Drivers/CMSIS/Include/core_cm7.h **** #define DWT_MASK_MASK_Msk                  (0x1FUL /*<< DWT_MASK_MASK_Pos*/)           /*!< DWT MAS
1224:Drivers/CMSIS/Include/core_cm7.h **** 
1225:Drivers/CMSIS/Include/core_cm7.h **** /* DWT Comparator Function Register Definitions */
1226:Drivers/CMSIS/Include/core_cm7.h **** #define DWT_FUNCTION_MATCHED_Pos           24U                                         /*!< DWT FUN
1227:Drivers/CMSIS/Include/core_cm7.h **** #define DWT_FUNCTION_MATCHED_Msk           (0x1UL << DWT_FUNCTION_MATCHED_Pos)         /*!< DWT FUN
1228:Drivers/CMSIS/Include/core_cm7.h **** 
1229:Drivers/CMSIS/Include/core_cm7.h **** #define DWT_FUNCTION_DATAVADDR1_Pos        16U                                         /*!< DWT FUN
1230:Drivers/CMSIS/Include/core_cm7.h **** #define DWT_FUNCTION_DATAVADDR1_Msk        (0xFUL << DWT_FUNCTION_DATAVADDR1_Pos)      /*!< DWT FUN
1231:Drivers/CMSIS/Include/core_cm7.h **** 
1232:Drivers/CMSIS/Include/core_cm7.h **** #define DWT_FUNCTION_DATAVADDR0_Pos        12U                                         /*!< DWT FUN
1233:Drivers/CMSIS/Include/core_cm7.h **** #define DWT_FUNCTION_DATAVADDR0_Msk        (0xFUL << DWT_FUNCTION_DATAVADDR0_Pos)      /*!< DWT FUN
1234:Drivers/CMSIS/Include/core_cm7.h **** 
1235:Drivers/CMSIS/Include/core_cm7.h **** #define DWT_FUNCTION_DATAVSIZE_Pos         10U                                         /*!< DWT FUN
1236:Drivers/CMSIS/Include/core_cm7.h **** #define DWT_FUNCTION_DATAVSIZE_Msk         (0x3UL << DWT_FUNCTION_DATAVSIZE_Pos)       /*!< DWT FUN
1237:Drivers/CMSIS/Include/core_cm7.h **** 
ARM GAS  /tmp/cc4uKuIh.s 			page 50


1238:Drivers/CMSIS/Include/core_cm7.h **** #define DWT_FUNCTION_LNK1ENA_Pos            9U                                         /*!< DWT FUN
1239:Drivers/CMSIS/Include/core_cm7.h **** #define DWT_FUNCTION_LNK1ENA_Msk           (0x1UL << DWT_FUNCTION_LNK1ENA_Pos)         /*!< DWT FUN
1240:Drivers/CMSIS/Include/core_cm7.h **** 
1241:Drivers/CMSIS/Include/core_cm7.h **** #define DWT_FUNCTION_DATAVMATCH_Pos         8U                                         /*!< DWT FUN
1242:Drivers/CMSIS/Include/core_cm7.h **** #define DWT_FUNCTION_DATAVMATCH_Msk        (0x1UL << DWT_FUNCTION_DATAVMATCH_Pos)      /*!< DWT FUN
1243:Drivers/CMSIS/Include/core_cm7.h **** 
1244:Drivers/CMSIS/Include/core_cm7.h **** #define DWT_FUNCTION_CYCMATCH_Pos           7U                                         /*!< DWT FUN
1245:Drivers/CMSIS/Include/core_cm7.h **** #define DWT_FUNCTION_CYCMATCH_Msk          (0x1UL << DWT_FUNCTION_CYCMATCH_Pos)        /*!< DWT FUN
1246:Drivers/CMSIS/Include/core_cm7.h **** 
1247:Drivers/CMSIS/Include/core_cm7.h **** #define DWT_FUNCTION_EMITRANGE_Pos          5U                                         /*!< DWT FUN
1248:Drivers/CMSIS/Include/core_cm7.h **** #define DWT_FUNCTION_EMITRANGE_Msk         (0x1UL << DWT_FUNCTION_EMITRANGE_Pos)       /*!< DWT FUN
1249:Drivers/CMSIS/Include/core_cm7.h **** 
1250:Drivers/CMSIS/Include/core_cm7.h **** #define DWT_FUNCTION_FUNCTION_Pos           0U                                         /*!< DWT FUN
1251:Drivers/CMSIS/Include/core_cm7.h **** #define DWT_FUNCTION_FUNCTION_Msk          (0xFUL /*<< DWT_FUNCTION_FUNCTION_Pos*/)    /*!< DWT FUN
1252:Drivers/CMSIS/Include/core_cm7.h **** 
1253:Drivers/CMSIS/Include/core_cm7.h **** /*@}*/ /* end of group CMSIS_DWT */
1254:Drivers/CMSIS/Include/core_cm7.h **** 
1255:Drivers/CMSIS/Include/core_cm7.h **** 
1256:Drivers/CMSIS/Include/core_cm7.h **** /**
1257:Drivers/CMSIS/Include/core_cm7.h ****   \ingroup  CMSIS_core_register
1258:Drivers/CMSIS/Include/core_cm7.h ****   \defgroup CMSIS_TPI     Trace Port Interface (TPI)
1259:Drivers/CMSIS/Include/core_cm7.h ****   \brief    Type definitions for the Trace Port Interface (TPI)
1260:Drivers/CMSIS/Include/core_cm7.h ****   @{
1261:Drivers/CMSIS/Include/core_cm7.h ****  */
1262:Drivers/CMSIS/Include/core_cm7.h **** 
1263:Drivers/CMSIS/Include/core_cm7.h **** /**
1264:Drivers/CMSIS/Include/core_cm7.h ****   \brief  Structure type to access the Trace Port Interface Register (TPI).
1265:Drivers/CMSIS/Include/core_cm7.h ****  */
1266:Drivers/CMSIS/Include/core_cm7.h **** typedef struct
1267:Drivers/CMSIS/Include/core_cm7.h **** {
1268:Drivers/CMSIS/Include/core_cm7.h ****   __IM  uint32_t SSPSR;                  /*!< Offset: 0x000 (R/ )  Supported Parallel Port Size Reg
1269:Drivers/CMSIS/Include/core_cm7.h ****   __IOM uint32_t CSPSR;                  /*!< Offset: 0x004 (R/W)  Current Parallel Port Size Regis
1270:Drivers/CMSIS/Include/core_cm7.h ****         uint32_t RESERVED0[2U];
1271:Drivers/CMSIS/Include/core_cm7.h ****   __IOM uint32_t ACPR;                   /*!< Offset: 0x010 (R/W)  Asynchronous Clock Prescaler Reg
1272:Drivers/CMSIS/Include/core_cm7.h ****         uint32_t RESERVED1[55U];
1273:Drivers/CMSIS/Include/core_cm7.h ****   __IOM uint32_t SPPR;                   /*!< Offset: 0x0F0 (R/W)  Selected Pin Protocol Register *
1274:Drivers/CMSIS/Include/core_cm7.h ****         uint32_t RESERVED2[131U];
1275:Drivers/CMSIS/Include/core_cm7.h ****   __IM  uint32_t FFSR;                   /*!< Offset: 0x300 (R/ )  Formatter and Flush Status Regis
1276:Drivers/CMSIS/Include/core_cm7.h ****   __IOM uint32_t FFCR;                   /*!< Offset: 0x304 (R/W)  Formatter and Flush Control Regi
1277:Drivers/CMSIS/Include/core_cm7.h ****   __IM  uint32_t FSCR;                   /*!< Offset: 0x308 (R/ )  Formatter Synchronization Counte
1278:Drivers/CMSIS/Include/core_cm7.h ****         uint32_t RESERVED3[759U];
1279:Drivers/CMSIS/Include/core_cm7.h ****   __IM  uint32_t TRIGGER;                /*!< Offset: 0xEE8 (R/ )  TRIGGER Register */
1280:Drivers/CMSIS/Include/core_cm7.h ****   __IM  uint32_t FIFO0;                  /*!< Offset: 0xEEC (R/ )  Integration ETM Data */
1281:Drivers/CMSIS/Include/core_cm7.h ****   __IM  uint32_t ITATBCTR2;              /*!< Offset: 0xEF0 (R/ )  ITATBCTR2 */
1282:Drivers/CMSIS/Include/core_cm7.h ****         uint32_t RESERVED4[1U];
1283:Drivers/CMSIS/Include/core_cm7.h ****   __IM  uint32_t ITATBCTR0;              /*!< Offset: 0xEF8 (R/ )  ITATBCTR0 */
1284:Drivers/CMSIS/Include/core_cm7.h ****   __IM  uint32_t FIFO1;                  /*!< Offset: 0xEFC (R/ )  Integration ITM Data */
1285:Drivers/CMSIS/Include/core_cm7.h ****   __IOM uint32_t ITCTRL;                 /*!< Offset: 0xF00 (R/W)  Integration Mode Control */
1286:Drivers/CMSIS/Include/core_cm7.h ****         uint32_t RESERVED5[39U];
1287:Drivers/CMSIS/Include/core_cm7.h ****   __IOM uint32_t CLAIMSET;               /*!< Offset: 0xFA0 (R/W)  Claim tag set */
1288:Drivers/CMSIS/Include/core_cm7.h ****   __IOM uint32_t CLAIMCLR;               /*!< Offset: 0xFA4 (R/W)  Claim tag clear */
1289:Drivers/CMSIS/Include/core_cm7.h ****         uint32_t RESERVED7[8U];
1290:Drivers/CMSIS/Include/core_cm7.h ****   __IM  uint32_t DEVID;                  /*!< Offset: 0xFC8 (R/ )  TPIU_DEVID */
1291:Drivers/CMSIS/Include/core_cm7.h ****   __IM  uint32_t DEVTYPE;                /*!< Offset: 0xFCC (R/ )  TPIU_DEVTYPE */
1292:Drivers/CMSIS/Include/core_cm7.h **** } TPI_Type;
1293:Drivers/CMSIS/Include/core_cm7.h **** 
1294:Drivers/CMSIS/Include/core_cm7.h **** /* TPI Asynchronous Clock Prescaler Register Definitions */
ARM GAS  /tmp/cc4uKuIh.s 			page 51


1295:Drivers/CMSIS/Include/core_cm7.h **** #define TPI_ACPR_PRESCALER_Pos              0U                                         /*!< TPI ACP
1296:Drivers/CMSIS/Include/core_cm7.h **** #define TPI_ACPR_PRESCALER_Msk             (0x1FFFUL /*<< TPI_ACPR_PRESCALER_Pos*/)    /*!< TPI ACP
1297:Drivers/CMSIS/Include/core_cm7.h **** 
1298:Drivers/CMSIS/Include/core_cm7.h **** /* TPI Selected Pin Protocol Register Definitions */
1299:Drivers/CMSIS/Include/core_cm7.h **** #define TPI_SPPR_TXMODE_Pos                 0U                                         /*!< TPI SPP
1300:Drivers/CMSIS/Include/core_cm7.h **** #define TPI_SPPR_TXMODE_Msk                (0x3UL /*<< TPI_SPPR_TXMODE_Pos*/)          /*!< TPI SPP
1301:Drivers/CMSIS/Include/core_cm7.h **** 
1302:Drivers/CMSIS/Include/core_cm7.h **** /* TPI Formatter and Flush Status Register Definitions */
1303:Drivers/CMSIS/Include/core_cm7.h **** #define TPI_FFSR_FtNonStop_Pos              3U                                         /*!< TPI FFS
1304:Drivers/CMSIS/Include/core_cm7.h **** #define TPI_FFSR_FtNonStop_Msk             (0x1UL << TPI_FFSR_FtNonStop_Pos)           /*!< TPI FFS
1305:Drivers/CMSIS/Include/core_cm7.h **** 
1306:Drivers/CMSIS/Include/core_cm7.h **** #define TPI_FFSR_TCPresent_Pos              2U                                         /*!< TPI FFS
1307:Drivers/CMSIS/Include/core_cm7.h **** #define TPI_FFSR_TCPresent_Msk             (0x1UL << TPI_FFSR_TCPresent_Pos)           /*!< TPI FFS
1308:Drivers/CMSIS/Include/core_cm7.h **** 
1309:Drivers/CMSIS/Include/core_cm7.h **** #define TPI_FFSR_FtStopped_Pos              1U                                         /*!< TPI FFS
1310:Drivers/CMSIS/Include/core_cm7.h **** #define TPI_FFSR_FtStopped_Msk             (0x1UL << TPI_FFSR_FtStopped_Pos)           /*!< TPI FFS
1311:Drivers/CMSIS/Include/core_cm7.h **** 
1312:Drivers/CMSIS/Include/core_cm7.h **** #define TPI_FFSR_FlInProg_Pos               0U                                         /*!< TPI FFS
1313:Drivers/CMSIS/Include/core_cm7.h **** #define TPI_FFSR_FlInProg_Msk              (0x1UL /*<< TPI_FFSR_FlInProg_Pos*/)        /*!< TPI FFS
1314:Drivers/CMSIS/Include/core_cm7.h **** 
1315:Drivers/CMSIS/Include/core_cm7.h **** /* TPI Formatter and Flush Control Register Definitions */
1316:Drivers/CMSIS/Include/core_cm7.h **** #define TPI_FFCR_TrigIn_Pos                 8U                                         /*!< TPI FFC
1317:Drivers/CMSIS/Include/core_cm7.h **** #define TPI_FFCR_TrigIn_Msk                (0x1UL << TPI_FFCR_TrigIn_Pos)              /*!< TPI FFC
1318:Drivers/CMSIS/Include/core_cm7.h **** 
1319:Drivers/CMSIS/Include/core_cm7.h **** #define TPI_FFCR_EnFCont_Pos                1U                                         /*!< TPI FFC
1320:Drivers/CMSIS/Include/core_cm7.h **** #define TPI_FFCR_EnFCont_Msk               (0x1UL << TPI_FFCR_EnFCont_Pos)             /*!< TPI FFC
1321:Drivers/CMSIS/Include/core_cm7.h **** 
1322:Drivers/CMSIS/Include/core_cm7.h **** /* TPI TRIGGER Register Definitions */
1323:Drivers/CMSIS/Include/core_cm7.h **** #define TPI_TRIGGER_TRIGGER_Pos             0U                                         /*!< TPI TRI
1324:Drivers/CMSIS/Include/core_cm7.h **** #define TPI_TRIGGER_TRIGGER_Msk            (0x1UL /*<< TPI_TRIGGER_TRIGGER_Pos*/)      /*!< TPI TRI
1325:Drivers/CMSIS/Include/core_cm7.h **** 
1326:Drivers/CMSIS/Include/core_cm7.h **** /* TPI Integration ETM Data Register Definitions (FIFO0) */
1327:Drivers/CMSIS/Include/core_cm7.h **** #define TPI_FIFO0_ITM_ATVALID_Pos          29U                                         /*!< TPI FIF
1328:Drivers/CMSIS/Include/core_cm7.h **** #define TPI_FIFO0_ITM_ATVALID_Msk          (0x3UL << TPI_FIFO0_ITM_ATVALID_Pos)        /*!< TPI FIF
1329:Drivers/CMSIS/Include/core_cm7.h **** 
1330:Drivers/CMSIS/Include/core_cm7.h **** #define TPI_FIFO0_ITM_bytecount_Pos        27U                                         /*!< TPI FIF
1331:Drivers/CMSIS/Include/core_cm7.h **** #define TPI_FIFO0_ITM_bytecount_Msk        (0x3UL << TPI_FIFO0_ITM_bytecount_Pos)      /*!< TPI FIF
1332:Drivers/CMSIS/Include/core_cm7.h **** 
1333:Drivers/CMSIS/Include/core_cm7.h **** #define TPI_FIFO0_ETM_ATVALID_Pos          26U                                         /*!< TPI FIF
1334:Drivers/CMSIS/Include/core_cm7.h **** #define TPI_FIFO0_ETM_ATVALID_Msk          (0x3UL << TPI_FIFO0_ETM_ATVALID_Pos)        /*!< TPI FIF
1335:Drivers/CMSIS/Include/core_cm7.h **** 
1336:Drivers/CMSIS/Include/core_cm7.h **** #define TPI_FIFO0_ETM_bytecount_Pos        24U                                         /*!< TPI FIF
1337:Drivers/CMSIS/Include/core_cm7.h **** #define TPI_FIFO0_ETM_bytecount_Msk        (0x3UL << TPI_FIFO0_ETM_bytecount_Pos)      /*!< TPI FIF
1338:Drivers/CMSIS/Include/core_cm7.h **** 
1339:Drivers/CMSIS/Include/core_cm7.h **** #define TPI_FIFO0_ETM2_Pos                 16U                                         /*!< TPI FIF
1340:Drivers/CMSIS/Include/core_cm7.h **** #define TPI_FIFO0_ETM2_Msk                 (0xFFUL << TPI_FIFO0_ETM2_Pos)              /*!< TPI FIF
1341:Drivers/CMSIS/Include/core_cm7.h **** 
1342:Drivers/CMSIS/Include/core_cm7.h **** #define TPI_FIFO0_ETM1_Pos                  8U                                         /*!< TPI FIF
1343:Drivers/CMSIS/Include/core_cm7.h **** #define TPI_FIFO0_ETM1_Msk                 (0xFFUL << TPI_FIFO0_ETM1_Pos)              /*!< TPI FIF
1344:Drivers/CMSIS/Include/core_cm7.h **** 
1345:Drivers/CMSIS/Include/core_cm7.h **** #define TPI_FIFO0_ETM0_Pos                  0U                                         /*!< TPI FIF
1346:Drivers/CMSIS/Include/core_cm7.h **** #define TPI_FIFO0_ETM0_Msk                 (0xFFUL /*<< TPI_FIFO0_ETM0_Pos*/)          /*!< TPI FIF
1347:Drivers/CMSIS/Include/core_cm7.h **** 
1348:Drivers/CMSIS/Include/core_cm7.h **** /* TPI ITATBCTR2 Register Definitions */
1349:Drivers/CMSIS/Include/core_cm7.h **** #define TPI_ITATBCTR2_ATREADY2_Pos          0U                                         /*!< TPI ITA
1350:Drivers/CMSIS/Include/core_cm7.h **** #define TPI_ITATBCTR2_ATREADY2_Msk         (0x1UL /*<< TPI_ITATBCTR2_ATREADY2_Pos*/)   /*!< TPI ITA
1351:Drivers/CMSIS/Include/core_cm7.h **** 
ARM GAS  /tmp/cc4uKuIh.s 			page 52


1352:Drivers/CMSIS/Include/core_cm7.h **** #define TPI_ITATBCTR2_ATREADY1_Pos          0U                                         /*!< TPI ITA
1353:Drivers/CMSIS/Include/core_cm7.h **** #define TPI_ITATBCTR2_ATREADY1_Msk         (0x1UL /*<< TPI_ITATBCTR2_ATREADY1_Pos*/)   /*!< TPI ITA
1354:Drivers/CMSIS/Include/core_cm7.h **** 
1355:Drivers/CMSIS/Include/core_cm7.h **** /* TPI Integration ITM Data Register Definitions (FIFO1) */
1356:Drivers/CMSIS/Include/core_cm7.h **** #define TPI_FIFO1_ITM_ATVALID_Pos          29U                                         /*!< TPI FIF
1357:Drivers/CMSIS/Include/core_cm7.h **** #define TPI_FIFO1_ITM_ATVALID_Msk          (0x3UL << TPI_FIFO1_ITM_ATVALID_Pos)        /*!< TPI FIF
1358:Drivers/CMSIS/Include/core_cm7.h **** 
1359:Drivers/CMSIS/Include/core_cm7.h **** #define TPI_FIFO1_ITM_bytecount_Pos        27U                                         /*!< TPI FIF
1360:Drivers/CMSIS/Include/core_cm7.h **** #define TPI_FIFO1_ITM_bytecount_Msk        (0x3UL << TPI_FIFO1_ITM_bytecount_Pos)      /*!< TPI FIF
1361:Drivers/CMSIS/Include/core_cm7.h **** 
1362:Drivers/CMSIS/Include/core_cm7.h **** #define TPI_FIFO1_ETM_ATVALID_Pos          26U                                         /*!< TPI FIF
1363:Drivers/CMSIS/Include/core_cm7.h **** #define TPI_FIFO1_ETM_ATVALID_Msk          (0x3UL << TPI_FIFO1_ETM_ATVALID_Pos)        /*!< TPI FIF
1364:Drivers/CMSIS/Include/core_cm7.h **** 
1365:Drivers/CMSIS/Include/core_cm7.h **** #define TPI_FIFO1_ETM_bytecount_Pos        24U                                         /*!< TPI FIF
1366:Drivers/CMSIS/Include/core_cm7.h **** #define TPI_FIFO1_ETM_bytecount_Msk        (0x3UL << TPI_FIFO1_ETM_bytecount_Pos)      /*!< TPI FIF
1367:Drivers/CMSIS/Include/core_cm7.h **** 
1368:Drivers/CMSIS/Include/core_cm7.h **** #define TPI_FIFO1_ITM2_Pos                 16U                                         /*!< TPI FIF
1369:Drivers/CMSIS/Include/core_cm7.h **** #define TPI_FIFO1_ITM2_Msk                 (0xFFUL << TPI_FIFO1_ITM2_Pos)              /*!< TPI FIF
1370:Drivers/CMSIS/Include/core_cm7.h **** 
1371:Drivers/CMSIS/Include/core_cm7.h **** #define TPI_FIFO1_ITM1_Pos                  8U                                         /*!< TPI FIF
1372:Drivers/CMSIS/Include/core_cm7.h **** #define TPI_FIFO1_ITM1_Msk                 (0xFFUL << TPI_FIFO1_ITM1_Pos)              /*!< TPI FIF
1373:Drivers/CMSIS/Include/core_cm7.h **** 
1374:Drivers/CMSIS/Include/core_cm7.h **** #define TPI_FIFO1_ITM0_Pos                  0U                                         /*!< TPI FIF
1375:Drivers/CMSIS/Include/core_cm7.h **** #define TPI_FIFO1_ITM0_Msk                 (0xFFUL /*<< TPI_FIFO1_ITM0_Pos*/)          /*!< TPI FIF
1376:Drivers/CMSIS/Include/core_cm7.h **** 
1377:Drivers/CMSIS/Include/core_cm7.h **** /* TPI ITATBCTR0 Register Definitions */
1378:Drivers/CMSIS/Include/core_cm7.h **** #define TPI_ITATBCTR0_ATREADY2_Pos          0U                                         /*!< TPI ITA
1379:Drivers/CMSIS/Include/core_cm7.h **** #define TPI_ITATBCTR0_ATREADY2_Msk         (0x1UL /*<< TPI_ITATBCTR0_ATREADY2_Pos*/)   /*!< TPI ITA
1380:Drivers/CMSIS/Include/core_cm7.h **** 
1381:Drivers/CMSIS/Include/core_cm7.h **** #define TPI_ITATBCTR0_ATREADY1_Pos          0U                                         /*!< TPI ITA
1382:Drivers/CMSIS/Include/core_cm7.h **** #define TPI_ITATBCTR0_ATREADY1_Msk         (0x1UL /*<< TPI_ITATBCTR0_ATREADY1_Pos*/)   /*!< TPI ITA
1383:Drivers/CMSIS/Include/core_cm7.h **** 
1384:Drivers/CMSIS/Include/core_cm7.h **** /* TPI Integration Mode Control Register Definitions */
1385:Drivers/CMSIS/Include/core_cm7.h **** #define TPI_ITCTRL_Mode_Pos                 0U                                         /*!< TPI ITC
1386:Drivers/CMSIS/Include/core_cm7.h **** #define TPI_ITCTRL_Mode_Msk                (0x3UL /*<< TPI_ITCTRL_Mode_Pos*/)          /*!< TPI ITC
1387:Drivers/CMSIS/Include/core_cm7.h **** 
1388:Drivers/CMSIS/Include/core_cm7.h **** /* TPI DEVID Register Definitions */
1389:Drivers/CMSIS/Include/core_cm7.h **** #define TPI_DEVID_NRZVALID_Pos             11U                                         /*!< TPI DEV
1390:Drivers/CMSIS/Include/core_cm7.h **** #define TPI_DEVID_NRZVALID_Msk             (0x1UL << TPI_DEVID_NRZVALID_Pos)           /*!< TPI DEV
1391:Drivers/CMSIS/Include/core_cm7.h **** 
1392:Drivers/CMSIS/Include/core_cm7.h **** #define TPI_DEVID_MANCVALID_Pos            10U                                         /*!< TPI DEV
1393:Drivers/CMSIS/Include/core_cm7.h **** #define TPI_DEVID_MANCVALID_Msk            (0x1UL << TPI_DEVID_MANCVALID_Pos)          /*!< TPI DEV
1394:Drivers/CMSIS/Include/core_cm7.h **** 
1395:Drivers/CMSIS/Include/core_cm7.h **** #define TPI_DEVID_PTINVALID_Pos             9U                                         /*!< TPI DEV
1396:Drivers/CMSIS/Include/core_cm7.h **** #define TPI_DEVID_PTINVALID_Msk            (0x1UL << TPI_DEVID_PTINVALID_Pos)          /*!< TPI DEV
1397:Drivers/CMSIS/Include/core_cm7.h **** 
1398:Drivers/CMSIS/Include/core_cm7.h **** #define TPI_DEVID_MinBufSz_Pos              6U                                         /*!< TPI DEV
1399:Drivers/CMSIS/Include/core_cm7.h **** #define TPI_DEVID_MinBufSz_Msk             (0x7UL << TPI_DEVID_MinBufSz_Pos)           /*!< TPI DEV
1400:Drivers/CMSIS/Include/core_cm7.h **** 
1401:Drivers/CMSIS/Include/core_cm7.h **** #define TPI_DEVID_AsynClkIn_Pos             5U                                         /*!< TPI DEV
1402:Drivers/CMSIS/Include/core_cm7.h **** #define TPI_DEVID_AsynClkIn_Msk            (0x1UL << TPI_DEVID_AsynClkIn_Pos)          /*!< TPI DEV
1403:Drivers/CMSIS/Include/core_cm7.h **** 
1404:Drivers/CMSIS/Include/core_cm7.h **** #define TPI_DEVID_NrTraceInput_Pos          0U                                         /*!< TPI DEV
1405:Drivers/CMSIS/Include/core_cm7.h **** #define TPI_DEVID_NrTraceInput_Msk         (0x1FUL /*<< TPI_DEVID_NrTraceInput_Pos*/)  /*!< TPI DEV
1406:Drivers/CMSIS/Include/core_cm7.h **** 
1407:Drivers/CMSIS/Include/core_cm7.h **** /* TPI DEVTYPE Register Definitions */
1408:Drivers/CMSIS/Include/core_cm7.h **** #define TPI_DEVTYPE_SubType_Pos             4U                                         /*!< TPI DEV
ARM GAS  /tmp/cc4uKuIh.s 			page 53


1409:Drivers/CMSIS/Include/core_cm7.h **** #define TPI_DEVTYPE_SubType_Msk            (0xFUL /*<< TPI_DEVTYPE_SubType_Pos*/)      /*!< TPI DEV
1410:Drivers/CMSIS/Include/core_cm7.h **** 
1411:Drivers/CMSIS/Include/core_cm7.h **** #define TPI_DEVTYPE_MajorType_Pos           0U                                         /*!< TPI DEV
1412:Drivers/CMSIS/Include/core_cm7.h **** #define TPI_DEVTYPE_MajorType_Msk          (0xFUL << TPI_DEVTYPE_MajorType_Pos)        /*!< TPI DEV
1413:Drivers/CMSIS/Include/core_cm7.h **** 
1414:Drivers/CMSIS/Include/core_cm7.h **** /*@}*/ /* end of group CMSIS_TPI */
1415:Drivers/CMSIS/Include/core_cm7.h **** 
1416:Drivers/CMSIS/Include/core_cm7.h **** 
1417:Drivers/CMSIS/Include/core_cm7.h **** #if defined (__MPU_PRESENT) && (__MPU_PRESENT == 1U)
1418:Drivers/CMSIS/Include/core_cm7.h **** /**
1419:Drivers/CMSIS/Include/core_cm7.h ****   \ingroup  CMSIS_core_register
1420:Drivers/CMSIS/Include/core_cm7.h ****   \defgroup CMSIS_MPU     Memory Protection Unit (MPU)
1421:Drivers/CMSIS/Include/core_cm7.h ****   \brief    Type definitions for the Memory Protection Unit (MPU)
1422:Drivers/CMSIS/Include/core_cm7.h ****   @{
1423:Drivers/CMSIS/Include/core_cm7.h ****  */
1424:Drivers/CMSIS/Include/core_cm7.h **** 
1425:Drivers/CMSIS/Include/core_cm7.h **** /**
1426:Drivers/CMSIS/Include/core_cm7.h ****   \brief  Structure type to access the Memory Protection Unit (MPU).
1427:Drivers/CMSIS/Include/core_cm7.h ****  */
1428:Drivers/CMSIS/Include/core_cm7.h **** typedef struct
1429:Drivers/CMSIS/Include/core_cm7.h **** {
1430:Drivers/CMSIS/Include/core_cm7.h ****   __IM  uint32_t TYPE;                   /*!< Offset: 0x000 (R/ )  MPU Type Register */
1431:Drivers/CMSIS/Include/core_cm7.h ****   __IOM uint32_t CTRL;                   /*!< Offset: 0x004 (R/W)  MPU Control Register */
1432:Drivers/CMSIS/Include/core_cm7.h ****   __IOM uint32_t RNR;                    /*!< Offset: 0x008 (R/W)  MPU Region RNRber Register */
1433:Drivers/CMSIS/Include/core_cm7.h ****   __IOM uint32_t RBAR;                   /*!< Offset: 0x00C (R/W)  MPU Region Base Address Register
1434:Drivers/CMSIS/Include/core_cm7.h ****   __IOM uint32_t RASR;                   /*!< Offset: 0x010 (R/W)  MPU Region Attribute and Size Re
1435:Drivers/CMSIS/Include/core_cm7.h ****   __IOM uint32_t RBAR_A1;                /*!< Offset: 0x014 (R/W)  MPU Alias 1 Region Base Address 
1436:Drivers/CMSIS/Include/core_cm7.h ****   __IOM uint32_t RASR_A1;                /*!< Offset: 0x018 (R/W)  MPU Alias 1 Region Attribute and
1437:Drivers/CMSIS/Include/core_cm7.h ****   __IOM uint32_t RBAR_A2;                /*!< Offset: 0x01C (R/W)  MPU Alias 2 Region Base Address 
1438:Drivers/CMSIS/Include/core_cm7.h ****   __IOM uint32_t RASR_A2;                /*!< Offset: 0x020 (R/W)  MPU Alias 2 Region Attribute and
1439:Drivers/CMSIS/Include/core_cm7.h ****   __IOM uint32_t RBAR_A3;                /*!< Offset: 0x024 (R/W)  MPU Alias 3 Region Base Address 
1440:Drivers/CMSIS/Include/core_cm7.h ****   __IOM uint32_t RASR_A3;                /*!< Offset: 0x028 (R/W)  MPU Alias 3 Region Attribute and
1441:Drivers/CMSIS/Include/core_cm7.h **** } MPU_Type;
1442:Drivers/CMSIS/Include/core_cm7.h **** 
1443:Drivers/CMSIS/Include/core_cm7.h **** #define MPU_TYPE_RALIASES                  4U
1444:Drivers/CMSIS/Include/core_cm7.h **** 
1445:Drivers/CMSIS/Include/core_cm7.h **** /* MPU Type Register Definitions */
1446:Drivers/CMSIS/Include/core_cm7.h **** #define MPU_TYPE_IREGION_Pos               16U                                            /*!< MPU 
1447:Drivers/CMSIS/Include/core_cm7.h **** #define MPU_TYPE_IREGION_Msk               (0xFFUL << MPU_TYPE_IREGION_Pos)               /*!< MPU 
1448:Drivers/CMSIS/Include/core_cm7.h **** 
1449:Drivers/CMSIS/Include/core_cm7.h **** #define MPU_TYPE_DREGION_Pos                8U                                            /*!< MPU 
1450:Drivers/CMSIS/Include/core_cm7.h **** #define MPU_TYPE_DREGION_Msk               (0xFFUL << MPU_TYPE_DREGION_Pos)               /*!< MPU 
1451:Drivers/CMSIS/Include/core_cm7.h **** 
1452:Drivers/CMSIS/Include/core_cm7.h **** #define MPU_TYPE_SEPARATE_Pos               0U                                            /*!< MPU 
1453:Drivers/CMSIS/Include/core_cm7.h **** #define MPU_TYPE_SEPARATE_Msk              (1UL /*<< MPU_TYPE_SEPARATE_Pos*/)             /*!< MPU 
1454:Drivers/CMSIS/Include/core_cm7.h **** 
1455:Drivers/CMSIS/Include/core_cm7.h **** /* MPU Control Register Definitions */
1456:Drivers/CMSIS/Include/core_cm7.h **** #define MPU_CTRL_PRIVDEFENA_Pos             2U                                            /*!< MPU 
1457:Drivers/CMSIS/Include/core_cm7.h **** #define MPU_CTRL_PRIVDEFENA_Msk            (1UL << MPU_CTRL_PRIVDEFENA_Pos)               /*!< MPU 
1458:Drivers/CMSIS/Include/core_cm7.h **** 
1459:Drivers/CMSIS/Include/core_cm7.h **** #define MPU_CTRL_HFNMIENA_Pos               1U                                            /*!< MPU 
1460:Drivers/CMSIS/Include/core_cm7.h **** #define MPU_CTRL_HFNMIENA_Msk              (1UL << MPU_CTRL_HFNMIENA_Pos)                 /*!< MPU 
1461:Drivers/CMSIS/Include/core_cm7.h **** 
1462:Drivers/CMSIS/Include/core_cm7.h **** #define MPU_CTRL_ENABLE_Pos                 0U                                            /*!< MPU 
1463:Drivers/CMSIS/Include/core_cm7.h **** #define MPU_CTRL_ENABLE_Msk                (1UL /*<< MPU_CTRL_ENABLE_Pos*/)               /*!< MPU 
1464:Drivers/CMSIS/Include/core_cm7.h **** 
1465:Drivers/CMSIS/Include/core_cm7.h **** /* MPU Region Number Register Definitions */
ARM GAS  /tmp/cc4uKuIh.s 			page 54


1466:Drivers/CMSIS/Include/core_cm7.h **** #define MPU_RNR_REGION_Pos                  0U                                            /*!< MPU 
1467:Drivers/CMSIS/Include/core_cm7.h **** #define MPU_RNR_REGION_Msk                 (0xFFUL /*<< MPU_RNR_REGION_Pos*/)             /*!< MPU 
1468:Drivers/CMSIS/Include/core_cm7.h **** 
1469:Drivers/CMSIS/Include/core_cm7.h **** /* MPU Region Base Address Register Definitions */
1470:Drivers/CMSIS/Include/core_cm7.h **** #define MPU_RBAR_ADDR_Pos                   5U                                            /*!< MPU 
1471:Drivers/CMSIS/Include/core_cm7.h **** #define MPU_RBAR_ADDR_Msk                  (0x7FFFFFFUL << MPU_RBAR_ADDR_Pos)             /*!< MPU 
1472:Drivers/CMSIS/Include/core_cm7.h **** 
1473:Drivers/CMSIS/Include/core_cm7.h **** #define MPU_RBAR_VALID_Pos                  4U                                            /*!< MPU 
1474:Drivers/CMSIS/Include/core_cm7.h **** #define MPU_RBAR_VALID_Msk                 (1UL << MPU_RBAR_VALID_Pos)                    /*!< MPU 
1475:Drivers/CMSIS/Include/core_cm7.h **** 
1476:Drivers/CMSIS/Include/core_cm7.h **** #define MPU_RBAR_REGION_Pos                 0U                                            /*!< MPU 
1477:Drivers/CMSIS/Include/core_cm7.h **** #define MPU_RBAR_REGION_Msk                (0xFUL /*<< MPU_RBAR_REGION_Pos*/)             /*!< MPU 
1478:Drivers/CMSIS/Include/core_cm7.h **** 
1479:Drivers/CMSIS/Include/core_cm7.h **** /* MPU Region Attribute and Size Register Definitions */
1480:Drivers/CMSIS/Include/core_cm7.h **** #define MPU_RASR_ATTRS_Pos                 16U                                            /*!< MPU 
1481:Drivers/CMSIS/Include/core_cm7.h **** #define MPU_RASR_ATTRS_Msk                 (0xFFFFUL << MPU_RASR_ATTRS_Pos)               /*!< MPU 
1482:Drivers/CMSIS/Include/core_cm7.h **** 
1483:Drivers/CMSIS/Include/core_cm7.h **** #define MPU_RASR_XN_Pos                    28U                                            /*!< MPU 
1484:Drivers/CMSIS/Include/core_cm7.h **** #define MPU_RASR_XN_Msk                    (1UL << MPU_RASR_XN_Pos)                       /*!< MPU 
1485:Drivers/CMSIS/Include/core_cm7.h **** 
1486:Drivers/CMSIS/Include/core_cm7.h **** #define MPU_RASR_AP_Pos                    24U                                            /*!< MPU 
1487:Drivers/CMSIS/Include/core_cm7.h **** #define MPU_RASR_AP_Msk                    (0x7UL << MPU_RASR_AP_Pos)                     /*!< MPU 
1488:Drivers/CMSIS/Include/core_cm7.h **** 
1489:Drivers/CMSIS/Include/core_cm7.h **** #define MPU_RASR_TEX_Pos                   19U                                            /*!< MPU 
1490:Drivers/CMSIS/Include/core_cm7.h **** #define MPU_RASR_TEX_Msk                   (0x7UL << MPU_RASR_TEX_Pos)                    /*!< MPU 
1491:Drivers/CMSIS/Include/core_cm7.h **** 
1492:Drivers/CMSIS/Include/core_cm7.h **** #define MPU_RASR_S_Pos                     18U                                            /*!< MPU 
1493:Drivers/CMSIS/Include/core_cm7.h **** #define MPU_RASR_S_Msk                     (1UL << MPU_RASR_S_Pos)                        /*!< MPU 
1494:Drivers/CMSIS/Include/core_cm7.h **** 
1495:Drivers/CMSIS/Include/core_cm7.h **** #define MPU_RASR_C_Pos                     17U                                            /*!< MPU 
1496:Drivers/CMSIS/Include/core_cm7.h **** #define MPU_RASR_C_Msk                     (1UL << MPU_RASR_C_Pos)                        /*!< MPU 
1497:Drivers/CMSIS/Include/core_cm7.h **** 
1498:Drivers/CMSIS/Include/core_cm7.h **** #define MPU_RASR_B_Pos                     16U                                            /*!< MPU 
1499:Drivers/CMSIS/Include/core_cm7.h **** #define MPU_RASR_B_Msk                     (1UL << MPU_RASR_B_Pos)                        /*!< MPU 
1500:Drivers/CMSIS/Include/core_cm7.h **** 
1501:Drivers/CMSIS/Include/core_cm7.h **** #define MPU_RASR_SRD_Pos                    8U                                            /*!< MPU 
1502:Drivers/CMSIS/Include/core_cm7.h **** #define MPU_RASR_SRD_Msk                   (0xFFUL << MPU_RASR_SRD_Pos)                   /*!< MPU 
1503:Drivers/CMSIS/Include/core_cm7.h **** 
1504:Drivers/CMSIS/Include/core_cm7.h **** #define MPU_RASR_SIZE_Pos                   1U                                            /*!< MPU 
1505:Drivers/CMSIS/Include/core_cm7.h **** #define MPU_RASR_SIZE_Msk                  (0x1FUL << MPU_RASR_SIZE_Pos)                  /*!< MPU 
1506:Drivers/CMSIS/Include/core_cm7.h **** 
1507:Drivers/CMSIS/Include/core_cm7.h **** #define MPU_RASR_ENABLE_Pos                 0U                                            /*!< MPU 
1508:Drivers/CMSIS/Include/core_cm7.h **** #define MPU_RASR_ENABLE_Msk                (1UL /*<< MPU_RASR_ENABLE_Pos*/)               /*!< MPU 
1509:Drivers/CMSIS/Include/core_cm7.h **** 
1510:Drivers/CMSIS/Include/core_cm7.h **** /*@} end of group CMSIS_MPU */
1511:Drivers/CMSIS/Include/core_cm7.h **** #endif /* defined (__MPU_PRESENT) && (__MPU_PRESENT == 1U) */
1512:Drivers/CMSIS/Include/core_cm7.h **** 
1513:Drivers/CMSIS/Include/core_cm7.h **** 
1514:Drivers/CMSIS/Include/core_cm7.h **** /**
1515:Drivers/CMSIS/Include/core_cm7.h ****   \ingroup  CMSIS_core_register
1516:Drivers/CMSIS/Include/core_cm7.h ****   \defgroup CMSIS_FPU     Floating Point Unit (FPU)
1517:Drivers/CMSIS/Include/core_cm7.h ****   \brief    Type definitions for the Floating Point Unit (FPU)
1518:Drivers/CMSIS/Include/core_cm7.h ****   @{
1519:Drivers/CMSIS/Include/core_cm7.h ****  */
1520:Drivers/CMSIS/Include/core_cm7.h **** 
1521:Drivers/CMSIS/Include/core_cm7.h **** /**
1522:Drivers/CMSIS/Include/core_cm7.h ****   \brief  Structure type to access the Floating Point Unit (FPU).
ARM GAS  /tmp/cc4uKuIh.s 			page 55


1523:Drivers/CMSIS/Include/core_cm7.h ****  */
1524:Drivers/CMSIS/Include/core_cm7.h **** typedef struct
1525:Drivers/CMSIS/Include/core_cm7.h **** {
1526:Drivers/CMSIS/Include/core_cm7.h ****         uint32_t RESERVED0[1U];
1527:Drivers/CMSIS/Include/core_cm7.h ****   __IOM uint32_t FPCCR;                  /*!< Offset: 0x004 (R/W)  Floating-Point Context Control R
1528:Drivers/CMSIS/Include/core_cm7.h ****   __IOM uint32_t FPCAR;                  /*!< Offset: 0x008 (R/W)  Floating-Point Context Address R
1529:Drivers/CMSIS/Include/core_cm7.h ****   __IOM uint32_t FPDSCR;                 /*!< Offset: 0x00C (R/W)  Floating-Point Default Status Co
1530:Drivers/CMSIS/Include/core_cm7.h ****   __IM  uint32_t MVFR0;                  /*!< Offset: 0x010 (R/ )  Media and FP Feature Register 0 
1531:Drivers/CMSIS/Include/core_cm7.h ****   __IM  uint32_t MVFR1;                  /*!< Offset: 0x014 (R/ )  Media and FP Feature Register 1 
1532:Drivers/CMSIS/Include/core_cm7.h ****   __IM  uint32_t MVFR2;                  /*!< Offset: 0x018 (R/ )  Media and FP Feature Register 2 
1533:Drivers/CMSIS/Include/core_cm7.h **** } FPU_Type;
1534:Drivers/CMSIS/Include/core_cm7.h **** 
1535:Drivers/CMSIS/Include/core_cm7.h **** /* Floating-Point Context Control Register Definitions */
1536:Drivers/CMSIS/Include/core_cm7.h **** #define FPU_FPCCR_ASPEN_Pos                31U                                            /*!< FPCC
1537:Drivers/CMSIS/Include/core_cm7.h **** #define FPU_FPCCR_ASPEN_Msk                (1UL << FPU_FPCCR_ASPEN_Pos)                   /*!< FPCC
1538:Drivers/CMSIS/Include/core_cm7.h **** 
1539:Drivers/CMSIS/Include/core_cm7.h **** #define FPU_FPCCR_LSPEN_Pos                30U                                            /*!< FPCC
1540:Drivers/CMSIS/Include/core_cm7.h **** #define FPU_FPCCR_LSPEN_Msk                (1UL << FPU_FPCCR_LSPEN_Pos)                   /*!< FPCC
1541:Drivers/CMSIS/Include/core_cm7.h **** 
1542:Drivers/CMSIS/Include/core_cm7.h **** #define FPU_FPCCR_MONRDY_Pos                8U                                            /*!< FPCC
1543:Drivers/CMSIS/Include/core_cm7.h **** #define FPU_FPCCR_MONRDY_Msk               (1UL << FPU_FPCCR_MONRDY_Pos)                  /*!< FPCC
1544:Drivers/CMSIS/Include/core_cm7.h **** 
1545:Drivers/CMSIS/Include/core_cm7.h **** #define FPU_FPCCR_BFRDY_Pos                 6U                                            /*!< FPCC
1546:Drivers/CMSIS/Include/core_cm7.h **** #define FPU_FPCCR_BFRDY_Msk                (1UL << FPU_FPCCR_BFRDY_Pos)                   /*!< FPCC
1547:Drivers/CMSIS/Include/core_cm7.h **** 
1548:Drivers/CMSIS/Include/core_cm7.h **** #define FPU_FPCCR_MMRDY_Pos                 5U                                            /*!< FPCC
1549:Drivers/CMSIS/Include/core_cm7.h **** #define FPU_FPCCR_MMRDY_Msk                (1UL << FPU_FPCCR_MMRDY_Pos)                   /*!< FPCC
1550:Drivers/CMSIS/Include/core_cm7.h **** 
1551:Drivers/CMSIS/Include/core_cm7.h **** #define FPU_FPCCR_HFRDY_Pos                 4U                                            /*!< FPCC
1552:Drivers/CMSIS/Include/core_cm7.h **** #define FPU_FPCCR_HFRDY_Msk                (1UL << FPU_FPCCR_HFRDY_Pos)                   /*!< FPCC
1553:Drivers/CMSIS/Include/core_cm7.h **** 
1554:Drivers/CMSIS/Include/core_cm7.h **** #define FPU_FPCCR_THREAD_Pos                3U                                            /*!< FPCC
1555:Drivers/CMSIS/Include/core_cm7.h **** #define FPU_FPCCR_THREAD_Msk               (1UL << FPU_FPCCR_THREAD_Pos)                  /*!< FPCC
1556:Drivers/CMSIS/Include/core_cm7.h **** 
1557:Drivers/CMSIS/Include/core_cm7.h **** #define FPU_FPCCR_USER_Pos                  1U                                            /*!< FPCC
1558:Drivers/CMSIS/Include/core_cm7.h **** #define FPU_FPCCR_USER_Msk                 (1UL << FPU_FPCCR_USER_Pos)                    /*!< FPCC
1559:Drivers/CMSIS/Include/core_cm7.h **** 
1560:Drivers/CMSIS/Include/core_cm7.h **** #define FPU_FPCCR_LSPACT_Pos                0U                                            /*!< FPCC
1561:Drivers/CMSIS/Include/core_cm7.h **** #define FPU_FPCCR_LSPACT_Msk               (1UL /*<< FPU_FPCCR_LSPACT_Pos*/)              /*!< FPCC
1562:Drivers/CMSIS/Include/core_cm7.h **** 
1563:Drivers/CMSIS/Include/core_cm7.h **** /* Floating-Point Context Address Register Definitions */
1564:Drivers/CMSIS/Include/core_cm7.h **** #define FPU_FPCAR_ADDRESS_Pos               3U                                            /*!< FPCA
1565:Drivers/CMSIS/Include/core_cm7.h **** #define FPU_FPCAR_ADDRESS_Msk              (0x1FFFFFFFUL << FPU_FPCAR_ADDRESS_Pos)        /*!< FPCA
1566:Drivers/CMSIS/Include/core_cm7.h **** 
1567:Drivers/CMSIS/Include/core_cm7.h **** /* Floating-Point Default Status Control Register Definitions */
1568:Drivers/CMSIS/Include/core_cm7.h **** #define FPU_FPDSCR_AHP_Pos                 26U                                            /*!< FPDS
1569:Drivers/CMSIS/Include/core_cm7.h **** #define FPU_FPDSCR_AHP_Msk                 (1UL << FPU_FPDSCR_AHP_Pos)                    /*!< FPDS
1570:Drivers/CMSIS/Include/core_cm7.h **** 
1571:Drivers/CMSIS/Include/core_cm7.h **** #define FPU_FPDSCR_DN_Pos                  25U                                            /*!< FPDS
1572:Drivers/CMSIS/Include/core_cm7.h **** #define FPU_FPDSCR_DN_Msk                  (1UL << FPU_FPDSCR_DN_Pos)                     /*!< FPDS
1573:Drivers/CMSIS/Include/core_cm7.h **** 
1574:Drivers/CMSIS/Include/core_cm7.h **** #define FPU_FPDSCR_FZ_Pos                  24U                                            /*!< FPDS
1575:Drivers/CMSIS/Include/core_cm7.h **** #define FPU_FPDSCR_FZ_Msk                  (1UL << FPU_FPDSCR_FZ_Pos)                     /*!< FPDS
1576:Drivers/CMSIS/Include/core_cm7.h **** 
1577:Drivers/CMSIS/Include/core_cm7.h **** #define FPU_FPDSCR_RMode_Pos               22U                                            /*!< FPDS
1578:Drivers/CMSIS/Include/core_cm7.h **** #define FPU_FPDSCR_RMode_Msk               (3UL << FPU_FPDSCR_RMode_Pos)                  /*!< FPDS
1579:Drivers/CMSIS/Include/core_cm7.h **** 
ARM GAS  /tmp/cc4uKuIh.s 			page 56


1580:Drivers/CMSIS/Include/core_cm7.h **** /* Media and FP Feature Register 0 Definitions */
1581:Drivers/CMSIS/Include/core_cm7.h **** #define FPU_MVFR0_FP_rounding_modes_Pos    28U                                            /*!< MVFR
1582:Drivers/CMSIS/Include/core_cm7.h **** #define FPU_MVFR0_FP_rounding_modes_Msk    (0xFUL << FPU_MVFR0_FP_rounding_modes_Pos)     /*!< MVFR
1583:Drivers/CMSIS/Include/core_cm7.h **** 
1584:Drivers/CMSIS/Include/core_cm7.h **** #define FPU_MVFR0_Short_vectors_Pos        24U                                            /*!< MVFR
1585:Drivers/CMSIS/Include/core_cm7.h **** #define FPU_MVFR0_Short_vectors_Msk        (0xFUL << FPU_MVFR0_Short_vectors_Pos)         /*!< MVFR
1586:Drivers/CMSIS/Include/core_cm7.h **** 
1587:Drivers/CMSIS/Include/core_cm7.h **** #define FPU_MVFR0_Square_root_Pos          20U                                            /*!< MVFR
1588:Drivers/CMSIS/Include/core_cm7.h **** #define FPU_MVFR0_Square_root_Msk          (0xFUL << FPU_MVFR0_Square_root_Pos)           /*!< MVFR
1589:Drivers/CMSIS/Include/core_cm7.h **** 
1590:Drivers/CMSIS/Include/core_cm7.h **** #define FPU_MVFR0_Divide_Pos               16U                                            /*!< MVFR
1591:Drivers/CMSIS/Include/core_cm7.h **** #define FPU_MVFR0_Divide_Msk               (0xFUL << FPU_MVFR0_Divide_Pos)                /*!< MVFR
1592:Drivers/CMSIS/Include/core_cm7.h **** 
1593:Drivers/CMSIS/Include/core_cm7.h **** #define FPU_MVFR0_FP_excep_trapping_Pos    12U                                            /*!< MVFR
1594:Drivers/CMSIS/Include/core_cm7.h **** #define FPU_MVFR0_FP_excep_trapping_Msk    (0xFUL << FPU_MVFR0_FP_excep_trapping_Pos)     /*!< MVFR
1595:Drivers/CMSIS/Include/core_cm7.h **** 
1596:Drivers/CMSIS/Include/core_cm7.h **** #define FPU_MVFR0_Double_precision_Pos      8U                                            /*!< MVFR
1597:Drivers/CMSIS/Include/core_cm7.h **** #define FPU_MVFR0_Double_precision_Msk     (0xFUL << FPU_MVFR0_Double_precision_Pos)      /*!< MVFR
1598:Drivers/CMSIS/Include/core_cm7.h **** 
1599:Drivers/CMSIS/Include/core_cm7.h **** #define FPU_MVFR0_Single_precision_Pos      4U                                            /*!< MVFR
1600:Drivers/CMSIS/Include/core_cm7.h **** #define FPU_MVFR0_Single_precision_Msk     (0xFUL << FPU_MVFR0_Single_precision_Pos)      /*!< MVFR
1601:Drivers/CMSIS/Include/core_cm7.h **** 
1602:Drivers/CMSIS/Include/core_cm7.h **** #define FPU_MVFR0_A_SIMD_registers_Pos      0U                                            /*!< MVFR
1603:Drivers/CMSIS/Include/core_cm7.h **** #define FPU_MVFR0_A_SIMD_registers_Msk     (0xFUL /*<< FPU_MVFR0_A_SIMD_registers_Pos*/)  /*!< MVFR
1604:Drivers/CMSIS/Include/core_cm7.h **** 
1605:Drivers/CMSIS/Include/core_cm7.h **** /* Media and FP Feature Register 1 Definitions */
1606:Drivers/CMSIS/Include/core_cm7.h **** #define FPU_MVFR1_FP_fused_MAC_Pos         28U                                            /*!< MVFR
1607:Drivers/CMSIS/Include/core_cm7.h **** #define FPU_MVFR1_FP_fused_MAC_Msk         (0xFUL << FPU_MVFR1_FP_fused_MAC_Pos)          /*!< MVFR
1608:Drivers/CMSIS/Include/core_cm7.h **** 
1609:Drivers/CMSIS/Include/core_cm7.h **** #define FPU_MVFR1_FP_HPFP_Pos              24U                                            /*!< MVFR
1610:Drivers/CMSIS/Include/core_cm7.h **** #define FPU_MVFR1_FP_HPFP_Msk              (0xFUL << FPU_MVFR1_FP_HPFP_Pos)               /*!< MVFR
1611:Drivers/CMSIS/Include/core_cm7.h **** 
1612:Drivers/CMSIS/Include/core_cm7.h **** #define FPU_MVFR1_D_NaN_mode_Pos            4U                                            /*!< MVFR
1613:Drivers/CMSIS/Include/core_cm7.h **** #define FPU_MVFR1_D_NaN_mode_Msk           (0xFUL << FPU_MVFR1_D_NaN_mode_Pos)            /*!< MVFR
1614:Drivers/CMSIS/Include/core_cm7.h **** 
1615:Drivers/CMSIS/Include/core_cm7.h **** #define FPU_MVFR1_FtZ_mode_Pos              0U                                            /*!< MVFR
1616:Drivers/CMSIS/Include/core_cm7.h **** #define FPU_MVFR1_FtZ_mode_Msk             (0xFUL /*<< FPU_MVFR1_FtZ_mode_Pos*/)          /*!< MVFR
1617:Drivers/CMSIS/Include/core_cm7.h **** 
1618:Drivers/CMSIS/Include/core_cm7.h **** /* Media and FP Feature Register 2 Definitions */
1619:Drivers/CMSIS/Include/core_cm7.h **** 
1620:Drivers/CMSIS/Include/core_cm7.h **** /*@} end of group CMSIS_FPU */
1621:Drivers/CMSIS/Include/core_cm7.h **** 
1622:Drivers/CMSIS/Include/core_cm7.h **** 
1623:Drivers/CMSIS/Include/core_cm7.h **** /**
1624:Drivers/CMSIS/Include/core_cm7.h ****   \ingroup  CMSIS_core_register
1625:Drivers/CMSIS/Include/core_cm7.h ****   \defgroup CMSIS_CoreDebug       Core Debug Registers (CoreDebug)
1626:Drivers/CMSIS/Include/core_cm7.h ****   \brief    Type definitions for the Core Debug Registers
1627:Drivers/CMSIS/Include/core_cm7.h ****   @{
1628:Drivers/CMSIS/Include/core_cm7.h ****  */
1629:Drivers/CMSIS/Include/core_cm7.h **** 
1630:Drivers/CMSIS/Include/core_cm7.h **** /**
1631:Drivers/CMSIS/Include/core_cm7.h ****   \brief  Structure type to access the Core Debug Register (CoreDebug).
1632:Drivers/CMSIS/Include/core_cm7.h ****  */
1633:Drivers/CMSIS/Include/core_cm7.h **** typedef struct
1634:Drivers/CMSIS/Include/core_cm7.h **** {
1635:Drivers/CMSIS/Include/core_cm7.h ****   __IOM uint32_t DHCSR;                  /*!< Offset: 0x000 (R/W)  Debug Halting Control and Status
1636:Drivers/CMSIS/Include/core_cm7.h ****   __OM  uint32_t DCRSR;                  /*!< Offset: 0x004 ( /W)  Debug Core Register Selector Reg
ARM GAS  /tmp/cc4uKuIh.s 			page 57


1637:Drivers/CMSIS/Include/core_cm7.h ****   __IOM uint32_t DCRDR;                  /*!< Offset: 0x008 (R/W)  Debug Core Register Data Registe
1638:Drivers/CMSIS/Include/core_cm7.h ****   __IOM uint32_t DEMCR;                  /*!< Offset: 0x00C (R/W)  Debug Exception and Monitor Cont
1639:Drivers/CMSIS/Include/core_cm7.h **** } CoreDebug_Type;
1640:Drivers/CMSIS/Include/core_cm7.h **** 
1641:Drivers/CMSIS/Include/core_cm7.h **** /* Debug Halting Control and Status Register Definitions */
1642:Drivers/CMSIS/Include/core_cm7.h **** #define CoreDebug_DHCSR_DBGKEY_Pos         16U                                            /*!< Core
1643:Drivers/CMSIS/Include/core_cm7.h **** #define CoreDebug_DHCSR_DBGKEY_Msk         (0xFFFFUL << CoreDebug_DHCSR_DBGKEY_Pos)       /*!< Core
1644:Drivers/CMSIS/Include/core_cm7.h **** 
1645:Drivers/CMSIS/Include/core_cm7.h **** #define CoreDebug_DHCSR_S_RESET_ST_Pos     25U                                            /*!< Core
1646:Drivers/CMSIS/Include/core_cm7.h **** #define CoreDebug_DHCSR_S_RESET_ST_Msk     (1UL << CoreDebug_DHCSR_S_RESET_ST_Pos)        /*!< Core
1647:Drivers/CMSIS/Include/core_cm7.h **** 
1648:Drivers/CMSIS/Include/core_cm7.h **** #define CoreDebug_DHCSR_S_RETIRE_ST_Pos    24U                                            /*!< Core
1649:Drivers/CMSIS/Include/core_cm7.h **** #define CoreDebug_DHCSR_S_RETIRE_ST_Msk    (1UL << CoreDebug_DHCSR_S_RETIRE_ST_Pos)       /*!< Core
1650:Drivers/CMSIS/Include/core_cm7.h **** 
1651:Drivers/CMSIS/Include/core_cm7.h **** #define CoreDebug_DHCSR_S_LOCKUP_Pos       19U                                            /*!< Core
1652:Drivers/CMSIS/Include/core_cm7.h **** #define CoreDebug_DHCSR_S_LOCKUP_Msk       (1UL << CoreDebug_DHCSR_S_LOCKUP_Pos)          /*!< Core
1653:Drivers/CMSIS/Include/core_cm7.h **** 
1654:Drivers/CMSIS/Include/core_cm7.h **** #define CoreDebug_DHCSR_S_SLEEP_Pos        18U                                            /*!< Core
1655:Drivers/CMSIS/Include/core_cm7.h **** #define CoreDebug_DHCSR_S_SLEEP_Msk        (1UL << CoreDebug_DHCSR_S_SLEEP_Pos)           /*!< Core
1656:Drivers/CMSIS/Include/core_cm7.h **** 
1657:Drivers/CMSIS/Include/core_cm7.h **** #define CoreDebug_DHCSR_S_HALT_Pos         17U                                            /*!< Core
1658:Drivers/CMSIS/Include/core_cm7.h **** #define CoreDebug_DHCSR_S_HALT_Msk         (1UL << CoreDebug_DHCSR_S_HALT_Pos)            /*!< Core
1659:Drivers/CMSIS/Include/core_cm7.h **** 
1660:Drivers/CMSIS/Include/core_cm7.h **** #define CoreDebug_DHCSR_S_REGRDY_Pos       16U                                            /*!< Core
1661:Drivers/CMSIS/Include/core_cm7.h **** #define CoreDebug_DHCSR_S_REGRDY_Msk       (1UL << CoreDebug_DHCSR_S_REGRDY_Pos)          /*!< Core
1662:Drivers/CMSIS/Include/core_cm7.h **** 
1663:Drivers/CMSIS/Include/core_cm7.h **** #define CoreDebug_DHCSR_C_SNAPSTALL_Pos     5U                                            /*!< Core
1664:Drivers/CMSIS/Include/core_cm7.h **** #define CoreDebug_DHCSR_C_SNAPSTALL_Msk    (1UL << CoreDebug_DHCSR_C_SNAPSTALL_Pos)       /*!< Core
1665:Drivers/CMSIS/Include/core_cm7.h **** 
1666:Drivers/CMSIS/Include/core_cm7.h **** #define CoreDebug_DHCSR_C_MASKINTS_Pos      3U                                            /*!< Core
1667:Drivers/CMSIS/Include/core_cm7.h **** #define CoreDebug_DHCSR_C_MASKINTS_Msk     (1UL << CoreDebug_DHCSR_C_MASKINTS_Pos)        /*!< Core
1668:Drivers/CMSIS/Include/core_cm7.h **** 
1669:Drivers/CMSIS/Include/core_cm7.h **** #define CoreDebug_DHCSR_C_STEP_Pos          2U                                            /*!< Core
1670:Drivers/CMSIS/Include/core_cm7.h **** #define CoreDebug_DHCSR_C_STEP_Msk         (1UL << CoreDebug_DHCSR_C_STEP_Pos)            /*!< Core
1671:Drivers/CMSIS/Include/core_cm7.h **** 
1672:Drivers/CMSIS/Include/core_cm7.h **** #define CoreDebug_DHCSR_C_HALT_Pos          1U                                            /*!< Core
1673:Drivers/CMSIS/Include/core_cm7.h **** #define CoreDebug_DHCSR_C_HALT_Msk         (1UL << CoreDebug_DHCSR_C_HALT_Pos)            /*!< Core
1674:Drivers/CMSIS/Include/core_cm7.h **** 
1675:Drivers/CMSIS/Include/core_cm7.h **** #define CoreDebug_DHCSR_C_DEBUGEN_Pos       0U                                            /*!< Core
1676:Drivers/CMSIS/Include/core_cm7.h **** #define CoreDebug_DHCSR_C_DEBUGEN_Msk      (1UL /*<< CoreDebug_DHCSR_C_DEBUGEN_Pos*/)     /*!< Core
1677:Drivers/CMSIS/Include/core_cm7.h **** 
1678:Drivers/CMSIS/Include/core_cm7.h **** /* Debug Core Register Selector Register Definitions */
1679:Drivers/CMSIS/Include/core_cm7.h **** #define CoreDebug_DCRSR_REGWnR_Pos         16U                                            /*!< Core
1680:Drivers/CMSIS/Include/core_cm7.h **** #define CoreDebug_DCRSR_REGWnR_Msk         (1UL << CoreDebug_DCRSR_REGWnR_Pos)            /*!< Core
1681:Drivers/CMSIS/Include/core_cm7.h **** 
1682:Drivers/CMSIS/Include/core_cm7.h **** #define CoreDebug_DCRSR_REGSEL_Pos          0U                                            /*!< Core
1683:Drivers/CMSIS/Include/core_cm7.h **** #define CoreDebug_DCRSR_REGSEL_Msk         (0x1FUL /*<< CoreDebug_DCRSR_REGSEL_Pos*/)     /*!< Core
1684:Drivers/CMSIS/Include/core_cm7.h **** 
1685:Drivers/CMSIS/Include/core_cm7.h **** /* Debug Exception and Monitor Control Register Definitions */
1686:Drivers/CMSIS/Include/core_cm7.h **** #define CoreDebug_DEMCR_TRCENA_Pos         24U                                            /*!< Core
1687:Drivers/CMSIS/Include/core_cm7.h **** #define CoreDebug_DEMCR_TRCENA_Msk         (1UL << CoreDebug_DEMCR_TRCENA_Pos)            /*!< Core
1688:Drivers/CMSIS/Include/core_cm7.h **** 
1689:Drivers/CMSIS/Include/core_cm7.h **** #define CoreDebug_DEMCR_MON_REQ_Pos        19U                                            /*!< Core
1690:Drivers/CMSIS/Include/core_cm7.h **** #define CoreDebug_DEMCR_MON_REQ_Msk        (1UL << CoreDebug_DEMCR_MON_REQ_Pos)           /*!< Core
1691:Drivers/CMSIS/Include/core_cm7.h **** 
1692:Drivers/CMSIS/Include/core_cm7.h **** #define CoreDebug_DEMCR_MON_STEP_Pos       18U                                            /*!< Core
1693:Drivers/CMSIS/Include/core_cm7.h **** #define CoreDebug_DEMCR_MON_STEP_Msk       (1UL << CoreDebug_DEMCR_MON_STEP_Pos)          /*!< Core
ARM GAS  /tmp/cc4uKuIh.s 			page 58


1694:Drivers/CMSIS/Include/core_cm7.h **** 
1695:Drivers/CMSIS/Include/core_cm7.h **** #define CoreDebug_DEMCR_MON_PEND_Pos       17U                                            /*!< Core
1696:Drivers/CMSIS/Include/core_cm7.h **** #define CoreDebug_DEMCR_MON_PEND_Msk       (1UL << CoreDebug_DEMCR_MON_PEND_Pos)          /*!< Core
1697:Drivers/CMSIS/Include/core_cm7.h **** 
1698:Drivers/CMSIS/Include/core_cm7.h **** #define CoreDebug_DEMCR_MON_EN_Pos         16U                                            /*!< Core
1699:Drivers/CMSIS/Include/core_cm7.h **** #define CoreDebug_DEMCR_MON_EN_Msk         (1UL << CoreDebug_DEMCR_MON_EN_Pos)            /*!< Core
1700:Drivers/CMSIS/Include/core_cm7.h **** 
1701:Drivers/CMSIS/Include/core_cm7.h **** #define CoreDebug_DEMCR_VC_HARDERR_Pos     10U                                            /*!< Core
1702:Drivers/CMSIS/Include/core_cm7.h **** #define CoreDebug_DEMCR_VC_HARDERR_Msk     (1UL << CoreDebug_DEMCR_VC_HARDERR_Pos)        /*!< Core
1703:Drivers/CMSIS/Include/core_cm7.h **** 
1704:Drivers/CMSIS/Include/core_cm7.h **** #define CoreDebug_DEMCR_VC_INTERR_Pos       9U                                            /*!< Core
1705:Drivers/CMSIS/Include/core_cm7.h **** #define CoreDebug_DEMCR_VC_INTERR_Msk      (1UL << CoreDebug_DEMCR_VC_INTERR_Pos)         /*!< Core
1706:Drivers/CMSIS/Include/core_cm7.h **** 
1707:Drivers/CMSIS/Include/core_cm7.h **** #define CoreDebug_DEMCR_VC_BUSERR_Pos       8U                                            /*!< Core
1708:Drivers/CMSIS/Include/core_cm7.h **** #define CoreDebug_DEMCR_VC_BUSERR_Msk      (1UL << CoreDebug_DEMCR_VC_BUSERR_Pos)         /*!< Core
1709:Drivers/CMSIS/Include/core_cm7.h **** 
1710:Drivers/CMSIS/Include/core_cm7.h **** #define CoreDebug_DEMCR_VC_STATERR_Pos      7U                                            /*!< Core
