ARM GAS  /tmp/ccVfyJBo.s 			page 1


   1              		.cpu cortex-m7
   2              		.arch armv7e-m
   3              		.fpu fpv5-d16
   4              		.eabi_attribute 28, 1
   5              		.eabi_attribute 20, 1
   6              		.eabi_attribute 21, 1
   7              		.eabi_attribute 23, 3
   8              		.eabi_attribute 24, 1
   9              		.eabi_attribute 25, 1
  10              		.eabi_attribute 26, 1
  11              		.eabi_attribute 30, 1
  12              		.eabi_attribute 34, 1
  13              		.eabi_attribute 18, 4
  14              		.file	"mqtt.c"
  15              		.text
  16              	.Ltext0:
  17              		.cfi_sections	.debug_frame
  18              		.section	.text.msg_generate_packet_id,"ax",%progbits
  19              		.align	1
  20              		.syntax unified
  21              		.thumb
  22              		.thumb_func
  24              	msg_generate_packet_id:
  25              	.LVL0:
  26              	.LFB167:
  27              		.file 1 "Middlewares/Third_Party/LwIP/src/apps/mqtt/mqtt.c"
   1:Middlewares/Third_Party/LwIP/src/apps/mqtt/mqtt.c **** /**
   2:Middlewares/Third_Party/LwIP/src/apps/mqtt/mqtt.c ****  * @file
   3:Middlewares/Third_Party/LwIP/src/apps/mqtt/mqtt.c ****  * MQTT client
   4:Middlewares/Third_Party/LwIP/src/apps/mqtt/mqtt.c ****  *
   5:Middlewares/Third_Party/LwIP/src/apps/mqtt/mqtt.c ****  * @defgroup mqtt MQTT client
   6:Middlewares/Third_Party/LwIP/src/apps/mqtt/mqtt.c ****  * @ingroup apps
   7:Middlewares/Third_Party/LwIP/src/apps/mqtt/mqtt.c ****  * @verbinclude mqtt_client.txt
   8:Middlewares/Third_Party/LwIP/src/apps/mqtt/mqtt.c ****  */
   9:Middlewares/Third_Party/LwIP/src/apps/mqtt/mqtt.c **** 
  10:Middlewares/Third_Party/LwIP/src/apps/mqtt/mqtt.c **** /*
  11:Middlewares/Third_Party/LwIP/src/apps/mqtt/mqtt.c ****  * Copyright (c) 2016 Erik Andersson <erian747@gmail.com>
  12:Middlewares/Third_Party/LwIP/src/apps/mqtt/mqtt.c ****  * All rights reserved.
  13:Middlewares/Third_Party/LwIP/src/apps/mqtt/mqtt.c ****  *
  14:Middlewares/Third_Party/LwIP/src/apps/mqtt/mqtt.c ****  * Redistribution and use in source and binary forms, with or without modification,
  15:Middlewares/Third_Party/LwIP/src/apps/mqtt/mqtt.c ****  * are permitted provided that the following conditions are met:
  16:Middlewares/Third_Party/LwIP/src/apps/mqtt/mqtt.c ****  *
  17:Middlewares/Third_Party/LwIP/src/apps/mqtt/mqtt.c ****  * 1. Redistributions of source code must retain the above copyright notice,
  18:Middlewares/Third_Party/LwIP/src/apps/mqtt/mqtt.c ****  *    this list of conditions and the following disclaimer.
  19:Middlewares/Third_Party/LwIP/src/apps/mqtt/mqtt.c ****  * 2. Redistributions in binary form must reproduce the above copyright notice,
  20:Middlewares/Third_Party/LwIP/src/apps/mqtt/mqtt.c ****  *    this list of conditions and the following disclaimer in the documentation
  21:Middlewares/Third_Party/LwIP/src/apps/mqtt/mqtt.c ****  *    and/or other materials provided with the distribution.
  22:Middlewares/Third_Party/LwIP/src/apps/mqtt/mqtt.c ****  * 3. The name of the author may not be used to endorse or promote products
  23:Middlewares/Third_Party/LwIP/src/apps/mqtt/mqtt.c ****  *    derived from this software without specific prior written permission.
  24:Middlewares/Third_Party/LwIP/src/apps/mqtt/mqtt.c ****  *
  25:Middlewares/Third_Party/LwIP/src/apps/mqtt/mqtt.c ****  * THIS SOFTWARE IS PROVIDED BY THE AUTHOR ``AS IS'' AND ANY EXPRESS OR IMPLIED
  26:Middlewares/Third_Party/LwIP/src/apps/mqtt/mqtt.c ****  * WARRANTIES, INCLUDING, BUT NOT LIMITED TO, THE IMPLIED WARRANTIES OF
  27:Middlewares/Third_Party/LwIP/src/apps/mqtt/mqtt.c ****  * MERCHANTABILITY AND FITNESS FOR A PARTICULAR PURPOSE ARE DISCLAIMED. IN NO EVENT
  28:Middlewares/Third_Party/LwIP/src/apps/mqtt/mqtt.c ****  * SHALL THE AUTHOR BE LIABLE FOR ANY DIRECT, INDIRECT, INCIDENTAL, SPECIAL,
  29:Middlewares/Third_Party/LwIP/src/apps/mqtt/mqtt.c ****  * EXEMPLARY, OR CONSEQUENTIAL DAMAGES (INCLUDING, BUT NOT LIMITED TO, PROCUREMENT
  30:Middlewares/Third_Party/LwIP/src/apps/mqtt/mqtt.c ****  * OF SUBSTITUTE GOODS OR SERVICES; LOSS OF USE, DATA, OR PROFITS; OR BUSINESS
  31:Middlewares/Third_Party/LwIP/src/apps/mqtt/mqtt.c ****  * INTERRUPTION) HOWEVER CAUSED AND ON ANY THEORY OF LIABILITY, WHETHER IN
ARM GAS  /tmp/ccVfyJBo.s 			page 2


  32:Middlewares/Third_Party/LwIP/src/apps/mqtt/mqtt.c ****  * CONTRACT, STRICT LIABILITY, OR TORT (INCLUDING NEGLIGENCE OR OTHERWISE) ARISING
  33:Middlewares/Third_Party/LwIP/src/apps/mqtt/mqtt.c ****  * IN ANY WAY OUT OF THE USE OF THIS SOFTWARE, EVEN IF ADVISED OF THE POSSIBILITY
  34:Middlewares/Third_Party/LwIP/src/apps/mqtt/mqtt.c ****  * OF SUCH DAMAGE.
  35:Middlewares/Third_Party/LwIP/src/apps/mqtt/mqtt.c ****  *
  36:Middlewares/Third_Party/LwIP/src/apps/mqtt/mqtt.c ****  * This file is part of the lwIP TCP/IP stack
  37:Middlewares/Third_Party/LwIP/src/apps/mqtt/mqtt.c ****  *
  38:Middlewares/Third_Party/LwIP/src/apps/mqtt/mqtt.c ****  * Author: Erik Andersson <erian747@gmail.com>
  39:Middlewares/Third_Party/LwIP/src/apps/mqtt/mqtt.c ****  *
  40:Middlewares/Third_Party/LwIP/src/apps/mqtt/mqtt.c ****  *
  41:Middlewares/Third_Party/LwIP/src/apps/mqtt/mqtt.c ****  * @todo:
  42:Middlewares/Third_Party/LwIP/src/apps/mqtt/mqtt.c ****  * - Handle large outgoing payloads for PUBLISH messages
  43:Middlewares/Third_Party/LwIP/src/apps/mqtt/mqtt.c ****  * - Fix restriction of a single topic in each (UN)SUBSCRIBE message (protocol has support for mult
  44:Middlewares/Third_Party/LwIP/src/apps/mqtt/mqtt.c ****  * - Add support for legacy MQTT protocol version
  45:Middlewares/Third_Party/LwIP/src/apps/mqtt/mqtt.c ****  *
  46:Middlewares/Third_Party/LwIP/src/apps/mqtt/mqtt.c ****  * Please coordinate changes and requests with Erik Andersson
  47:Middlewares/Third_Party/LwIP/src/apps/mqtt/mqtt.c ****  * Erik Andersson <erian747@gmail.com>
  48:Middlewares/Third_Party/LwIP/src/apps/mqtt/mqtt.c ****  *
  49:Middlewares/Third_Party/LwIP/src/apps/mqtt/mqtt.c ****  */
  50:Middlewares/Third_Party/LwIP/src/apps/mqtt/mqtt.c **** #include "lwip/apps/mqtt.h"
  51:Middlewares/Third_Party/LwIP/src/apps/mqtt/mqtt.c **** #include "lwip/apps/mqtt_priv.h"
  52:Middlewares/Third_Party/LwIP/src/apps/mqtt/mqtt.c **** #include "lwip/timeouts.h"
  53:Middlewares/Third_Party/LwIP/src/apps/mqtt/mqtt.c **** #include "lwip/ip_addr.h"
  54:Middlewares/Third_Party/LwIP/src/apps/mqtt/mqtt.c **** #include "lwip/mem.h"
  55:Middlewares/Third_Party/LwIP/src/apps/mqtt/mqtt.c **** #include "lwip/err.h"
  56:Middlewares/Third_Party/LwIP/src/apps/mqtt/mqtt.c **** #include "lwip/pbuf.h"
  57:Middlewares/Third_Party/LwIP/src/apps/mqtt/mqtt.c **** #include "lwip/altcp.h"
  58:Middlewares/Third_Party/LwIP/src/apps/mqtt/mqtt.c **** #include "lwip/altcp_tcp.h"
  59:Middlewares/Third_Party/LwIP/src/apps/mqtt/mqtt.c **** #include "lwip/altcp_tls.h"
  60:Middlewares/Third_Party/LwIP/src/apps/mqtt/mqtt.c **** #include <string.h>
  61:Middlewares/Third_Party/LwIP/src/apps/mqtt/mqtt.c **** 
  62:Middlewares/Third_Party/LwIP/src/apps/mqtt/mqtt.c **** #if LWIP_TCP && LWIP_CALLBACK_API
  63:Middlewares/Third_Party/LwIP/src/apps/mqtt/mqtt.c **** 
  64:Middlewares/Third_Party/LwIP/src/apps/mqtt/mqtt.c **** /**
  65:Middlewares/Third_Party/LwIP/src/apps/mqtt/mqtt.c ****  * MQTT_DEBUG: Default is off.
  66:Middlewares/Third_Party/LwIP/src/apps/mqtt/mqtt.c ****  */
  67:Middlewares/Third_Party/LwIP/src/apps/mqtt/mqtt.c **** #if !defined MQTT_DEBUG || defined __DOXYGEN__
  68:Middlewares/Third_Party/LwIP/src/apps/mqtt/mqtt.c **** #define MQTT_DEBUG                  LWIP_DBG_OFF
  69:Middlewares/Third_Party/LwIP/src/apps/mqtt/mqtt.c **** #endif
  70:Middlewares/Third_Party/LwIP/src/apps/mqtt/mqtt.c **** 
  71:Middlewares/Third_Party/LwIP/src/apps/mqtt/mqtt.c **** #define MQTT_DEBUG_TRACE        (MQTT_DEBUG | LWIP_DBG_TRACE)
  72:Middlewares/Third_Party/LwIP/src/apps/mqtt/mqtt.c **** #define MQTT_DEBUG_STATE        (MQTT_DEBUG | LWIP_DBG_STATE)
  73:Middlewares/Third_Party/LwIP/src/apps/mqtt/mqtt.c **** #define MQTT_DEBUG_WARN         (MQTT_DEBUG | LWIP_DBG_LEVEL_WARNING)
  74:Middlewares/Third_Party/LwIP/src/apps/mqtt/mqtt.c **** #define MQTT_DEBUG_WARN_STATE   (MQTT_DEBUG | LWIP_DBG_LEVEL_WARNING | LWIP_DBG_STATE)
  75:Middlewares/Third_Party/LwIP/src/apps/mqtt/mqtt.c **** #define MQTT_DEBUG_SERIOUS      (MQTT_DEBUG | LWIP_DBG_LEVEL_SERIOUS)
  76:Middlewares/Third_Party/LwIP/src/apps/mqtt/mqtt.c **** 
  77:Middlewares/Third_Party/LwIP/src/apps/mqtt/mqtt.c **** 
  78:Middlewares/Third_Party/LwIP/src/apps/mqtt/mqtt.c **** 
  79:Middlewares/Third_Party/LwIP/src/apps/mqtt/mqtt.c **** /**
  80:Middlewares/Third_Party/LwIP/src/apps/mqtt/mqtt.c ****  * MQTT client connection states
  81:Middlewares/Third_Party/LwIP/src/apps/mqtt/mqtt.c ****  */
  82:Middlewares/Third_Party/LwIP/src/apps/mqtt/mqtt.c **** enum {
  83:Middlewares/Third_Party/LwIP/src/apps/mqtt/mqtt.c ****   TCP_DISCONNECTED,
  84:Middlewares/Third_Party/LwIP/src/apps/mqtt/mqtt.c ****   TCP_CONNECTING,
  85:Middlewares/Third_Party/LwIP/src/apps/mqtt/mqtt.c ****   MQTT_CONNECTING,
  86:Middlewares/Third_Party/LwIP/src/apps/mqtt/mqtt.c ****   MQTT_CONNECTED
  87:Middlewares/Third_Party/LwIP/src/apps/mqtt/mqtt.c **** };
  88:Middlewares/Third_Party/LwIP/src/apps/mqtt/mqtt.c **** 
ARM GAS  /tmp/ccVfyJBo.s 			page 3


  89:Middlewares/Third_Party/LwIP/src/apps/mqtt/mqtt.c **** /**
  90:Middlewares/Third_Party/LwIP/src/apps/mqtt/mqtt.c ****  * MQTT control message types
  91:Middlewares/Third_Party/LwIP/src/apps/mqtt/mqtt.c ****  */
  92:Middlewares/Third_Party/LwIP/src/apps/mqtt/mqtt.c **** enum mqtt_message_type {
  93:Middlewares/Third_Party/LwIP/src/apps/mqtt/mqtt.c ****   MQTT_MSG_TYPE_CONNECT = 1,
  94:Middlewares/Third_Party/LwIP/src/apps/mqtt/mqtt.c ****   MQTT_MSG_TYPE_CONNACK = 2,
  95:Middlewares/Third_Party/LwIP/src/apps/mqtt/mqtt.c ****   MQTT_MSG_TYPE_PUBLISH = 3,
  96:Middlewares/Third_Party/LwIP/src/apps/mqtt/mqtt.c ****   MQTT_MSG_TYPE_PUBACK = 4,
  97:Middlewares/Third_Party/LwIP/src/apps/mqtt/mqtt.c ****   MQTT_MSG_TYPE_PUBREC = 5,
  98:Middlewares/Third_Party/LwIP/src/apps/mqtt/mqtt.c ****   MQTT_MSG_TYPE_PUBREL = 6,
  99:Middlewares/Third_Party/LwIP/src/apps/mqtt/mqtt.c ****   MQTT_MSG_TYPE_PUBCOMP = 7,
 100:Middlewares/Third_Party/LwIP/src/apps/mqtt/mqtt.c ****   MQTT_MSG_TYPE_SUBSCRIBE = 8,
 101:Middlewares/Third_Party/LwIP/src/apps/mqtt/mqtt.c ****   MQTT_MSG_TYPE_SUBACK = 9,
 102:Middlewares/Third_Party/LwIP/src/apps/mqtt/mqtt.c ****   MQTT_MSG_TYPE_UNSUBSCRIBE = 10,
 103:Middlewares/Third_Party/LwIP/src/apps/mqtt/mqtt.c ****   MQTT_MSG_TYPE_UNSUBACK = 11,
 104:Middlewares/Third_Party/LwIP/src/apps/mqtt/mqtt.c ****   MQTT_MSG_TYPE_PINGREQ = 12,
 105:Middlewares/Third_Party/LwIP/src/apps/mqtt/mqtt.c ****   MQTT_MSG_TYPE_PINGRESP = 13,
 106:Middlewares/Third_Party/LwIP/src/apps/mqtt/mqtt.c ****   MQTT_MSG_TYPE_DISCONNECT = 14
 107:Middlewares/Third_Party/LwIP/src/apps/mqtt/mqtt.c **** };
 108:Middlewares/Third_Party/LwIP/src/apps/mqtt/mqtt.c **** 
 109:Middlewares/Third_Party/LwIP/src/apps/mqtt/mqtt.c **** /** Helpers to extract control packet type and qos from first byte in fixed header */
 110:Middlewares/Third_Party/LwIP/src/apps/mqtt/mqtt.c **** #define MQTT_CTL_PACKET_TYPE(fixed_hdr_byte0) ((fixed_hdr_byte0 & 0xf0) >> 4)
 111:Middlewares/Third_Party/LwIP/src/apps/mqtt/mqtt.c **** #define MQTT_CTL_PACKET_QOS(fixed_hdr_byte0) ((fixed_hdr_byte0 & 0x6) >> 1)
 112:Middlewares/Third_Party/LwIP/src/apps/mqtt/mqtt.c **** 
 113:Middlewares/Third_Party/LwIP/src/apps/mqtt/mqtt.c **** /**
 114:Middlewares/Third_Party/LwIP/src/apps/mqtt/mqtt.c ****  * MQTT connect flags, only used in CONNECT message
 115:Middlewares/Third_Party/LwIP/src/apps/mqtt/mqtt.c ****  */
 116:Middlewares/Third_Party/LwIP/src/apps/mqtt/mqtt.c **** enum mqtt_connect_flag {
 117:Middlewares/Third_Party/LwIP/src/apps/mqtt/mqtt.c ****   MQTT_CONNECT_FLAG_USERNAME = 1 << 7,
 118:Middlewares/Third_Party/LwIP/src/apps/mqtt/mqtt.c ****   MQTT_CONNECT_FLAG_PASSWORD = 1 << 6,
 119:Middlewares/Third_Party/LwIP/src/apps/mqtt/mqtt.c ****   MQTT_CONNECT_FLAG_WILL_RETAIN = 1 << 5,
 120:Middlewares/Third_Party/LwIP/src/apps/mqtt/mqtt.c ****   MQTT_CONNECT_FLAG_WILL = 1 << 2,
 121:Middlewares/Third_Party/LwIP/src/apps/mqtt/mqtt.c ****   MQTT_CONNECT_FLAG_CLEAN_SESSION = 1 << 1
 122:Middlewares/Third_Party/LwIP/src/apps/mqtt/mqtt.c **** };
 123:Middlewares/Third_Party/LwIP/src/apps/mqtt/mqtt.c **** 
 124:Middlewares/Third_Party/LwIP/src/apps/mqtt/mqtt.c **** 
 125:Middlewares/Third_Party/LwIP/src/apps/mqtt/mqtt.c **** static void mqtt_cyclic_timer(void *arg);
 126:Middlewares/Third_Party/LwIP/src/apps/mqtt/mqtt.c **** 
 127:Middlewares/Third_Party/LwIP/src/apps/mqtt/mqtt.c **** #if defined(LWIP_DEBUG)
 128:Middlewares/Third_Party/LwIP/src/apps/mqtt/mqtt.c **** static const char *const mqtt_message_type_str[15] = {
 129:Middlewares/Third_Party/LwIP/src/apps/mqtt/mqtt.c ****   "UNDEFINED",
 130:Middlewares/Third_Party/LwIP/src/apps/mqtt/mqtt.c ****   "CONNECT",
 131:Middlewares/Third_Party/LwIP/src/apps/mqtt/mqtt.c ****   "CONNACK",
 132:Middlewares/Third_Party/LwIP/src/apps/mqtt/mqtt.c ****   "PUBLISH",
 133:Middlewares/Third_Party/LwIP/src/apps/mqtt/mqtt.c ****   "PUBACK",
 134:Middlewares/Third_Party/LwIP/src/apps/mqtt/mqtt.c ****   "PUBREC",
 135:Middlewares/Third_Party/LwIP/src/apps/mqtt/mqtt.c ****   "PUBREL",
 136:Middlewares/Third_Party/LwIP/src/apps/mqtt/mqtt.c ****   "PUBCOMP",
 137:Middlewares/Third_Party/LwIP/src/apps/mqtt/mqtt.c ****   "SUBSCRIBE",
 138:Middlewares/Third_Party/LwIP/src/apps/mqtt/mqtt.c ****   "SUBACK",
 139:Middlewares/Third_Party/LwIP/src/apps/mqtt/mqtt.c ****   "UNSUBSCRIBE",
 140:Middlewares/Third_Party/LwIP/src/apps/mqtt/mqtt.c ****   "UNSUBACK",
 141:Middlewares/Third_Party/LwIP/src/apps/mqtt/mqtt.c ****   "PINGREQ",
 142:Middlewares/Third_Party/LwIP/src/apps/mqtt/mqtt.c ****   "PINGRESP",
 143:Middlewares/Third_Party/LwIP/src/apps/mqtt/mqtt.c ****   "DISCONNECT"
 144:Middlewares/Third_Party/LwIP/src/apps/mqtt/mqtt.c **** };
 145:Middlewares/Third_Party/LwIP/src/apps/mqtt/mqtt.c **** 
ARM GAS  /tmp/ccVfyJBo.s 			page 4


 146:Middlewares/Third_Party/LwIP/src/apps/mqtt/mqtt.c **** /**
 147:Middlewares/Third_Party/LwIP/src/apps/mqtt/mqtt.c ****  * Message type value to string
 148:Middlewares/Third_Party/LwIP/src/apps/mqtt/mqtt.c ****  * @param msg_type see enum mqtt_message_type
 149:Middlewares/Third_Party/LwIP/src/apps/mqtt/mqtt.c ****  *
 150:Middlewares/Third_Party/LwIP/src/apps/mqtt/mqtt.c ****  * @return Control message type text string
 151:Middlewares/Third_Party/LwIP/src/apps/mqtt/mqtt.c ****  */
 152:Middlewares/Third_Party/LwIP/src/apps/mqtt/mqtt.c **** static const char *
 153:Middlewares/Third_Party/LwIP/src/apps/mqtt/mqtt.c **** mqtt_msg_type_to_str(u8_t msg_type)
 154:Middlewares/Third_Party/LwIP/src/apps/mqtt/mqtt.c **** {
 155:Middlewares/Third_Party/LwIP/src/apps/mqtt/mqtt.c ****   if (msg_type >= LWIP_ARRAYSIZE(mqtt_message_type_str)) {
 156:Middlewares/Third_Party/LwIP/src/apps/mqtt/mqtt.c ****     msg_type = 0;
 157:Middlewares/Third_Party/LwIP/src/apps/mqtt/mqtt.c ****   }
 158:Middlewares/Third_Party/LwIP/src/apps/mqtt/mqtt.c ****   return mqtt_message_type_str[msg_type];
 159:Middlewares/Third_Party/LwIP/src/apps/mqtt/mqtt.c **** }
 160:Middlewares/Third_Party/LwIP/src/apps/mqtt/mqtt.c **** 
 161:Middlewares/Third_Party/LwIP/src/apps/mqtt/mqtt.c **** #endif
 162:Middlewares/Third_Party/LwIP/src/apps/mqtt/mqtt.c **** 
 163:Middlewares/Third_Party/LwIP/src/apps/mqtt/mqtt.c **** 
 164:Middlewares/Third_Party/LwIP/src/apps/mqtt/mqtt.c **** /**
 165:Middlewares/Third_Party/LwIP/src/apps/mqtt/mqtt.c ****  * Generate MQTT packet identifier
 166:Middlewares/Third_Party/LwIP/src/apps/mqtt/mqtt.c ****  * @param client MQTT client
 167:Middlewares/Third_Party/LwIP/src/apps/mqtt/mqtt.c ****  * @return New packet identifier, range 1 to 65535
 168:Middlewares/Third_Party/LwIP/src/apps/mqtt/mqtt.c ****  */
 169:Middlewares/Third_Party/LwIP/src/apps/mqtt/mqtt.c **** static u16_t
 170:Middlewares/Third_Party/LwIP/src/apps/mqtt/mqtt.c **** msg_generate_packet_id(mqtt_client_t *client)
 171:Middlewares/Third_Party/LwIP/src/apps/mqtt/mqtt.c **** {
  28              		.loc 1 171 1 view -0
  29              		.cfi_startproc
  30              		@ args = 0, pretend = 0, frame = 0
  31              		@ frame_needed = 0, uses_anonymous_args = 0
  32              		@ link register save eliminated.
 172:Middlewares/Third_Party/LwIP/src/apps/mqtt/mqtt.c ****   client->pkt_id_seq++;
  33              		.loc 1 172 3 view .LVU1
  34              		.loc 1 172 9 is_stmt 0 view .LVU2
  35 0000 C388     		ldrh	r3, [r0, #6]
  36              		.loc 1 172 21 view .LVU3
  37 0002 0133     		adds	r3, r3, #1
  38 0004 9BB2     		uxth	r3, r3
  39 0006 C380     		strh	r3, [r0, #6]	@ movhi
 173:Middlewares/Third_Party/LwIP/src/apps/mqtt/mqtt.c ****   if (client->pkt_id_seq == 0) {
  40              		.loc 1 173 3 is_stmt 1 view .LVU4
  41              		.loc 1 173 6 is_stmt 0 view .LVU5
  42 0008 0BB9     		cbnz	r3, .L2
 174:Middlewares/Third_Party/LwIP/src/apps/mqtt/mqtt.c ****     client->pkt_id_seq++;
  43              		.loc 1 174 5 is_stmt 1 view .LVU6
  44              		.loc 1 174 23 is_stmt 0 view .LVU7
  45 000a 0133     		adds	r3, r3, #1
  46 000c C380     		strh	r3, [r0, #6]	@ movhi
  47              	.L2:
 175:Middlewares/Third_Party/LwIP/src/apps/mqtt/mqtt.c ****   }
 176:Middlewares/Third_Party/LwIP/src/apps/mqtt/mqtt.c ****   return client->pkt_id_seq;
  48              		.loc 1 176 3 is_stmt 1 view .LVU8
 177:Middlewares/Third_Party/LwIP/src/apps/mqtt/mqtt.c **** }
  49              		.loc 1 177 1 is_stmt 0 view .LVU9
  50 000e C088     		ldrh	r0, [r0, #6]
  51              	.LVL1:
  52              		.loc 1 177 1 view .LVU10
ARM GAS  /tmp/ccVfyJBo.s 			page 5


  53 0010 7047     		bx	lr
  54              		.cfi_endproc
  55              	.LFE167:
  57              		.section	.text.mqtt_ringbuf_put,"ax",%progbits
  58              		.align	1
  59              		.syntax unified
  60              		.thumb
  61              		.thumb_func
  63              	mqtt_ringbuf_put:
  64              	.LVL2:
  65              	.LFB168:
 178:Middlewares/Third_Party/LwIP/src/apps/mqtt/mqtt.c **** 
 179:Middlewares/Third_Party/LwIP/src/apps/mqtt/mqtt.c **** /*-------------------------------------------------------------------------------------------------
 180:Middlewares/Third_Party/LwIP/src/apps/mqtt/mqtt.c **** /* Output ring buffer */
 181:Middlewares/Third_Party/LwIP/src/apps/mqtt/mqtt.c **** 
 182:Middlewares/Third_Party/LwIP/src/apps/mqtt/mqtt.c **** /** Add single item to ring buffer */
 183:Middlewares/Third_Party/LwIP/src/apps/mqtt/mqtt.c **** static void
 184:Middlewares/Third_Party/LwIP/src/apps/mqtt/mqtt.c **** mqtt_ringbuf_put(struct mqtt_ringbuf_t *rb, u8_t item)
 185:Middlewares/Third_Party/LwIP/src/apps/mqtt/mqtt.c **** {
  66              		.loc 1 185 1 is_stmt 1 view -0
  67              		.cfi_startproc
  68              		@ args = 0, pretend = 0, frame = 0
  69              		@ frame_needed = 0, uses_anonymous_args = 0
  70              		@ link register save eliminated.
 186:Middlewares/Third_Party/LwIP/src/apps/mqtt/mqtt.c ****   rb->buf[rb->put] = item;
  71              		.loc 1 186 3 view .LVU12
  72              		.loc 1 186 13 is_stmt 0 view .LVU13
  73 0000 0388     		ldrh	r3, [r0]
  74              		.loc 1 186 20 view .LVU14
  75 0002 C218     		adds	r2, r0, r3
  76 0004 1171     		strb	r1, [r2, #4]
 187:Middlewares/Third_Party/LwIP/src/apps/mqtt/mqtt.c ****   rb->put++;
  77              		.loc 1 187 3 is_stmt 1 view .LVU15
  78              		.loc 1 187 10 is_stmt 0 view .LVU16
  79 0006 0133     		adds	r3, r3, #1
  80 0008 9BB2     		uxth	r3, r3
  81 000a 0380     		strh	r3, [r0]	@ movhi
 188:Middlewares/Third_Party/LwIP/src/apps/mqtt/mqtt.c ****   if (rb->put >= MQTT_OUTPUT_RINGBUF_SIZE) {
  82              		.loc 1 188 3 is_stmt 1 view .LVU17
  83              		.loc 1 188 6 is_stmt 0 view .LVU18
  84 000c FF2B     		cmp	r3, #255
  85 000e 01D9     		bls	.L3
 189:Middlewares/Third_Party/LwIP/src/apps/mqtt/mqtt.c ****     rb->put = 0;
  86              		.loc 1 189 5 is_stmt 1 view .LVU19
  87              		.loc 1 189 13 is_stmt 0 view .LVU20
  88 0010 0023     		movs	r3, #0
  89 0012 0380     		strh	r3, [r0]	@ movhi
  90              	.L3:
 190:Middlewares/Third_Party/LwIP/src/apps/mqtt/mqtt.c ****   }
 191:Middlewares/Third_Party/LwIP/src/apps/mqtt/mqtt.c **** }
  91              		.loc 1 191 1 view .LVU21
  92 0014 7047     		bx	lr
  93              		.cfi_endproc
  94              	.LFE168:
  96              		.section	.text.mqtt_ringbuf_get_ptr,"ax",%progbits
  97              		.align	1
  98              		.syntax unified
ARM GAS  /tmp/ccVfyJBo.s 			page 6


  99              		.thumb
 100              		.thumb_func
 102              	mqtt_ringbuf_get_ptr:
 103              	.LVL3:
 104              	.LFB169:
 192:Middlewares/Third_Party/LwIP/src/apps/mqtt/mqtt.c **** 
 193:Middlewares/Third_Party/LwIP/src/apps/mqtt/mqtt.c **** /** Return pointer to ring buffer get position */
 194:Middlewares/Third_Party/LwIP/src/apps/mqtt/mqtt.c **** static u8_t *
 195:Middlewares/Third_Party/LwIP/src/apps/mqtt/mqtt.c **** mqtt_ringbuf_get_ptr(struct mqtt_ringbuf_t *rb)
 196:Middlewares/Third_Party/LwIP/src/apps/mqtt/mqtt.c **** {
 105              		.loc 1 196 1 is_stmt 1 view -0
 106              		.cfi_startproc
 107              		@ args = 0, pretend = 0, frame = 0
 108              		@ frame_needed = 0, uses_anonymous_args = 0
 109              		@ link register save eliminated.
 197:Middlewares/Third_Party/LwIP/src/apps/mqtt/mqtt.c ****   return &rb->buf[rb->get];
 110              		.loc 1 197 3 view .LVU23
 111              		.loc 1 197 21 is_stmt 0 view .LVU24
 112 0000 4388     		ldrh	r3, [r0, #2]
 113              		.loc 1 197 10 view .LVU25
 114 0002 1844     		add	r0, r0, r3
 115              	.LVL4:
 198:Middlewares/Third_Party/LwIP/src/apps/mqtt/mqtt.c **** }
 116              		.loc 1 198 1 view .LVU26
 117 0004 0430     		adds	r0, r0, #4
 118 0006 7047     		bx	lr
 119              		.cfi_endproc
 120              	.LFE169:
 122              		.section	.text.mqtt_ringbuf_len,"ax",%progbits
 123              		.align	1
 124              		.syntax unified
 125              		.thumb
 126              		.thumb_func
 128              	mqtt_ringbuf_len:
 129              	.LVL5:
 130              	.LFB171:
 199:Middlewares/Third_Party/LwIP/src/apps/mqtt/mqtt.c **** 
 200:Middlewares/Third_Party/LwIP/src/apps/mqtt/mqtt.c **** static void
 201:Middlewares/Third_Party/LwIP/src/apps/mqtt/mqtt.c **** mqtt_ringbuf_advance_get_idx(struct mqtt_ringbuf_t *rb, u16_t len)
 202:Middlewares/Third_Party/LwIP/src/apps/mqtt/mqtt.c **** {
 203:Middlewares/Third_Party/LwIP/src/apps/mqtt/mqtt.c ****   LWIP_ASSERT("mqtt_ringbuf_advance_get_idx: len < MQTT_OUTPUT_RINGBUF_SIZE", len < MQTT_OUTPUT_RIN
 204:Middlewares/Third_Party/LwIP/src/apps/mqtt/mqtt.c **** 
 205:Middlewares/Third_Party/LwIP/src/apps/mqtt/mqtt.c ****   rb->get += len;
 206:Middlewares/Third_Party/LwIP/src/apps/mqtt/mqtt.c ****   if (rb->get >= MQTT_OUTPUT_RINGBUF_SIZE) {
 207:Middlewares/Third_Party/LwIP/src/apps/mqtt/mqtt.c ****     rb->get = rb->get - MQTT_OUTPUT_RINGBUF_SIZE;
 208:Middlewares/Third_Party/LwIP/src/apps/mqtt/mqtt.c ****   }
 209:Middlewares/Third_Party/LwIP/src/apps/mqtt/mqtt.c **** }
 210:Middlewares/Third_Party/LwIP/src/apps/mqtt/mqtt.c **** 
 211:Middlewares/Third_Party/LwIP/src/apps/mqtt/mqtt.c **** /** Return number of bytes in ring buffer */
 212:Middlewares/Third_Party/LwIP/src/apps/mqtt/mqtt.c **** static u16_t
 213:Middlewares/Third_Party/LwIP/src/apps/mqtt/mqtt.c **** mqtt_ringbuf_len(struct mqtt_ringbuf_t *rb)
 214:Middlewares/Third_Party/LwIP/src/apps/mqtt/mqtt.c **** {
 131              		.loc 1 214 1 is_stmt 1 view -0
 132              		.cfi_startproc
 133              		@ args = 0, pretend = 0, frame = 0
 134              		@ frame_needed = 0, uses_anonymous_args = 0
 135              		@ link register save eliminated.
ARM GAS  /tmp/ccVfyJBo.s 			page 7


 215:Middlewares/Third_Party/LwIP/src/apps/mqtt/mqtt.c ****   u32_t len = rb->put - rb->get;
 136              		.loc 1 215 3 view .LVU28
 137              		.loc 1 215 17 is_stmt 0 view .LVU29
 138 0000 0388     		ldrh	r3, [r0]
 139              		.loc 1 215 27 view .LVU30
 140 0002 4088     		ldrh	r0, [r0, #2]
 141              	.LVL6:
 142              		.loc 1 215 23 view .LVU31
 143 0004 181A     		subs	r0, r3, r0
 144              	.LVL7:
 216:Middlewares/Third_Party/LwIP/src/apps/mqtt/mqtt.c ****   if (len > 0xFFFF) {
 145              		.loc 1 216 3 is_stmt 1 view .LVU32
 146              		.loc 1 216 6 is_stmt 0 view .LVU33
 147 0006 B0F5803F 		cmp	r0, #65536
 148 000a 01D3     		bcc	.L7
 217:Middlewares/Third_Party/LwIP/src/apps/mqtt/mqtt.c ****     len += MQTT_OUTPUT_RINGBUF_SIZE;
 149              		.loc 1 217 5 is_stmt 1 view .LVU34
 150              		.loc 1 217 9 is_stmt 0 view .LVU35
 151 000c 00F58070 		add	r0, r0, #256
 152              	.LVL8:
 153              	.L7:
 218:Middlewares/Third_Party/LwIP/src/apps/mqtt/mqtt.c ****   }
 219:Middlewares/Third_Party/LwIP/src/apps/mqtt/mqtt.c ****   return (u16_t)len;
 154              		.loc 1 219 3 is_stmt 1 view .LVU36
 220:Middlewares/Third_Party/LwIP/src/apps/mqtt/mqtt.c **** }
 155              		.loc 1 220 1 is_stmt 0 view .LVU37
 156 0010 80B2     		uxth	r0, r0
 157              	.LVL9:
 158              		.loc 1 220 1 view .LVU38
 159 0012 7047     		bx	lr
 160              		.cfi_endproc
 161              	.LFE171:
 163              		.section	.text.mqtt_delete_request,"ax",%progbits
 164              		.align	1
 165              		.syntax unified
 166              		.thumb
 167              		.thumb_func
 169              	mqtt_delete_request:
 170              	.LVL10:
 171              	.LFB175:
 221:Middlewares/Third_Party/LwIP/src/apps/mqtt/mqtt.c **** 
 222:Middlewares/Third_Party/LwIP/src/apps/mqtt/mqtt.c **** /** Return number of bytes free in ring buffer */
 223:Middlewares/Third_Party/LwIP/src/apps/mqtt/mqtt.c **** #define mqtt_ringbuf_free(rb) (MQTT_OUTPUT_RINGBUF_SIZE - mqtt_ringbuf_len(rb))
 224:Middlewares/Third_Party/LwIP/src/apps/mqtt/mqtt.c **** 
 225:Middlewares/Third_Party/LwIP/src/apps/mqtt/mqtt.c **** /** Return number of bytes possible to read without wrapping around */
 226:Middlewares/Third_Party/LwIP/src/apps/mqtt/mqtt.c **** #define mqtt_ringbuf_linear_read_length(rb) LWIP_MIN(mqtt_ringbuf_len(rb), (MQTT_OUTPUT_RINGBUF_SIZ
 227:Middlewares/Third_Party/LwIP/src/apps/mqtt/mqtt.c **** 
 228:Middlewares/Third_Party/LwIP/src/apps/mqtt/mqtt.c **** /**
 229:Middlewares/Third_Party/LwIP/src/apps/mqtt/mqtt.c ****  * Try send as many bytes as possible from output ring buffer
 230:Middlewares/Third_Party/LwIP/src/apps/mqtt/mqtt.c ****  * @param rb Output ring buffer
 231:Middlewares/Third_Party/LwIP/src/apps/mqtt/mqtt.c ****  * @param tpcb TCP connection handle
 232:Middlewares/Third_Party/LwIP/src/apps/mqtt/mqtt.c ****  */
 233:Middlewares/Third_Party/LwIP/src/apps/mqtt/mqtt.c **** static void
 234:Middlewares/Third_Party/LwIP/src/apps/mqtt/mqtt.c **** mqtt_output_send(struct mqtt_ringbuf_t *rb, struct altcp_pcb *tpcb)
 235:Middlewares/Third_Party/LwIP/src/apps/mqtt/mqtt.c **** {
 236:Middlewares/Third_Party/LwIP/src/apps/mqtt/mqtt.c ****   err_t err;
 237:Middlewares/Third_Party/LwIP/src/apps/mqtt/mqtt.c ****   u8_t wrap = 0;
ARM GAS  /tmp/ccVfyJBo.s 			page 8


 238:Middlewares/Third_Party/LwIP/src/apps/mqtt/mqtt.c ****   u16_t ringbuf_lin_len = mqtt_ringbuf_linear_read_length(rb);
 239:Middlewares/Third_Party/LwIP/src/apps/mqtt/mqtt.c ****   u16_t send_len = altcp_sndbuf(tpcb);
 240:Middlewares/Third_Party/LwIP/src/apps/mqtt/mqtt.c ****   LWIP_ASSERT("mqtt_output_send: tpcb != NULL", tpcb != NULL);
 241:Middlewares/Third_Party/LwIP/src/apps/mqtt/mqtt.c **** 
 242:Middlewares/Third_Party/LwIP/src/apps/mqtt/mqtt.c ****   if (send_len == 0 || ringbuf_lin_len == 0) {
 243:Middlewares/Third_Party/LwIP/src/apps/mqtt/mqtt.c ****     return;
 244:Middlewares/Third_Party/LwIP/src/apps/mqtt/mqtt.c ****   }
 245:Middlewares/Third_Party/LwIP/src/apps/mqtt/mqtt.c **** 
 246:Middlewares/Third_Party/LwIP/src/apps/mqtt/mqtt.c ****   LWIP_DEBUGF(MQTT_DEBUG_TRACE, ("mqtt_output_send: tcp_sndbuf: %d bytes, ringbuf_linear_available:
 247:Middlewares/Third_Party/LwIP/src/apps/mqtt/mqtt.c ****                                  send_len, ringbuf_lin_len, rb->get, rb->put));
 248:Middlewares/Third_Party/LwIP/src/apps/mqtt/mqtt.c **** 
 249:Middlewares/Third_Party/LwIP/src/apps/mqtt/mqtt.c ****   if (send_len > ringbuf_lin_len) {
 250:Middlewares/Third_Party/LwIP/src/apps/mqtt/mqtt.c ****     /* Space in TCP output buffer is larger than available in ring buffer linear portion */
 251:Middlewares/Third_Party/LwIP/src/apps/mqtt/mqtt.c ****     send_len = ringbuf_lin_len;
 252:Middlewares/Third_Party/LwIP/src/apps/mqtt/mqtt.c ****     /* Wrap around if more data in ring buffer after linear portion */
 253:Middlewares/Third_Party/LwIP/src/apps/mqtt/mqtt.c ****     wrap = (mqtt_ringbuf_len(rb) > ringbuf_lin_len);
 254:Middlewares/Third_Party/LwIP/src/apps/mqtt/mqtt.c ****   }
 255:Middlewares/Third_Party/LwIP/src/apps/mqtt/mqtt.c ****   err = altcp_write(tpcb, mqtt_ringbuf_get_ptr(rb), send_len, TCP_WRITE_FLAG_COPY | (wrap ? TCP_WRI
 256:Middlewares/Third_Party/LwIP/src/apps/mqtt/mqtt.c ****   if ((err == ERR_OK) && wrap) {
 257:Middlewares/Third_Party/LwIP/src/apps/mqtt/mqtt.c ****     mqtt_ringbuf_advance_get_idx(rb, send_len);
 258:Middlewares/Third_Party/LwIP/src/apps/mqtt/mqtt.c ****     /* Use the lesser one of ring buffer linear length and TCP send buffer size */
 259:Middlewares/Third_Party/LwIP/src/apps/mqtt/mqtt.c ****     send_len = LWIP_MIN(altcp_sndbuf(tpcb), mqtt_ringbuf_linear_read_length(rb));
 260:Middlewares/Third_Party/LwIP/src/apps/mqtt/mqtt.c ****     err = altcp_write(tpcb, mqtt_ringbuf_get_ptr(rb), send_len, TCP_WRITE_FLAG_COPY);
 261:Middlewares/Third_Party/LwIP/src/apps/mqtt/mqtt.c ****   }
 262:Middlewares/Third_Party/LwIP/src/apps/mqtt/mqtt.c **** 
 263:Middlewares/Third_Party/LwIP/src/apps/mqtt/mqtt.c ****   if (err == ERR_OK) {
 264:Middlewares/Third_Party/LwIP/src/apps/mqtt/mqtt.c ****     mqtt_ringbuf_advance_get_idx(rb, send_len);
 265:Middlewares/Third_Party/LwIP/src/apps/mqtt/mqtt.c ****     /* Flush */
 266:Middlewares/Third_Party/LwIP/src/apps/mqtt/mqtt.c ****     altcp_output(tpcb);
 267:Middlewares/Third_Party/LwIP/src/apps/mqtt/mqtt.c ****   } else {
 268:Middlewares/Third_Party/LwIP/src/apps/mqtt/mqtt.c ****     LWIP_DEBUGF(MQTT_DEBUG_WARN, ("mqtt_output_send: Send failed with err %d (\"%s\")\n", err, lwip
 269:Middlewares/Third_Party/LwIP/src/apps/mqtt/mqtt.c ****   }
 270:Middlewares/Third_Party/LwIP/src/apps/mqtt/mqtt.c **** }
 271:Middlewares/Third_Party/LwIP/src/apps/mqtt/mqtt.c **** 
 272:Middlewares/Third_Party/LwIP/src/apps/mqtt/mqtt.c **** 
 273:Middlewares/Third_Party/LwIP/src/apps/mqtt/mqtt.c **** 
 274:Middlewares/Third_Party/LwIP/src/apps/mqtt/mqtt.c **** /*-------------------------------------------------------------------------------------------------
 275:Middlewares/Third_Party/LwIP/src/apps/mqtt/mqtt.c **** /* Request queue */
 276:Middlewares/Third_Party/LwIP/src/apps/mqtt/mqtt.c **** 
 277:Middlewares/Third_Party/LwIP/src/apps/mqtt/mqtt.c **** /**
 278:Middlewares/Third_Party/LwIP/src/apps/mqtt/mqtt.c ****  * Create request item
 279:Middlewares/Third_Party/LwIP/src/apps/mqtt/mqtt.c ****  * @param r_objs Pointer to request objects
 280:Middlewares/Third_Party/LwIP/src/apps/mqtt/mqtt.c ****  * @param r_objs_len Number of array entries
 281:Middlewares/Third_Party/LwIP/src/apps/mqtt/mqtt.c ****  * @param pkt_id Packet identifier of request
 282:Middlewares/Third_Party/LwIP/src/apps/mqtt/mqtt.c ****  * @param cb Packet callback to call when requests lifetime ends
 283:Middlewares/Third_Party/LwIP/src/apps/mqtt/mqtt.c ****  * @param arg Parameter following callback
 284:Middlewares/Third_Party/LwIP/src/apps/mqtt/mqtt.c ****  * @return Request or NULL if failed to create
 285:Middlewares/Third_Party/LwIP/src/apps/mqtt/mqtt.c ****  */
 286:Middlewares/Third_Party/LwIP/src/apps/mqtt/mqtt.c **** static struct mqtt_request_t *
 287:Middlewares/Third_Party/LwIP/src/apps/mqtt/mqtt.c **** mqtt_create_request(struct mqtt_request_t *r_objs, size_t r_objs_len, u16_t pkt_id, mqtt_request_cb
 288:Middlewares/Third_Party/LwIP/src/apps/mqtt/mqtt.c **** {
 289:Middlewares/Third_Party/LwIP/src/apps/mqtt/mqtt.c ****   struct mqtt_request_t *r = NULL;
 290:Middlewares/Third_Party/LwIP/src/apps/mqtt/mqtt.c ****   u8_t n;
 291:Middlewares/Third_Party/LwIP/src/apps/mqtt/mqtt.c ****   LWIP_ASSERT("mqtt_create_request: r_objs != NULL", r_objs != NULL);
 292:Middlewares/Third_Party/LwIP/src/apps/mqtt/mqtt.c ****   for (n = 0; n < r_objs_len; n++) {
 293:Middlewares/Third_Party/LwIP/src/apps/mqtt/mqtt.c ****     /* Item point to itself if not in use */
 294:Middlewares/Third_Party/LwIP/src/apps/mqtt/mqtt.c ****     if (r_objs[n].next == &r_objs[n]) {
ARM GAS  /tmp/ccVfyJBo.s 			page 9


 295:Middlewares/Third_Party/LwIP/src/apps/mqtt/mqtt.c ****       r = &r_objs[n];
 296:Middlewares/Third_Party/LwIP/src/apps/mqtt/mqtt.c ****       r->next = NULL;
 297:Middlewares/Third_Party/LwIP/src/apps/mqtt/mqtt.c ****       r->cb = cb;
 298:Middlewares/Third_Party/LwIP/src/apps/mqtt/mqtt.c ****       r->arg = arg;
 299:Middlewares/Third_Party/LwIP/src/apps/mqtt/mqtt.c ****       r->pkt_id = pkt_id;
 300:Middlewares/Third_Party/LwIP/src/apps/mqtt/mqtt.c ****       break;
 301:Middlewares/Third_Party/LwIP/src/apps/mqtt/mqtt.c ****     }
 302:Middlewares/Third_Party/LwIP/src/apps/mqtt/mqtt.c ****   }
 303:Middlewares/Third_Party/LwIP/src/apps/mqtt/mqtt.c ****   return r;
 304:Middlewares/Third_Party/LwIP/src/apps/mqtt/mqtt.c **** }
 305:Middlewares/Third_Party/LwIP/src/apps/mqtt/mqtt.c **** 
 306:Middlewares/Third_Party/LwIP/src/apps/mqtt/mqtt.c **** 
 307:Middlewares/Third_Party/LwIP/src/apps/mqtt/mqtt.c **** /**
 308:Middlewares/Third_Party/LwIP/src/apps/mqtt/mqtt.c ****  * Append request to pending request queue
 309:Middlewares/Third_Party/LwIP/src/apps/mqtt/mqtt.c ****  * @param tail Pointer to request queue tail pointer
 310:Middlewares/Third_Party/LwIP/src/apps/mqtt/mqtt.c ****  * @param r Request to append
 311:Middlewares/Third_Party/LwIP/src/apps/mqtt/mqtt.c ****  */
 312:Middlewares/Third_Party/LwIP/src/apps/mqtt/mqtt.c **** static void
 313:Middlewares/Third_Party/LwIP/src/apps/mqtt/mqtt.c **** mqtt_append_request(struct mqtt_request_t **tail, struct mqtt_request_t *r)
 314:Middlewares/Third_Party/LwIP/src/apps/mqtt/mqtt.c **** {
 315:Middlewares/Third_Party/LwIP/src/apps/mqtt/mqtt.c ****   struct mqtt_request_t *head = NULL;
 316:Middlewares/Third_Party/LwIP/src/apps/mqtt/mqtt.c ****   s16_t time_before = 0;
 317:Middlewares/Third_Party/LwIP/src/apps/mqtt/mqtt.c ****   struct mqtt_request_t *iter;
 318:Middlewares/Third_Party/LwIP/src/apps/mqtt/mqtt.c **** 
 319:Middlewares/Third_Party/LwIP/src/apps/mqtt/mqtt.c ****   LWIP_ASSERT("mqtt_append_request: tail != NULL", tail != NULL);
 320:Middlewares/Third_Party/LwIP/src/apps/mqtt/mqtt.c **** 
 321:Middlewares/Third_Party/LwIP/src/apps/mqtt/mqtt.c ****   /* Iterate trough queue to find head, and count total timeout time */
 322:Middlewares/Third_Party/LwIP/src/apps/mqtt/mqtt.c ****   for (iter = *tail; iter != NULL; iter = iter->next) {
 323:Middlewares/Third_Party/LwIP/src/apps/mqtt/mqtt.c ****     time_before += iter->timeout_diff;
 324:Middlewares/Third_Party/LwIP/src/apps/mqtt/mqtt.c ****     head = iter;
 325:Middlewares/Third_Party/LwIP/src/apps/mqtt/mqtt.c ****   }
 326:Middlewares/Third_Party/LwIP/src/apps/mqtt/mqtt.c **** 
 327:Middlewares/Third_Party/LwIP/src/apps/mqtt/mqtt.c ****   LWIP_ASSERT("mqtt_append_request: time_before <= MQTT_REQ_TIMEOUT", time_before <= MQTT_REQ_TIMEO
 328:Middlewares/Third_Party/LwIP/src/apps/mqtt/mqtt.c ****   r->timeout_diff = MQTT_REQ_TIMEOUT - time_before;
 329:Middlewares/Third_Party/LwIP/src/apps/mqtt/mqtt.c ****   if (head == NULL) {
 330:Middlewares/Third_Party/LwIP/src/apps/mqtt/mqtt.c ****     *tail = r;
 331:Middlewares/Third_Party/LwIP/src/apps/mqtt/mqtt.c ****   } else {
 332:Middlewares/Third_Party/LwIP/src/apps/mqtt/mqtt.c ****     head->next = r;
 333:Middlewares/Third_Party/LwIP/src/apps/mqtt/mqtt.c ****   }
 334:Middlewares/Third_Party/LwIP/src/apps/mqtt/mqtt.c **** }
 335:Middlewares/Third_Party/LwIP/src/apps/mqtt/mqtt.c **** 
 336:Middlewares/Third_Party/LwIP/src/apps/mqtt/mqtt.c **** 
 337:Middlewares/Third_Party/LwIP/src/apps/mqtt/mqtt.c **** /**
 338:Middlewares/Third_Party/LwIP/src/apps/mqtt/mqtt.c ****  * Delete request item
 339:Middlewares/Third_Party/LwIP/src/apps/mqtt/mqtt.c ****  * @param r Request item to delete
 340:Middlewares/Third_Party/LwIP/src/apps/mqtt/mqtt.c ****  */
 341:Middlewares/Third_Party/LwIP/src/apps/mqtt/mqtt.c **** static void
 342:Middlewares/Third_Party/LwIP/src/apps/mqtt/mqtt.c **** mqtt_delete_request(struct mqtt_request_t *r)
 343:Middlewares/Third_Party/LwIP/src/apps/mqtt/mqtt.c **** {
 172              		.loc 1 343 1 is_stmt 1 view -0
 173              		.cfi_startproc
 174              		@ args = 0, pretend = 0, frame = 0
 175              		@ frame_needed = 0, uses_anonymous_args = 0
 176              		@ link register save eliminated.
 344:Middlewares/Third_Party/LwIP/src/apps/mqtt/mqtt.c ****   if (r != NULL) {
 177              		.loc 1 344 3 view .LVU40
 178              		.loc 1 344 6 is_stmt 0 view .LVU41
ARM GAS  /tmp/ccVfyJBo.s 			page 10


 179 0000 0346     		mov	r3, r0
 180 0002 00B1     		cbz	r0, .L8
 345:Middlewares/Third_Party/LwIP/src/apps/mqtt/mqtt.c ****     r->next = r;
 181              		.loc 1 345 5 is_stmt 1 view .LVU42
 182              		.loc 1 345 13 is_stmt 0 view .LVU43
 183 0004 1860     		str	r0, [r3]
 184              	.L8:
 346:Middlewares/Third_Party/LwIP/src/apps/mqtt/mqtt.c ****   }
 347:Middlewares/Third_Party/LwIP/src/apps/mqtt/mqtt.c **** }
 185              		.loc 1 347 1 view .LVU44
 186 0006 7047     		bx	lr
 187              		.cfi_endproc
 188              	.LFE175:
 190              		.section	.text.mqtt_output_append_u8,"ax",%progbits
 191              		.align	1
 192              		.syntax unified
 193              		.thumb
 194              		.thumb_func
 196              	mqtt_output_append_u8:
 197              	.LVL11:
 198              	.LFB180:
 348:Middlewares/Third_Party/LwIP/src/apps/mqtt/mqtt.c **** 
 349:Middlewares/Third_Party/LwIP/src/apps/mqtt/mqtt.c **** /**
 350:Middlewares/Third_Party/LwIP/src/apps/mqtt/mqtt.c ****  * Remove a request item with a specific packet identifier from request queue
 351:Middlewares/Third_Party/LwIP/src/apps/mqtt/mqtt.c ****  * @param tail Pointer to request queue tail pointer
 352:Middlewares/Third_Party/LwIP/src/apps/mqtt/mqtt.c ****  * @param pkt_id Packet identifier of request to take
 353:Middlewares/Third_Party/LwIP/src/apps/mqtt/mqtt.c ****  * @return Request item if found, NULL if not
 354:Middlewares/Third_Party/LwIP/src/apps/mqtt/mqtt.c ****  */
 355:Middlewares/Third_Party/LwIP/src/apps/mqtt/mqtt.c **** static struct mqtt_request_t *
 356:Middlewares/Third_Party/LwIP/src/apps/mqtt/mqtt.c **** mqtt_take_request(struct mqtt_request_t **tail, u16_t pkt_id)
 357:Middlewares/Third_Party/LwIP/src/apps/mqtt/mqtt.c **** {
 358:Middlewares/Third_Party/LwIP/src/apps/mqtt/mqtt.c ****   struct mqtt_request_t *iter = NULL, *prev = NULL;
 359:Middlewares/Third_Party/LwIP/src/apps/mqtt/mqtt.c ****   LWIP_ASSERT("mqtt_take_request: tail != NULL", tail != NULL);
 360:Middlewares/Third_Party/LwIP/src/apps/mqtt/mqtt.c ****   /* Search all request for pkt_id */
 361:Middlewares/Third_Party/LwIP/src/apps/mqtt/mqtt.c ****   for (iter = *tail; iter != NULL; iter = iter->next) {
 362:Middlewares/Third_Party/LwIP/src/apps/mqtt/mqtt.c ****     if (iter->pkt_id == pkt_id) {
 363:Middlewares/Third_Party/LwIP/src/apps/mqtt/mqtt.c ****       break;
 364:Middlewares/Third_Party/LwIP/src/apps/mqtt/mqtt.c ****     }
 365:Middlewares/Third_Party/LwIP/src/apps/mqtt/mqtt.c ****     prev = iter;
 366:Middlewares/Third_Party/LwIP/src/apps/mqtt/mqtt.c ****   }
 367:Middlewares/Third_Party/LwIP/src/apps/mqtt/mqtt.c **** 
 368:Middlewares/Third_Party/LwIP/src/apps/mqtt/mqtt.c ****   /* If request was found */
 369:Middlewares/Third_Party/LwIP/src/apps/mqtt/mqtt.c ****   if (iter != NULL) {
 370:Middlewares/Third_Party/LwIP/src/apps/mqtt/mqtt.c ****     /* unchain */
 371:Middlewares/Third_Party/LwIP/src/apps/mqtt/mqtt.c ****     if (prev == NULL) {
 372:Middlewares/Third_Party/LwIP/src/apps/mqtt/mqtt.c ****       *tail = iter->next;
 373:Middlewares/Third_Party/LwIP/src/apps/mqtt/mqtt.c ****     } else {
 374:Middlewares/Third_Party/LwIP/src/apps/mqtt/mqtt.c ****       prev->next = iter->next;
 375:Middlewares/Third_Party/LwIP/src/apps/mqtt/mqtt.c ****     }
 376:Middlewares/Third_Party/LwIP/src/apps/mqtt/mqtt.c ****     /* If exists, add remaining timeout time for the request to next */
 377:Middlewares/Third_Party/LwIP/src/apps/mqtt/mqtt.c ****     if (iter->next != NULL) {
 378:Middlewares/Third_Party/LwIP/src/apps/mqtt/mqtt.c ****       iter->next->timeout_diff += iter->timeout_diff;
 379:Middlewares/Third_Party/LwIP/src/apps/mqtt/mqtt.c ****     }
 380:Middlewares/Third_Party/LwIP/src/apps/mqtt/mqtt.c ****     iter->next = NULL;
 381:Middlewares/Third_Party/LwIP/src/apps/mqtt/mqtt.c ****   }
 382:Middlewares/Third_Party/LwIP/src/apps/mqtt/mqtt.c ****   return iter;
 383:Middlewares/Third_Party/LwIP/src/apps/mqtt/mqtt.c **** }
ARM GAS  /tmp/ccVfyJBo.s 			page 11


 384:Middlewares/Third_Party/LwIP/src/apps/mqtt/mqtt.c **** 
 385:Middlewares/Third_Party/LwIP/src/apps/mqtt/mqtt.c **** /**
 386:Middlewares/Third_Party/LwIP/src/apps/mqtt/mqtt.c ****  * Handle requests timeout
 387:Middlewares/Third_Party/LwIP/src/apps/mqtt/mqtt.c ****  * @param tail Pointer to request queue tail pointer
 388:Middlewares/Third_Party/LwIP/src/apps/mqtt/mqtt.c ****  * @param t Time since last call in seconds
 389:Middlewares/Third_Party/LwIP/src/apps/mqtt/mqtt.c ****  */
 390:Middlewares/Third_Party/LwIP/src/apps/mqtt/mqtt.c **** static void
 391:Middlewares/Third_Party/LwIP/src/apps/mqtt/mqtt.c **** mqtt_request_time_elapsed(struct mqtt_request_t **tail, u8_t t)
 392:Middlewares/Third_Party/LwIP/src/apps/mqtt/mqtt.c **** {
 393:Middlewares/Third_Party/LwIP/src/apps/mqtt/mqtt.c ****   struct mqtt_request_t *r;
 394:Middlewares/Third_Party/LwIP/src/apps/mqtt/mqtt.c ****   LWIP_ASSERT("mqtt_request_time_elapsed: tail != NULL", tail != NULL);
 395:Middlewares/Third_Party/LwIP/src/apps/mqtt/mqtt.c ****   r = *tail;
 396:Middlewares/Third_Party/LwIP/src/apps/mqtt/mqtt.c ****   while (t > 0 && r != NULL) {
 397:Middlewares/Third_Party/LwIP/src/apps/mqtt/mqtt.c ****     if (t >= r->timeout_diff) {
 398:Middlewares/Third_Party/LwIP/src/apps/mqtt/mqtt.c ****       t -= (u8_t)r->timeout_diff;
 399:Middlewares/Third_Party/LwIP/src/apps/mqtt/mqtt.c ****       /* Unchain */
 400:Middlewares/Third_Party/LwIP/src/apps/mqtt/mqtt.c ****       *tail = r->next;
 401:Middlewares/Third_Party/LwIP/src/apps/mqtt/mqtt.c ****       /* Notify upper layer about timeout */
 402:Middlewares/Third_Party/LwIP/src/apps/mqtt/mqtt.c ****       if (r->cb != NULL) {
 403:Middlewares/Third_Party/LwIP/src/apps/mqtt/mqtt.c ****         r->cb(r->arg, ERR_TIMEOUT);
 404:Middlewares/Third_Party/LwIP/src/apps/mqtt/mqtt.c ****       }
 405:Middlewares/Third_Party/LwIP/src/apps/mqtt/mqtt.c ****       mqtt_delete_request(r);
 406:Middlewares/Third_Party/LwIP/src/apps/mqtt/mqtt.c ****       /* Tail might be be modified in callback, so re-read it in every iteration */
 407:Middlewares/Third_Party/LwIP/src/apps/mqtt/mqtt.c ****       r = *(struct mqtt_request_t *const volatile *)tail;
 408:Middlewares/Third_Party/LwIP/src/apps/mqtt/mqtt.c ****     } else {
 409:Middlewares/Third_Party/LwIP/src/apps/mqtt/mqtt.c ****       r->timeout_diff -= t;
 410:Middlewares/Third_Party/LwIP/src/apps/mqtt/mqtt.c ****       t = 0;
 411:Middlewares/Third_Party/LwIP/src/apps/mqtt/mqtt.c ****     }
 412:Middlewares/Third_Party/LwIP/src/apps/mqtt/mqtt.c ****   }
 413:Middlewares/Third_Party/LwIP/src/apps/mqtt/mqtt.c **** }
 414:Middlewares/Third_Party/LwIP/src/apps/mqtt/mqtt.c **** 
 415:Middlewares/Third_Party/LwIP/src/apps/mqtt/mqtt.c **** /**
 416:Middlewares/Third_Party/LwIP/src/apps/mqtt/mqtt.c ****  * Free all request items
 417:Middlewares/Third_Party/LwIP/src/apps/mqtt/mqtt.c ****  * @param tail Pointer to request queue tail pointer
 418:Middlewares/Third_Party/LwIP/src/apps/mqtt/mqtt.c ****  */
 419:Middlewares/Third_Party/LwIP/src/apps/mqtt/mqtt.c **** static void
 420:Middlewares/Third_Party/LwIP/src/apps/mqtt/mqtt.c **** mqtt_clear_requests(struct mqtt_request_t **tail)
 421:Middlewares/Third_Party/LwIP/src/apps/mqtt/mqtt.c **** {
 422:Middlewares/Third_Party/LwIP/src/apps/mqtt/mqtt.c ****   struct mqtt_request_t *iter, *next;
 423:Middlewares/Third_Party/LwIP/src/apps/mqtt/mqtt.c ****   LWIP_ASSERT("mqtt_clear_requests: tail != NULL", tail != NULL);
 424:Middlewares/Third_Party/LwIP/src/apps/mqtt/mqtt.c ****   for (iter = *tail; iter != NULL; iter = next) {
 425:Middlewares/Third_Party/LwIP/src/apps/mqtt/mqtt.c ****     next = iter->next;
 426:Middlewares/Third_Party/LwIP/src/apps/mqtt/mqtt.c ****     mqtt_delete_request(iter);
 427:Middlewares/Third_Party/LwIP/src/apps/mqtt/mqtt.c ****   }
 428:Middlewares/Third_Party/LwIP/src/apps/mqtt/mqtt.c ****   *tail = NULL;
 429:Middlewares/Third_Party/LwIP/src/apps/mqtt/mqtt.c **** }
 430:Middlewares/Third_Party/LwIP/src/apps/mqtt/mqtt.c **** /**
 431:Middlewares/Third_Party/LwIP/src/apps/mqtt/mqtt.c ****  * Initialize all request items
 432:Middlewares/Third_Party/LwIP/src/apps/mqtt/mqtt.c ****  * @param r_objs Pointer to request objects
 433:Middlewares/Third_Party/LwIP/src/apps/mqtt/mqtt.c ****  * @param r_objs_len Number of array entries
 434:Middlewares/Third_Party/LwIP/src/apps/mqtt/mqtt.c ****  */
 435:Middlewares/Third_Party/LwIP/src/apps/mqtt/mqtt.c **** static void
 436:Middlewares/Third_Party/LwIP/src/apps/mqtt/mqtt.c **** mqtt_init_requests(struct mqtt_request_t *r_objs, size_t r_objs_len)
 437:Middlewares/Third_Party/LwIP/src/apps/mqtt/mqtt.c **** {
 438:Middlewares/Third_Party/LwIP/src/apps/mqtt/mqtt.c ****   u8_t n;
 439:Middlewares/Third_Party/LwIP/src/apps/mqtt/mqtt.c ****   LWIP_ASSERT("mqtt_init_requests: r_objs != NULL", r_objs != NULL);
 440:Middlewares/Third_Party/LwIP/src/apps/mqtt/mqtt.c ****   for (n = 0; n < r_objs_len; n++) {
ARM GAS  /tmp/ccVfyJBo.s 			page 12


 441:Middlewares/Third_Party/LwIP/src/apps/mqtt/mqtt.c ****     /* Item pointing to itself indicates unused */
 442:Middlewares/Third_Party/LwIP/src/apps/mqtt/mqtt.c ****     r_objs[n].next = &r_objs[n];
 443:Middlewares/Third_Party/LwIP/src/apps/mqtt/mqtt.c ****   }
 444:Middlewares/Third_Party/LwIP/src/apps/mqtt/mqtt.c **** }
 445:Middlewares/Third_Party/LwIP/src/apps/mqtt/mqtt.c **** 
 446:Middlewares/Third_Party/LwIP/src/apps/mqtt/mqtt.c **** /*-------------------------------------------------------------------------------------------------
 447:Middlewares/Third_Party/LwIP/src/apps/mqtt/mqtt.c **** /* Output message build helpers */
 448:Middlewares/Third_Party/LwIP/src/apps/mqtt/mqtt.c **** 
 449:Middlewares/Third_Party/LwIP/src/apps/mqtt/mqtt.c **** 
 450:Middlewares/Third_Party/LwIP/src/apps/mqtt/mqtt.c **** static void
 451:Middlewares/Third_Party/LwIP/src/apps/mqtt/mqtt.c **** mqtt_output_append_u8(struct mqtt_ringbuf_t *rb, u8_t value)
 452:Middlewares/Third_Party/LwIP/src/apps/mqtt/mqtt.c **** {
 199              		.loc 1 452 1 is_stmt 1 view -0
 200              		.cfi_startproc
 201              		@ args = 0, pretend = 0, frame = 0
 202              		@ frame_needed = 0, uses_anonymous_args = 0
 203              		.loc 1 452 1 is_stmt 0 view .LVU46
 204 0000 08B5     		push	{r3, lr}
 205              	.LCFI0:
 206              		.cfi_def_cfa_offset 8
 207              		.cfi_offset 3, -8
 208              		.cfi_offset 14, -4
 453:Middlewares/Third_Party/LwIP/src/apps/mqtt/mqtt.c ****   mqtt_ringbuf_put(rb, value);
 209              		.loc 1 453 3 is_stmt 1 view .LVU47
 210 0002 FFF7FEFF 		bl	mqtt_ringbuf_put
 211              	.LVL12:
 454:Middlewares/Third_Party/LwIP/src/apps/mqtt/mqtt.c **** }
 212              		.loc 1 454 1 is_stmt 0 view .LVU48
 213 0006 08BD     		pop	{r3, pc}
 214              		.cfi_endproc
 215              	.LFE180:
 217              		.section	.text.mqtt_output_append_u16,"ax",%progbits
 218              		.align	1
 219              		.syntax unified
 220              		.thumb
 221              		.thumb_func
 223              	mqtt_output_append_u16:
 224              	.LVL13:
 225              	.LFB181:
 455:Middlewares/Third_Party/LwIP/src/apps/mqtt/mqtt.c **** 
 456:Middlewares/Third_Party/LwIP/src/apps/mqtt/mqtt.c **** static
 457:Middlewares/Third_Party/LwIP/src/apps/mqtt/mqtt.c **** void mqtt_output_append_u16(struct mqtt_ringbuf_t *rb, u16_t value)
 458:Middlewares/Third_Party/LwIP/src/apps/mqtt/mqtt.c **** {
 226              		.loc 1 458 1 is_stmt 1 view -0
 227              		.cfi_startproc
 228              		@ args = 0, pretend = 0, frame = 0
 229              		@ frame_needed = 0, uses_anonymous_args = 0
 230              		.loc 1 458 1 is_stmt 0 view .LVU50
 231 0000 38B5     		push	{r3, r4, r5, lr}
 232              	.LCFI1:
 233              		.cfi_def_cfa_offset 16
 234              		.cfi_offset 3, -16
 235              		.cfi_offset 4, -12
 236              		.cfi_offset 5, -8
 237              		.cfi_offset 14, -4
 238 0002 0546     		mov	r5, r0
 239 0004 0C46     		mov	r4, r1
ARM GAS  /tmp/ccVfyJBo.s 			page 13


 459:Middlewares/Third_Party/LwIP/src/apps/mqtt/mqtt.c ****   mqtt_ringbuf_put(rb, value >> 8);
 240              		.loc 1 459 3 is_stmt 1 view .LVU51
 241 0006 090A     		lsrs	r1, r1, #8
 242              	.LVL14:
 243              		.loc 1 459 3 is_stmt 0 view .LVU52
 244 0008 FFF7FEFF 		bl	mqtt_ringbuf_put
 245              	.LVL15:
 460:Middlewares/Third_Party/LwIP/src/apps/mqtt/mqtt.c ****   mqtt_ringbuf_put(rb, value & 0xff);
 246              		.loc 1 460 3 is_stmt 1 view .LVU53
 247 000c E1B2     		uxtb	r1, r4
 248 000e 2846     		mov	r0, r5
 249 0010 FFF7FEFF 		bl	mqtt_ringbuf_put
 250              	.LVL16:
 461:Middlewares/Third_Party/LwIP/src/apps/mqtt/mqtt.c **** }
 251              		.loc 1 461 1 is_stmt 0 view .LVU54
 252 0014 38BD     		pop	{r3, r4, r5, pc}
 253              		.loc 1 461 1 view .LVU55
 254              		.cfi_endproc
 255              	.LFE181:
 257              		.section	.text.mqtt_output_append_buf,"ax",%progbits
 258              		.align	1
 259              		.syntax unified
 260              		.thumb
 261              		.thumb_func
 263              	mqtt_output_append_buf:
 264              	.LVL17:
 265              	.LFB182:
 462:Middlewares/Third_Party/LwIP/src/apps/mqtt/mqtt.c **** 
 463:Middlewares/Third_Party/LwIP/src/apps/mqtt/mqtt.c **** static void
 464:Middlewares/Third_Party/LwIP/src/apps/mqtt/mqtt.c **** mqtt_output_append_buf(struct mqtt_ringbuf_t *rb, const void *data, u16_t length)
 465:Middlewares/Third_Party/LwIP/src/apps/mqtt/mqtt.c **** {
 266              		.loc 1 465 1 is_stmt 1 view -0
 267              		.cfi_startproc
 268              		@ args = 0, pretend = 0, frame = 0
 269              		@ frame_needed = 0, uses_anonymous_args = 0
 270              		.loc 1 465 1 is_stmt 0 view .LVU57
 271 0000 F8B5     		push	{r3, r4, r5, r6, r7, lr}
 272              	.LCFI2:
 273              		.cfi_def_cfa_offset 24
 274              		.cfi_offset 3, -24
 275              		.cfi_offset 4, -20
 276              		.cfi_offset 5, -16
 277              		.cfi_offset 6, -12
 278              		.cfi_offset 7, -8
 279              		.cfi_offset 14, -4
 280 0002 0746     		mov	r7, r0
 281 0004 0E46     		mov	r6, r1
 282 0006 1546     		mov	r5, r2
 466:Middlewares/Third_Party/LwIP/src/apps/mqtt/mqtt.c ****   u16_t n;
 283              		.loc 1 466 3 is_stmt 1 view .LVU58
 467:Middlewares/Third_Party/LwIP/src/apps/mqtt/mqtt.c ****   for (n = 0; n < length; n++) {
 284              		.loc 1 467 3 view .LVU59
 285              	.LVL18:
 286              		.loc 1 467 10 is_stmt 0 view .LVU60
 287 0008 0024     		movs	r4, #0
 288              		.loc 1 467 3 view .LVU61
 289 000a 05E0     		b	.L15
ARM GAS  /tmp/ccVfyJBo.s 			page 14


 290              	.LVL19:
 291              	.L16:
 468:Middlewares/Third_Party/LwIP/src/apps/mqtt/mqtt.c ****     mqtt_ringbuf_put(rb, ((const u8_t *)data)[n]);
 292              		.loc 1 468 5 is_stmt 1 discriminator 3 view .LVU62
 293 000c 315D     		ldrb	r1, [r6, r4]	@ zero_extendqisi2
 294 000e 3846     		mov	r0, r7
 295 0010 FFF7FEFF 		bl	mqtt_ringbuf_put
 296              	.LVL20:
 467:Middlewares/Third_Party/LwIP/src/apps/mqtt/mqtt.c ****   for (n = 0; n < length; n++) {
 297              		.loc 1 467 27 discriminator 3 view .LVU63
 467:Middlewares/Third_Party/LwIP/src/apps/mqtt/mqtt.c ****   for (n = 0; n < length; n++) {
 298              		.loc 1 467 28 is_stmt 0 discriminator 3 view .LVU64
 299 0014 0134     		adds	r4, r4, #1
 300              	.LVL21:
 467:Middlewares/Third_Party/LwIP/src/apps/mqtt/mqtt.c ****   for (n = 0; n < length; n++) {
 301              		.loc 1 467 28 discriminator 3 view .LVU65
 302 0016 A4B2     		uxth	r4, r4
 303              	.LVL22:
 304              	.L15:
 467:Middlewares/Third_Party/LwIP/src/apps/mqtt/mqtt.c ****   for (n = 0; n < length; n++) {
 305              		.loc 1 467 15 is_stmt 1 discriminator 1 view .LVU66
 467:Middlewares/Third_Party/LwIP/src/apps/mqtt/mqtt.c ****   for (n = 0; n < length; n++) {
 306              		.loc 1 467 3 is_stmt 0 discriminator 1 view .LVU67
 307 0018 AC42     		cmp	r4, r5
 308 001a F7D3     		bcc	.L16
 469:Middlewares/Third_Party/LwIP/src/apps/mqtt/mqtt.c ****   }
 470:Middlewares/Third_Party/LwIP/src/apps/mqtt/mqtt.c **** }
 309              		.loc 1 470 1 view .LVU68
 310 001c F8BD     		pop	{r3, r4, r5, r6, r7, pc}
 311              		.loc 1 470 1 view .LVU69
 312              		.cfi_endproc
 313              	.LFE182:
 315              		.section	.text.mqtt_output_append_string,"ax",%progbits
 316              		.align	1
 317              		.syntax unified
 318              		.thumb
 319              		.thumb_func
 321              	mqtt_output_append_string:
 322              	.LVL23:
 323              	.LFB183:
 471:Middlewares/Third_Party/LwIP/src/apps/mqtt/mqtt.c **** 
 472:Middlewares/Third_Party/LwIP/src/apps/mqtt/mqtt.c **** static void
 473:Middlewares/Third_Party/LwIP/src/apps/mqtt/mqtt.c **** mqtt_output_append_string(struct mqtt_ringbuf_t *rb, const char *str, u16_t length)
 474:Middlewares/Third_Party/LwIP/src/apps/mqtt/mqtt.c **** {
 324              		.loc 1 474 1 is_stmt 1 view -0
 325              		.cfi_startproc
 326              		@ args = 0, pretend = 0, frame = 0
 327              		@ frame_needed = 0, uses_anonymous_args = 0
 328              		.loc 1 474 1 is_stmt 0 view .LVU71
 329 0000 F8B5     		push	{r3, r4, r5, r6, r7, lr}
 330              	.LCFI3:
 331              		.cfi_def_cfa_offset 24
 332              		.cfi_offset 3, -24
 333              		.cfi_offset 4, -20
 334              		.cfi_offset 5, -16
 335              		.cfi_offset 6, -12
 336              		.cfi_offset 7, -8
ARM GAS  /tmp/ccVfyJBo.s 			page 15


 337              		.cfi_offset 14, -4
 338 0002 0646     		mov	r6, r0
 339 0004 0F46     		mov	r7, r1
 340 0006 1546     		mov	r5, r2
 475:Middlewares/Third_Party/LwIP/src/apps/mqtt/mqtt.c ****   u16_t n;
 341              		.loc 1 475 3 is_stmt 1 view .LVU72
 476:Middlewares/Third_Party/LwIP/src/apps/mqtt/mqtt.c ****   mqtt_ringbuf_put(rb, length >> 8);
 342              		.loc 1 476 3 view .LVU73
 343 0008 110A     		lsrs	r1, r2, #8
 344              	.LVL24:
 345              		.loc 1 476 3 is_stmt 0 view .LVU74
 346 000a FFF7FEFF 		bl	mqtt_ringbuf_put
 347              	.LVL25:
 477:Middlewares/Third_Party/LwIP/src/apps/mqtt/mqtt.c ****   mqtt_ringbuf_put(rb, length & 0xff);
 348              		.loc 1 477 3 is_stmt 1 view .LVU75
 349 000e E9B2     		uxtb	r1, r5
 350 0010 3046     		mov	r0, r6
 351 0012 FFF7FEFF 		bl	mqtt_ringbuf_put
 352              	.LVL26:
 478:Middlewares/Third_Party/LwIP/src/apps/mqtt/mqtt.c ****   for (n = 0; n < length; n++) {
 353              		.loc 1 478 3 view .LVU76
 354              		.loc 1 478 10 is_stmt 0 view .LVU77
 355 0016 0024     		movs	r4, #0
 356              		.loc 1 478 3 view .LVU78
 357 0018 05E0     		b	.L19
 358              	.LVL27:
 359              	.L20:
 479:Middlewares/Third_Party/LwIP/src/apps/mqtt/mqtt.c ****     mqtt_ringbuf_put(rb, str[n]);
 360              		.loc 1 479 5 is_stmt 1 discriminator 3 view .LVU79
 361 001a 395D     		ldrb	r1, [r7, r4]	@ zero_extendqisi2
 362 001c 3046     		mov	r0, r6
 363 001e FFF7FEFF 		bl	mqtt_ringbuf_put
 364              	.LVL28:
 478:Middlewares/Third_Party/LwIP/src/apps/mqtt/mqtt.c ****   for (n = 0; n < length; n++) {
 365              		.loc 1 478 27 discriminator 3 view .LVU80
 478:Middlewares/Third_Party/LwIP/src/apps/mqtt/mqtt.c ****   for (n = 0; n < length; n++) {
 366              		.loc 1 478 28 is_stmt 0 discriminator 3 view .LVU81
 367 0022 0134     		adds	r4, r4, #1
 368              	.LVL29:
 478:Middlewares/Third_Party/LwIP/src/apps/mqtt/mqtt.c ****   for (n = 0; n < length; n++) {
 369              		.loc 1 478 28 discriminator 3 view .LVU82
 370 0024 A4B2     		uxth	r4, r4
 371              	.LVL30:
 372              	.L19:
 478:Middlewares/Third_Party/LwIP/src/apps/mqtt/mqtt.c ****   for (n = 0; n < length; n++) {
 373              		.loc 1 478 15 is_stmt 1 discriminator 1 view .LVU83
 478:Middlewares/Third_Party/LwIP/src/apps/mqtt/mqtt.c ****   for (n = 0; n < length; n++) {
 374              		.loc 1 478 3 is_stmt 0 discriminator 1 view .LVU84
 375 0026 AC42     		cmp	r4, r5
 376 0028 F7D3     		bcc	.L20
 480:Middlewares/Third_Party/LwIP/src/apps/mqtt/mqtt.c ****   }
 481:Middlewares/Third_Party/LwIP/src/apps/mqtt/mqtt.c **** }
 377              		.loc 1 481 1 view .LVU85
 378 002a F8BD     		pop	{r3, r4, r5, r6, r7, pc}
 379              		.loc 1 481 1 view .LVU86
 380              		.cfi_endproc
 381              	.LFE183:
ARM GAS  /tmp/ccVfyJBo.s 			page 16


 383              		.section	.text.mqtt_output_append_fixed_header,"ax",%progbits
 384              		.align	1
 385              		.syntax unified
 386              		.thumb
 387              		.thumb_func
 389              	mqtt_output_append_fixed_header:
 390              	.LVL31:
 391              	.LFB184:
 482:Middlewares/Third_Party/LwIP/src/apps/mqtt/mqtt.c **** 
 483:Middlewares/Third_Party/LwIP/src/apps/mqtt/mqtt.c **** /**
 484:Middlewares/Third_Party/LwIP/src/apps/mqtt/mqtt.c ****  * Append fixed header
 485:Middlewares/Third_Party/LwIP/src/apps/mqtt/mqtt.c ****  * @param rb Output ring buffer
 486:Middlewares/Third_Party/LwIP/src/apps/mqtt/mqtt.c ****  * @param msg_type see enum mqtt_message_type
 487:Middlewares/Third_Party/LwIP/src/apps/mqtt/mqtt.c ****  * @param fdup MQTT DUP flag
 488:Middlewares/Third_Party/LwIP/src/apps/mqtt/mqtt.c ****  * @param fqos MQTT QoS field
 489:Middlewares/Third_Party/LwIP/src/apps/mqtt/mqtt.c ****  * @param fretain MQTT retain flag
 490:Middlewares/Third_Party/LwIP/src/apps/mqtt/mqtt.c ****  * @param r_length Remaining length after fixed header
 491:Middlewares/Third_Party/LwIP/src/apps/mqtt/mqtt.c ****  */
 492:Middlewares/Third_Party/LwIP/src/apps/mqtt/mqtt.c **** 
 493:Middlewares/Third_Party/LwIP/src/apps/mqtt/mqtt.c **** static void
 494:Middlewares/Third_Party/LwIP/src/apps/mqtt/mqtt.c **** mqtt_output_append_fixed_header(struct mqtt_ringbuf_t *rb, u8_t msg_type, u8_t fdup,
 495:Middlewares/Third_Party/LwIP/src/apps/mqtt/mqtt.c ****                                 u8_t fqos, u8_t fretain, u16_t r_length)
 496:Middlewares/Third_Party/LwIP/src/apps/mqtt/mqtt.c **** {
 392              		.loc 1 496 1 is_stmt 1 view -0
 393              		.cfi_startproc
 394              		@ args = 8, pretend = 0, frame = 0
 395              		@ frame_needed = 0, uses_anonymous_args = 0
 396              		.loc 1 496 1 is_stmt 0 view .LVU88
 397 0000 38B5     		push	{r3, r4, r5, lr}
 398              	.LCFI4:
 399              		.cfi_def_cfa_offset 16
 400              		.cfi_offset 3, -16
 401              		.cfi_offset 4, -12
 402              		.cfi_offset 5, -8
 403              		.cfi_offset 14, -4
 404 0002 0546     		mov	r5, r0
 405 0004 BDF81440 		ldrh	r4, [sp, #20]
 497:Middlewares/Third_Party/LwIP/src/apps/mqtt/mqtt.c ****   /* Start with control byte */
 498:Middlewares/Third_Party/LwIP/src/apps/mqtt/mqtt.c ****   mqtt_output_append_u8(rb, (((msg_type & 0x0f) << 4) | ((fdup & 1) << 3) | ((fqos & 3) << 1) | (fr
 406              		.loc 1 498 3 is_stmt 1 view .LVU89
 407              		.loc 1 498 69 is_stmt 0 view .LVU90
 408 0008 D200     		lsls	r2, r2, #3
 409              	.LVL32:
 410              		.loc 1 498 69 view .LVU91
 411 000a 02F00802 		and	r2, r2, #8
 412              		.loc 1 498 55 view .LVU92
 413 000e 42EA0112 		orr	r2, r2, r1, lsl #4
 414 0012 52B2     		sxtb	r2, r2
 415              		.loc 1 498 89 view .LVU93
 416 0014 5900     		lsls	r1, r3, #1
 417              	.LVL33:
 418              		.loc 1 498 89 view .LVU94
 419 0016 01F00601 		and	r1, r1, #6
 420              		.loc 1 498 75 view .LVU95
 421 001a 0A43     		orrs	r2, r2, r1
 422              		.loc 1 498 106 view .LVU96
 423 001c 9DF81010 		ldrb	r1, [sp, #16]	@ zero_extendqisi2
ARM GAS  /tmp/ccVfyJBo.s 			page 17


 424 0020 01F00101 		and	r1, r1, #1
 425              		.loc 1 498 95 view .LVU97
 426 0024 1143     		orrs	r1, r1, r2
 427              		.loc 1 498 3 view .LVU98
 428 0026 C9B2     		uxtb	r1, r1
 429 0028 FFF7FEFF 		bl	mqtt_output_append_u8
 430              	.LVL34:
 431              		.loc 1 498 3 view .LVU99
 432 002c 07E0     		b	.L24
 433              	.LVL35:
 434              	.L25:
 499:Middlewares/Third_Party/LwIP/src/apps/mqtt/mqtt.c ****   /* Encode remaining length field */
 500:Middlewares/Third_Party/LwIP/src/apps/mqtt/mqtt.c ****   do {
 501:Middlewares/Third_Party/LwIP/src/apps/mqtt/mqtt.c ****     mqtt_output_append_u8(rb, (r_length & 0x7f) | (r_length >= 128 ? 0x80 : 0));
 435              		.loc 1 501 49 view .LVU100
 436 002e 0023     		movs	r3, #0
 437              	.L23:
 438              		.loc 1 501 49 discriminator 4 view .LVU101
 439 0030 1943     		orrs	r1, r1, r3
 440              		.loc 1 501 5 discriminator 4 view .LVU102
 441 0032 C9B2     		uxtb	r1, r1
 442 0034 2846     		mov	r0, r5
 443 0036 FFF7FEFF 		bl	mqtt_output_append_u8
 444              	.LVL36:
 502:Middlewares/Third_Party/LwIP/src/apps/mqtt/mqtt.c ****     r_length >>= 7;
 445              		.loc 1 502 5 is_stmt 1 discriminator 4 view .LVU103
 503:Middlewares/Third_Party/LwIP/src/apps/mqtt/mqtt.c ****   } while (r_length > 0);
 446              		.loc 1 503 11 discriminator 4 view .LVU104
 447              		.loc 1 503 3 is_stmt 0 discriminator 4 view .LVU105
 448 003a E409     		lsrs	r4, r4, #7
 449              	.LVL37:
 450              		.loc 1 503 3 discriminator 4 view .LVU106
 451 003c 06D0     		beq	.L27
 452              	.L24:
 453              	.LVL38:
 500:Middlewares/Third_Party/LwIP/src/apps/mqtt/mqtt.c ****     mqtt_output_append_u8(rb, (r_length & 0x7f) | (r_length >= 128 ? 0x80 : 0));
 454              		.loc 1 500 3 is_stmt 1 view .LVU107
 501:Middlewares/Third_Party/LwIP/src/apps/mqtt/mqtt.c ****     r_length >>= 7;
 455              		.loc 1 501 5 view .LVU108
 501:Middlewares/Third_Party/LwIP/src/apps/mqtt/mqtt.c ****     r_length >>= 7;
 456              		.loc 1 501 41 is_stmt 0 view .LVU109
 457 003e 04F07F01 		and	r1, r4, #127
 501:Middlewares/Third_Party/LwIP/src/apps/mqtt/mqtt.c ****     r_length >>= 7;
 458              		.loc 1 501 49 view .LVU110
 459 0042 7F2C     		cmp	r4, #127
 460 0044 F3D9     		bls	.L25
 461 0046 6FF07F03 		mvn	r3, #127
 462 004a F1E7     		b	.L23
 463              	.LVL39:
 464              	.L27:
 504:Middlewares/Third_Party/LwIP/src/apps/mqtt/mqtt.c **** }
 465              		.loc 1 504 1 view .LVU111
 466 004c 38BD     		pop	{r3, r4, r5, pc}
 467              		.loc 1 504 1 view .LVU112
 468              		.cfi_endproc
 469              	.LFE184:
 471              		.section	.text.mqtt_incomming_suback,"ax",%progbits
ARM GAS  /tmp/ccVfyJBo.s 			page 18


 472              		.align	1
 473              		.syntax unified
 474              		.thumb
 475              		.thumb_func
 477              	mqtt_incomming_suback:
 478              	.LVL40:
 479              	.LFB189:
 505:Middlewares/Third_Party/LwIP/src/apps/mqtt/mqtt.c **** 
 506:Middlewares/Third_Party/LwIP/src/apps/mqtt/mqtt.c **** 
 507:Middlewares/Third_Party/LwIP/src/apps/mqtt/mqtt.c **** /**
 508:Middlewares/Third_Party/LwIP/src/apps/mqtt/mqtt.c ****  * Check output buffer space
 509:Middlewares/Third_Party/LwIP/src/apps/mqtt/mqtt.c ****  * @param rb Output ring buffer
 510:Middlewares/Third_Party/LwIP/src/apps/mqtt/mqtt.c ****  * @param r_length Remaining length after fixed header
 511:Middlewares/Third_Party/LwIP/src/apps/mqtt/mqtt.c ****  * @return 1 if message will fit, 0 if not enough buffer space
 512:Middlewares/Third_Party/LwIP/src/apps/mqtt/mqtt.c ****  */
 513:Middlewares/Third_Party/LwIP/src/apps/mqtt/mqtt.c **** static u8_t
 514:Middlewares/Third_Party/LwIP/src/apps/mqtt/mqtt.c **** mqtt_output_check_space(struct mqtt_ringbuf_t *rb, u16_t r_length)
 515:Middlewares/Third_Party/LwIP/src/apps/mqtt/mqtt.c **** {
 516:Middlewares/Third_Party/LwIP/src/apps/mqtt/mqtt.c ****   /* Start with length of type byte + remaining length */
 517:Middlewares/Third_Party/LwIP/src/apps/mqtt/mqtt.c ****   u16_t total_len = 1 + r_length;
 518:Middlewares/Third_Party/LwIP/src/apps/mqtt/mqtt.c **** 
 519:Middlewares/Third_Party/LwIP/src/apps/mqtt/mqtt.c ****   LWIP_ASSERT("mqtt_output_check_space: rb != NULL", rb != NULL);
 520:Middlewares/Third_Party/LwIP/src/apps/mqtt/mqtt.c **** 
 521:Middlewares/Third_Party/LwIP/src/apps/mqtt/mqtt.c ****   /* Calculate number of required bytes to contain the remaining bytes field and add to total*/
 522:Middlewares/Third_Party/LwIP/src/apps/mqtt/mqtt.c ****   do {
 523:Middlewares/Third_Party/LwIP/src/apps/mqtt/mqtt.c ****     total_len++;
 524:Middlewares/Third_Party/LwIP/src/apps/mqtt/mqtt.c ****     r_length >>= 7;
 525:Middlewares/Third_Party/LwIP/src/apps/mqtt/mqtt.c ****   } while (r_length > 0);
 526:Middlewares/Third_Party/LwIP/src/apps/mqtt/mqtt.c **** 
 527:Middlewares/Third_Party/LwIP/src/apps/mqtt/mqtt.c ****   return (total_len <= mqtt_ringbuf_free(rb));
 528:Middlewares/Third_Party/LwIP/src/apps/mqtt/mqtt.c **** }
 529:Middlewares/Third_Party/LwIP/src/apps/mqtt/mqtt.c **** 
 530:Middlewares/Third_Party/LwIP/src/apps/mqtt/mqtt.c **** 
 531:Middlewares/Third_Party/LwIP/src/apps/mqtt/mqtt.c **** /**
 532:Middlewares/Third_Party/LwIP/src/apps/mqtt/mqtt.c ****  * Close connection to server
 533:Middlewares/Third_Party/LwIP/src/apps/mqtt/mqtt.c ****  * @param client MQTT client
 534:Middlewares/Third_Party/LwIP/src/apps/mqtt/mqtt.c ****  * @param reason Reason for disconnection
 535:Middlewares/Third_Party/LwIP/src/apps/mqtt/mqtt.c ****  */
 536:Middlewares/Third_Party/LwIP/src/apps/mqtt/mqtt.c **** static void
 537:Middlewares/Third_Party/LwIP/src/apps/mqtt/mqtt.c **** mqtt_close(mqtt_client_t *client, mqtt_connection_status_t reason)
 538:Middlewares/Third_Party/LwIP/src/apps/mqtt/mqtt.c **** {
 539:Middlewares/Third_Party/LwIP/src/apps/mqtt/mqtt.c ****   LWIP_ASSERT("mqtt_close: client != NULL", client != NULL);
 540:Middlewares/Third_Party/LwIP/src/apps/mqtt/mqtt.c **** 
 541:Middlewares/Third_Party/LwIP/src/apps/mqtt/mqtt.c ****   /* Bring down TCP connection if not already done */
 542:Middlewares/Third_Party/LwIP/src/apps/mqtt/mqtt.c ****   if (client->conn != NULL) {
 543:Middlewares/Third_Party/LwIP/src/apps/mqtt/mqtt.c ****     err_t res;
 544:Middlewares/Third_Party/LwIP/src/apps/mqtt/mqtt.c ****     altcp_recv(client->conn, NULL);
 545:Middlewares/Third_Party/LwIP/src/apps/mqtt/mqtt.c ****     altcp_err(client->conn,  NULL);
 546:Middlewares/Third_Party/LwIP/src/apps/mqtt/mqtt.c ****     altcp_sent(client->conn, NULL);
 547:Middlewares/Third_Party/LwIP/src/apps/mqtt/mqtt.c ****     res = altcp_close(client->conn);
 548:Middlewares/Third_Party/LwIP/src/apps/mqtt/mqtt.c ****     if (res != ERR_OK) {
 549:Middlewares/Third_Party/LwIP/src/apps/mqtt/mqtt.c ****       altcp_abort(client->conn);
 550:Middlewares/Third_Party/LwIP/src/apps/mqtt/mqtt.c ****       LWIP_DEBUGF(MQTT_DEBUG_TRACE, ("mqtt_close: Close err=%s\n", lwip_strerr(res)));
 551:Middlewares/Third_Party/LwIP/src/apps/mqtt/mqtt.c ****     }
 552:Middlewares/Third_Party/LwIP/src/apps/mqtt/mqtt.c ****     client->conn = NULL;
 553:Middlewares/Third_Party/LwIP/src/apps/mqtt/mqtt.c ****   }
 554:Middlewares/Third_Party/LwIP/src/apps/mqtt/mqtt.c **** 
ARM GAS  /tmp/ccVfyJBo.s 			page 19


 555:Middlewares/Third_Party/LwIP/src/apps/mqtt/mqtt.c ****   /* Remove all pending requests */
 556:Middlewares/Third_Party/LwIP/src/apps/mqtt/mqtt.c ****   mqtt_clear_requests(&client->pend_req_queue);
 557:Middlewares/Third_Party/LwIP/src/apps/mqtt/mqtt.c ****   /* Stop cyclic timer */
 558:Middlewares/Third_Party/LwIP/src/apps/mqtt/mqtt.c ****   sys_untimeout(mqtt_cyclic_timer, client);
 559:Middlewares/Third_Party/LwIP/src/apps/mqtt/mqtt.c **** 
 560:Middlewares/Third_Party/LwIP/src/apps/mqtt/mqtt.c ****   /* Notify upper layer of disconnection if changed state */
 561:Middlewares/Third_Party/LwIP/src/apps/mqtt/mqtt.c ****   if (client->conn_state != TCP_DISCONNECTED) {
 562:Middlewares/Third_Party/LwIP/src/apps/mqtt/mqtt.c **** 
 563:Middlewares/Third_Party/LwIP/src/apps/mqtt/mqtt.c ****     client->conn_state = TCP_DISCONNECTED;
 564:Middlewares/Third_Party/LwIP/src/apps/mqtt/mqtt.c ****     if (client->connect_cb != NULL) {
 565:Middlewares/Third_Party/LwIP/src/apps/mqtt/mqtt.c ****       client->connect_cb(client, client->connect_arg, reason);
 566:Middlewares/Third_Party/LwIP/src/apps/mqtt/mqtt.c ****     }
 567:Middlewares/Third_Party/LwIP/src/apps/mqtt/mqtt.c ****   }
 568:Middlewares/Third_Party/LwIP/src/apps/mqtt/mqtt.c **** }
 569:Middlewares/Third_Party/LwIP/src/apps/mqtt/mqtt.c **** 
 570:Middlewares/Third_Party/LwIP/src/apps/mqtt/mqtt.c **** 
 571:Middlewares/Third_Party/LwIP/src/apps/mqtt/mqtt.c **** /**
 572:Middlewares/Third_Party/LwIP/src/apps/mqtt/mqtt.c ****  * Interval timer, called every MQTT_CYCLIC_TIMER_INTERVAL seconds in MQTT_CONNECTING and MQTT_CONN
 573:Middlewares/Third_Party/LwIP/src/apps/mqtt/mqtt.c ****  * @param arg MQTT client
 574:Middlewares/Third_Party/LwIP/src/apps/mqtt/mqtt.c ****  */
 575:Middlewares/Third_Party/LwIP/src/apps/mqtt/mqtt.c **** static void
 576:Middlewares/Third_Party/LwIP/src/apps/mqtt/mqtt.c **** mqtt_cyclic_timer(void *arg)
 577:Middlewares/Third_Party/LwIP/src/apps/mqtt/mqtt.c **** {
 578:Middlewares/Third_Party/LwIP/src/apps/mqtt/mqtt.c ****   u8_t restart_timer = 1;
 579:Middlewares/Third_Party/LwIP/src/apps/mqtt/mqtt.c ****   mqtt_client_t *client = (mqtt_client_t *)arg;
 580:Middlewares/Third_Party/LwIP/src/apps/mqtt/mqtt.c ****   LWIP_ASSERT("mqtt_cyclic_timer: client != NULL", client != NULL);
 581:Middlewares/Third_Party/LwIP/src/apps/mqtt/mqtt.c **** 
 582:Middlewares/Third_Party/LwIP/src/apps/mqtt/mqtt.c ****   if (client->conn_state == MQTT_CONNECTING) {
 583:Middlewares/Third_Party/LwIP/src/apps/mqtt/mqtt.c ****     client->cyclic_tick++;
 584:Middlewares/Third_Party/LwIP/src/apps/mqtt/mqtt.c ****     if ((client->cyclic_tick * MQTT_CYCLIC_TIMER_INTERVAL) >= MQTT_CONNECT_TIMOUT) {
 585:Middlewares/Third_Party/LwIP/src/apps/mqtt/mqtt.c ****       LWIP_DEBUGF(MQTT_DEBUG_TRACE, ("mqtt_cyclic_timer: CONNECT attempt to server timed out\n"));
 586:Middlewares/Third_Party/LwIP/src/apps/mqtt/mqtt.c ****       /* Disconnect TCP */
 587:Middlewares/Third_Party/LwIP/src/apps/mqtt/mqtt.c ****       mqtt_close(client, MQTT_CONNECT_TIMEOUT);
 588:Middlewares/Third_Party/LwIP/src/apps/mqtt/mqtt.c ****       restart_timer = 0;
 589:Middlewares/Third_Party/LwIP/src/apps/mqtt/mqtt.c ****     }
 590:Middlewares/Third_Party/LwIP/src/apps/mqtt/mqtt.c ****   } else if (client->conn_state == MQTT_CONNECTED) {
 591:Middlewares/Third_Party/LwIP/src/apps/mqtt/mqtt.c ****     /* Handle timeout for pending requests */
 592:Middlewares/Third_Party/LwIP/src/apps/mqtt/mqtt.c ****     mqtt_request_time_elapsed(&client->pend_req_queue, MQTT_CYCLIC_TIMER_INTERVAL);
 593:Middlewares/Third_Party/LwIP/src/apps/mqtt/mqtt.c **** 
 594:Middlewares/Third_Party/LwIP/src/apps/mqtt/mqtt.c ****     /* keep_alive > 0 means keep alive functionality shall be used */
 595:Middlewares/Third_Party/LwIP/src/apps/mqtt/mqtt.c ****     if (client->keep_alive > 0) {
 596:Middlewares/Third_Party/LwIP/src/apps/mqtt/mqtt.c **** 
 597:Middlewares/Third_Party/LwIP/src/apps/mqtt/mqtt.c ****       client->server_watchdog++;
 598:Middlewares/Third_Party/LwIP/src/apps/mqtt/mqtt.c ****       /* If reception from server has been idle for 1.5*keep_alive time, server is considered unres
 599:Middlewares/Third_Party/LwIP/src/apps/mqtt/mqtt.c ****       if ((client->server_watchdog * MQTT_CYCLIC_TIMER_INTERVAL) > (client->keep_alive + client->ke
 600:Middlewares/Third_Party/LwIP/src/apps/mqtt/mqtt.c ****         LWIP_DEBUGF(MQTT_DEBUG_WARN, ("mqtt_cyclic_timer: Server incoming keep-alive timeout\n"));
 601:Middlewares/Third_Party/LwIP/src/apps/mqtt/mqtt.c ****         mqtt_close(client, MQTT_CONNECT_TIMEOUT);
 602:Middlewares/Third_Party/LwIP/src/apps/mqtt/mqtt.c ****         restart_timer = 0;
 603:Middlewares/Third_Party/LwIP/src/apps/mqtt/mqtt.c ****       }
 604:Middlewares/Third_Party/LwIP/src/apps/mqtt/mqtt.c **** 
 605:Middlewares/Third_Party/LwIP/src/apps/mqtt/mqtt.c ****       /* If time for a keep alive message to be sent, transmission has been idle for keep_alive tim
 606:Middlewares/Third_Party/LwIP/src/apps/mqtt/mqtt.c ****       if ((client->cyclic_tick * MQTT_CYCLIC_TIMER_INTERVAL) >= client->keep_alive) {
 607:Middlewares/Third_Party/LwIP/src/apps/mqtt/mqtt.c ****         LWIP_DEBUGF(MQTT_DEBUG_TRACE, ("mqtt_cyclic_timer: Sending keep-alive message to server\n")
 608:Middlewares/Third_Party/LwIP/src/apps/mqtt/mqtt.c ****         if (mqtt_output_check_space(&client->output, 0) != 0) {
 609:Middlewares/Third_Party/LwIP/src/apps/mqtt/mqtt.c ****           mqtt_output_append_fixed_header(&client->output, MQTT_MSG_TYPE_PINGREQ, 0, 0, 0, 0);
 610:Middlewares/Third_Party/LwIP/src/apps/mqtt/mqtt.c ****           client->cyclic_tick = 0;
 611:Middlewares/Third_Party/LwIP/src/apps/mqtt/mqtt.c ****         }
ARM GAS  /tmp/ccVfyJBo.s 			page 20


 612:Middlewares/Third_Party/LwIP/src/apps/mqtt/mqtt.c ****       } else {
 613:Middlewares/Third_Party/LwIP/src/apps/mqtt/mqtt.c ****         client->cyclic_tick++;
 614:Middlewares/Third_Party/LwIP/src/apps/mqtt/mqtt.c ****       }
 615:Middlewares/Third_Party/LwIP/src/apps/mqtt/mqtt.c ****     }
 616:Middlewares/Third_Party/LwIP/src/apps/mqtt/mqtt.c ****   } else {
 617:Middlewares/Third_Party/LwIP/src/apps/mqtt/mqtt.c ****     LWIP_DEBUGF(MQTT_DEBUG_WARN, ("mqtt_cyclic_timer: Timer should not be running in state %d\n", c
 618:Middlewares/Third_Party/LwIP/src/apps/mqtt/mqtt.c ****     restart_timer = 0;
 619:Middlewares/Third_Party/LwIP/src/apps/mqtt/mqtt.c ****   }
 620:Middlewares/Third_Party/LwIP/src/apps/mqtt/mqtt.c ****   if (restart_timer) {
 621:Middlewares/Third_Party/LwIP/src/apps/mqtt/mqtt.c ****     sys_timeout(MQTT_CYCLIC_TIMER_INTERVAL * 1000, mqtt_cyclic_timer, arg);
 622:Middlewares/Third_Party/LwIP/src/apps/mqtt/mqtt.c ****   }
 623:Middlewares/Third_Party/LwIP/src/apps/mqtt/mqtt.c **** }
 624:Middlewares/Third_Party/LwIP/src/apps/mqtt/mqtt.c **** 
 625:Middlewares/Third_Party/LwIP/src/apps/mqtt/mqtt.c **** 
 626:Middlewares/Third_Party/LwIP/src/apps/mqtt/mqtt.c **** /**
 627:Middlewares/Third_Party/LwIP/src/apps/mqtt/mqtt.c ****  * Send PUBACK, PUBREC or PUBREL response message
 628:Middlewares/Third_Party/LwIP/src/apps/mqtt/mqtt.c ****  * @param client MQTT client
 629:Middlewares/Third_Party/LwIP/src/apps/mqtt/mqtt.c ****  * @param msg PUBACK, PUBREC or PUBREL
 630:Middlewares/Third_Party/LwIP/src/apps/mqtt/mqtt.c ****  * @param pkt_id Packet identifier
 631:Middlewares/Third_Party/LwIP/src/apps/mqtt/mqtt.c ****  * @param qos QoS value
 632:Middlewares/Third_Party/LwIP/src/apps/mqtt/mqtt.c ****  * @return ERR_OK if successful, ERR_MEM if out of memory
 633:Middlewares/Third_Party/LwIP/src/apps/mqtt/mqtt.c ****  */
 634:Middlewares/Third_Party/LwIP/src/apps/mqtt/mqtt.c **** static err_t
 635:Middlewares/Third_Party/LwIP/src/apps/mqtt/mqtt.c **** pub_ack_rec_rel_response(mqtt_client_t *client, u8_t msg, u16_t pkt_id, u8_t qos)
 636:Middlewares/Third_Party/LwIP/src/apps/mqtt/mqtt.c **** {
 637:Middlewares/Third_Party/LwIP/src/apps/mqtt/mqtt.c ****   err_t err = ERR_OK;
 638:Middlewares/Third_Party/LwIP/src/apps/mqtt/mqtt.c ****   if (mqtt_output_check_space(&client->output, 2)) {
 639:Middlewares/Third_Party/LwIP/src/apps/mqtt/mqtt.c ****     mqtt_output_append_fixed_header(&client->output, msg, 0, qos, 0, 2);
 640:Middlewares/Third_Party/LwIP/src/apps/mqtt/mqtt.c ****     mqtt_output_append_u16(&client->output, pkt_id);
 641:Middlewares/Third_Party/LwIP/src/apps/mqtt/mqtt.c ****     mqtt_output_send(&client->output, client->conn);
 642:Middlewares/Third_Party/LwIP/src/apps/mqtt/mqtt.c ****   } else {
 643:Middlewares/Third_Party/LwIP/src/apps/mqtt/mqtt.c ****     LWIP_DEBUGF(MQTT_DEBUG_TRACE, ("pub_ack_rec_rel_response: OOM creating response: %s with pkt_id
 644:Middlewares/Third_Party/LwIP/src/apps/mqtt/mqtt.c ****                                    mqtt_msg_type_to_str(msg), pkt_id));
 645:Middlewares/Third_Party/LwIP/src/apps/mqtt/mqtt.c ****     err = ERR_MEM;
 646:Middlewares/Third_Party/LwIP/src/apps/mqtt/mqtt.c ****   }
 647:Middlewares/Third_Party/LwIP/src/apps/mqtt/mqtt.c ****   return err;
 648:Middlewares/Third_Party/LwIP/src/apps/mqtt/mqtt.c **** }
 649:Middlewares/Third_Party/LwIP/src/apps/mqtt/mqtt.c **** 
 650:Middlewares/Third_Party/LwIP/src/apps/mqtt/mqtt.c **** /**
 651:Middlewares/Third_Party/LwIP/src/apps/mqtt/mqtt.c ****  * Subscribe response from server
 652:Middlewares/Third_Party/LwIP/src/apps/mqtt/mqtt.c ****  * @param r Matching request
 653:Middlewares/Third_Party/LwIP/src/apps/mqtt/mqtt.c ****  * @param result Result code from server
 654:Middlewares/Third_Party/LwIP/src/apps/mqtt/mqtt.c ****  */
 655:Middlewares/Third_Party/LwIP/src/apps/mqtt/mqtt.c **** static void
 656:Middlewares/Third_Party/LwIP/src/apps/mqtt/mqtt.c **** mqtt_incomming_suback(struct mqtt_request_t *r, u8_t result)
 657:Middlewares/Third_Party/LwIP/src/apps/mqtt/mqtt.c **** {
 480              		.loc 1 657 1 is_stmt 1 view -0
 481              		.cfi_startproc
 482              		@ args = 0, pretend = 0, frame = 0
 483              		@ frame_needed = 0, uses_anonymous_args = 0
 484              		.loc 1 657 1 is_stmt 0 view .LVU114
 485 0000 08B5     		push	{r3, lr}
 486              	.LCFI5:
 487              		.cfi_def_cfa_offset 8
 488              		.cfi_offset 3, -8
 489              		.cfi_offset 14, -4
 658:Middlewares/Third_Party/LwIP/src/apps/mqtt/mqtt.c ****   if (r->cb != NULL) {
ARM GAS  /tmp/ccVfyJBo.s 			page 21


 490              		.loc 1 658 3 is_stmt 1 view .LVU115
 491              		.loc 1 658 8 is_stmt 0 view .LVU116
 492 0002 4368     		ldr	r3, [r0, #4]
 493              		.loc 1 658 6 view .LVU117
 494 0004 23B1     		cbz	r3, .L28
 659:Middlewares/Third_Party/LwIP/src/apps/mqtt/mqtt.c ****     r->cb(r->arg, result < 3 ? ERR_OK : ERR_ABRT);
 495              		.loc 1 659 5 is_stmt 1 view .LVU118
 496 0006 8068     		ldr	r0, [r0, #8]
 497              	.LVL41:
 498              		.loc 1 659 5 is_stmt 0 view .LVU119
 499 0008 0229     		cmp	r1, #2
 500 000a 02D8     		bhi	.L31
 501 000c 0021     		movs	r1, #0
 502              	.LVL42:
 503              	.L30:
 504              		.loc 1 659 5 discriminator 4 view .LVU120
 505 000e 9847     		blx	r3
 506              	.LVL43:
 507              	.L28:
 660:Middlewares/Third_Party/LwIP/src/apps/mqtt/mqtt.c ****   }
 661:Middlewares/Third_Party/LwIP/src/apps/mqtt/mqtt.c **** }
 508              		.loc 1 661 1 view .LVU121
 509 0010 08BD     		pop	{r3, pc}
 510              	.LVL44:
 511              	.L31:
 659:Middlewares/Third_Party/LwIP/src/apps/mqtt/mqtt.c ****     r->cb(r->arg, result < 3 ? ERR_OK : ERR_ABRT);
 512              		.loc 1 659 5 view .LVU122
 513 0012 6FF00C01 		mvn	r1, #12
 514              	.LVL45:
 659:Middlewares/Third_Party/LwIP/src/apps/mqtt/mqtt.c ****     r->cb(r->arg, result < 3 ? ERR_OK : ERR_ABRT);
 515              		.loc 1 659 5 view .LVU123
 516 0016 FAE7     		b	.L30
 517              		.cfi_endproc
 518              	.LFE189:
 520              		.section	.rodata.mqtt_create_request.str1.4,"aMS",%progbits,1
 521              		.align	2
 522              	.LC0:
 523 0000 4D696464 		.ascii	"Middlewares/Third_Party/LwIP/src/apps/mqtt/mqtt.c\000"
 523      6C657761 
 523      7265732F 
 523      54686972 
 523      645F5061 
 524 0032 0000     		.align	2
 525              	.LC1:
 526 0034 6D717474 		.ascii	"mqtt_create_request: r_objs != NULL\000"
 526      5F637265 
 526      6174655F 
 526      72657175 
 526      6573743A 
 527              		.align	2
 528              	.LC2:
 529 0058 41737365 		.ascii	"Assertion \"%s\" failed at line %d in %s\012\000"
 529      7274696F 
 529      6E202225 
 529      73222066 
 529      61696C65 
 530              		.section	.text.mqtt_create_request,"ax",%progbits
ARM GAS  /tmp/ccVfyJBo.s 			page 22


 531              		.align	1
 532              		.syntax unified
 533              		.thumb
 534              		.thumb_func
 536              	mqtt_create_request:
 537              	.LVL46:
 538              	.LFB173:
 288:Middlewares/Third_Party/LwIP/src/apps/mqtt/mqtt.c ****   struct mqtt_request_t *r = NULL;
 539              		.loc 1 288 1 is_stmt 1 view -0
 540              		.cfi_startproc
 541              		@ args = 4, pretend = 0, frame = 0
 542              		@ frame_needed = 0, uses_anonymous_args = 0
 288:Middlewares/Third_Party/LwIP/src/apps/mqtt/mqtt.c ****   struct mqtt_request_t *r = NULL;
 543              		.loc 1 288 1 is_stmt 0 view .LVU125
 544 0000 F8B5     		push	{r3, r4, r5, r6, r7, lr}
 545              	.LCFI6:
 546              		.cfi_def_cfa_offset 24
 547              		.cfi_offset 3, -24
 548              		.cfi_offset 4, -20
 549              		.cfi_offset 5, -16
 550              		.cfi_offset 6, -12
 551              		.cfi_offset 7, -8
 552              		.cfi_offset 14, -4
 553 0002 0D46     		mov	r5, r1
 554 0004 1646     		mov	r6, r2
 555 0006 1F46     		mov	r7, r3
 289:Middlewares/Third_Party/LwIP/src/apps/mqtt/mqtt.c ****   u8_t n;
 556              		.loc 1 289 3 is_stmt 1 view .LVU126
 557              	.LVL47:
 290:Middlewares/Third_Party/LwIP/src/apps/mqtt/mqtt.c ****   LWIP_ASSERT("mqtt_create_request: r_objs != NULL", r_objs != NULL);
 558              		.loc 1 290 3 view .LVU127
 291:Middlewares/Third_Party/LwIP/src/apps/mqtt/mqtt.c ****   for (n = 0; n < r_objs_len; n++) {
 559              		.loc 1 291 3 view .LVU128
 291:Middlewares/Third_Party/LwIP/src/apps/mqtt/mqtt.c ****   for (n = 0; n < r_objs_len; n++) {
 560              		.loc 1 291 3 view .LVU129
 561 0008 0446     		mov	r4, r0
 562 000a 10B1     		cbz	r0, .L40
 563              	.LVL48:
 564              	.L34:
 291:Middlewares/Third_Party/LwIP/src/apps/mqtt/mqtt.c ****   for (n = 0; n < r_objs_len; n++) {
 565              		.loc 1 291 3 discriminator 3 view .LVU130
 291:Middlewares/Third_Party/LwIP/src/apps/mqtt/mqtt.c ****   for (n = 0; n < r_objs_len; n++) {
 566              		.loc 1 291 3 discriminator 3 view .LVU131
 292:Middlewares/Third_Party/LwIP/src/apps/mqtt/mqtt.c ****     /* Item point to itself if not in use */
 567              		.loc 1 292 3 discriminator 3 view .LVU132
 292:Middlewares/Third_Party/LwIP/src/apps/mqtt/mqtt.c ****     /* Item point to itself if not in use */
 568              		.loc 1 292 10 is_stmt 0 discriminator 3 view .LVU133
 569 000c 4FF0000C 		mov	ip, #0
 292:Middlewares/Third_Party/LwIP/src/apps/mqtt/mqtt.c ****     /* Item point to itself if not in use */
 570              		.loc 1 292 3 discriminator 3 view .LVU134
 571 0010 0BE0     		b	.L35
 572              	.LVL49:
 573              	.L40:
 291:Middlewares/Third_Party/LwIP/src/apps/mqtt/mqtt.c ****   for (n = 0; n < r_objs_len; n++) {
 574              		.loc 1 291 3 is_stmt 1 discriminator 1 view .LVU135
 291:Middlewares/Third_Party/LwIP/src/apps/mqtt/mqtt.c ****   for (n = 0; n < r_objs_len; n++) {
 575              		.loc 1 291 3 discriminator 1 view .LVU136
ARM GAS  /tmp/ccVfyJBo.s 			page 23


 576 0012 0F4B     		ldr	r3, .L42
 577              	.LVL50:
 291:Middlewares/Third_Party/LwIP/src/apps/mqtt/mqtt.c ****   for (n = 0; n < r_objs_len; n++) {
 578              		.loc 1 291 3 is_stmt 0 discriminator 1 view .LVU137
 579 0014 40F22312 		movw	r2, #291
 580              	.LVL51:
 291:Middlewares/Third_Party/LwIP/src/apps/mqtt/mqtt.c ****   for (n = 0; n < r_objs_len; n++) {
 581              		.loc 1 291 3 discriminator 1 view .LVU138
 582 0018 0E49     		ldr	r1, .L42+4
 583              	.LVL52:
 291:Middlewares/Third_Party/LwIP/src/apps/mqtt/mqtt.c ****   for (n = 0; n < r_objs_len; n++) {
 584              		.loc 1 291 3 discriminator 1 view .LVU139
 585 001a 0F48     		ldr	r0, .L42+8
 586              	.LVL53:
 291:Middlewares/Third_Party/LwIP/src/apps/mqtt/mqtt.c ****   for (n = 0; n < r_objs_len; n++) {
 587              		.loc 1 291 3 discriminator 1 view .LVU140
 588 001c FFF7FEFF 		bl	printf
 589              	.LVL54:
 590 0020 F4E7     		b	.L34
 591              	.LVL55:
 592              	.L36:
 292:Middlewares/Third_Party/LwIP/src/apps/mqtt/mqtt.c ****     /* Item point to itself if not in use */
 593              		.loc 1 292 31 is_stmt 1 discriminator 2 view .LVU141
 292:Middlewares/Third_Party/LwIP/src/apps/mqtt/mqtt.c ****     /* Item point to itself if not in use */
 594              		.loc 1 292 32 is_stmt 0 discriminator 2 view .LVU142
 595 0022 0CF1010C 		add	ip, ip, #1
 596              	.LVL56:
 292:Middlewares/Third_Party/LwIP/src/apps/mqtt/mqtt.c ****     /* Item point to itself if not in use */
 597              		.loc 1 292 32 discriminator 2 view .LVU143
 598 0026 5FFA8CFC 		uxtb	ip, ip
 599              	.LVL57:
 600              	.L35:
 292:Middlewares/Third_Party/LwIP/src/apps/mqtt/mqtt.c ****     /* Item point to itself if not in use */
 601              		.loc 1 292 15 is_stmt 1 discriminator 1 view .LVU144
 292:Middlewares/Third_Party/LwIP/src/apps/mqtt/mqtt.c ****     /* Item point to itself if not in use */
 602              		.loc 1 292 3 is_stmt 0 discriminator 1 view .LVU145
 603 002a AC45     		cmp	ip, r5
 604 002c 0ED2     		bcs	.L41
 294:Middlewares/Third_Party/LwIP/src/apps/mqtt/mqtt.c ****       r = &r_objs[n];
 605              		.loc 1 294 5 is_stmt 1 view .LVU146
 294:Middlewares/Third_Party/LwIP/src/apps/mqtt/mqtt.c ****       r = &r_objs[n];
 606              		.loc 1 294 15 is_stmt 0 view .LVU147
 607 002e 4FEA0C1E 		lsl	lr, ip, #4
 608 0032 04EB0C10 		add	r0, r4, ip, lsl #4
 294:Middlewares/Third_Party/LwIP/src/apps/mqtt/mqtt.c ****       r = &r_objs[n];
 609              		.loc 1 294 18 view .LVU148
 610 0036 54F80E30 		ldr	r3, [r4, lr]
 294:Middlewares/Third_Party/LwIP/src/apps/mqtt/mqtt.c ****       r = &r_objs[n];
 611              		.loc 1 294 8 view .LVU149
 612 003a 9842     		cmp	r0, r3
 613 003c F1D1     		bne	.L36
 295:Middlewares/Third_Party/LwIP/src/apps/mqtt/mqtt.c ****       r->next = NULL;
 614              		.loc 1 295 7 is_stmt 1 view .LVU150
 615              	.LVL58:
 296:Middlewares/Third_Party/LwIP/src/apps/mqtt/mqtt.c ****       r->cb = cb;
 616              		.loc 1 296 7 view .LVU151
 296:Middlewares/Third_Party/LwIP/src/apps/mqtt/mqtt.c ****       r->cb = cb;
ARM GAS  /tmp/ccVfyJBo.s 			page 24


 617              		.loc 1 296 15 is_stmt 0 view .LVU152
 618 003e 0023     		movs	r3, #0
 619 0040 0360     		str	r3, [r0]
 297:Middlewares/Third_Party/LwIP/src/apps/mqtt/mqtt.c ****       r->arg = arg;
 620              		.loc 1 297 7 is_stmt 1 view .LVU153
 297:Middlewares/Third_Party/LwIP/src/apps/mqtt/mqtt.c ****       r->arg = arg;
 621              		.loc 1 297 13 is_stmt 0 view .LVU154
 622 0042 4760     		str	r7, [r0, #4]
 298:Middlewares/Third_Party/LwIP/src/apps/mqtt/mqtt.c ****       r->pkt_id = pkt_id;
 623              		.loc 1 298 7 is_stmt 1 view .LVU155
 298:Middlewares/Third_Party/LwIP/src/apps/mqtt/mqtt.c ****       r->pkt_id = pkt_id;
 624              		.loc 1 298 14 is_stmt 0 view .LVU156
 625 0044 069B     		ldr	r3, [sp, #24]
 626 0046 8360     		str	r3, [r0, #8]
 299:Middlewares/Third_Party/LwIP/src/apps/mqtt/mqtt.c ****       break;
 627              		.loc 1 299 7 is_stmt 1 view .LVU157
 299:Middlewares/Third_Party/LwIP/src/apps/mqtt/mqtt.c ****       break;
 628              		.loc 1 299 17 is_stmt 0 view .LVU158
 629 0048 8681     		strh	r6, [r0, #12]	@ movhi
 300:Middlewares/Third_Party/LwIP/src/apps/mqtt/mqtt.c ****     }
 630              		.loc 1 300 7 is_stmt 1 view .LVU159
 631 004a 00E0     		b	.L33
 632              	.LVL59:
 633              	.L41:
 289:Middlewares/Third_Party/LwIP/src/apps/mqtt/mqtt.c ****   u8_t n;
 634              		.loc 1 289 26 is_stmt 0 view .LVU160
 635 004c 0020     		movs	r0, #0
 303:Middlewares/Third_Party/LwIP/src/apps/mqtt/mqtt.c **** }
 636              		.loc 1 303 3 is_stmt 1 view .LVU161
 637              	.LVL60:
 638              	.L33:
 304:Middlewares/Third_Party/LwIP/src/apps/mqtt/mqtt.c **** 
 639              		.loc 1 304 1 is_stmt 0 view .LVU162
 640 004e F8BD     		pop	{r3, r4, r5, r6, r7, pc}
 641              	.LVL61:
 642              	.L43:
 304:Middlewares/Third_Party/LwIP/src/apps/mqtt/mqtt.c **** 
 643              		.loc 1 304 1 view .LVU163
 644              		.align	2
 645              	.L42:
 646 0050 00000000 		.word	.LC0
 647 0054 34000000 		.word	.LC1
 648 0058 58000000 		.word	.LC2
 649              		.cfi_endproc
 650              	.LFE173:
 652              		.section	.rodata.mqtt_output_check_space.str1.4,"aMS",%progbits,1
 653              		.align	2
 654              	.LC3:
 655 0000 6D717474 		.ascii	"mqtt_output_check_space: rb != NULL\000"
 655      5F6F7574 
 655      7075745F 
 655      63686563 
 655      6B5F7370 
 656              		.section	.text.mqtt_output_check_space,"ax",%progbits
 657              		.align	1
 658              		.syntax unified
 659              		.thumb
ARM GAS  /tmp/ccVfyJBo.s 			page 25


 660              		.thumb_func
 662              	mqtt_output_check_space:
 663              	.LVL62:
 664              	.LFB185:
 515:Middlewares/Third_Party/LwIP/src/apps/mqtt/mqtt.c ****   /* Start with length of type byte + remaining length */
 665              		.loc 1 515 1 is_stmt 1 view -0
 666              		.cfi_startproc
 667              		@ args = 0, pretend = 0, frame = 0
 668              		@ frame_needed = 0, uses_anonymous_args = 0
 515:Middlewares/Third_Party/LwIP/src/apps/mqtt/mqtt.c ****   /* Start with length of type byte + remaining length */
 669              		.loc 1 515 1 is_stmt 0 view .LVU165
 670 0000 70B5     		push	{r4, r5, r6, lr}
 671              	.LCFI7:
 672              		.cfi_def_cfa_offset 16
 673              		.cfi_offset 4, -16
 674              		.cfi_offset 5, -12
 675              		.cfi_offset 6, -8
 676              		.cfi_offset 14, -4
 677 0002 0D46     		mov	r5, r1
 517:Middlewares/Third_Party/LwIP/src/apps/mqtt/mqtt.c **** 
 678              		.loc 1 517 3 is_stmt 1 view .LVU166
 517:Middlewares/Third_Party/LwIP/src/apps/mqtt/mqtt.c **** 
 679              		.loc 1 517 9 is_stmt 0 view .LVU167
 680 0004 4C1C     		adds	r4, r1, #1
 681 0006 A4B2     		uxth	r4, r4
 682              	.LVL63:
 519:Middlewares/Third_Party/LwIP/src/apps/mqtt/mqtt.c **** 
 683              		.loc 1 519 3 is_stmt 1 view .LVU168
 519:Middlewares/Third_Party/LwIP/src/apps/mqtt/mqtt.c **** 
 684              		.loc 1 519 3 view .LVU169
 685 0008 0646     		mov	r6, r0
 686 000a 68B1     		cbz	r0, .L48
 687              	.LVL64:
 688              	.L46:
 519:Middlewares/Third_Party/LwIP/src/apps/mqtt/mqtt.c **** 
 689              		.loc 1 519 3 discriminator 1 view .LVU170
 519:Middlewares/Third_Party/LwIP/src/apps/mqtt/mqtt.c **** 
 690              		.loc 1 519 3 discriminator 1 view .LVU171
 522:Middlewares/Third_Party/LwIP/src/apps/mqtt/mqtt.c ****     total_len++;
 691              		.loc 1 522 3 discriminator 1 view .LVU172
 523:Middlewares/Third_Party/LwIP/src/apps/mqtt/mqtt.c ****     r_length >>= 7;
 692              		.loc 1 523 5 discriminator 1 view .LVU173
 523:Middlewares/Third_Party/LwIP/src/apps/mqtt/mqtt.c ****     r_length >>= 7;
 693              		.loc 1 523 14 is_stmt 0 discriminator 1 view .LVU174
 694 000c 0134     		adds	r4, r4, #1
 695              	.LVL65:
 523:Middlewares/Third_Party/LwIP/src/apps/mqtt/mqtt.c ****     r_length >>= 7;
 696              		.loc 1 523 14 discriminator 1 view .LVU175
 697 000e A4B2     		uxth	r4, r4
 698              	.LVL66:
 524:Middlewares/Third_Party/LwIP/src/apps/mqtt/mqtt.c ****   } while (r_length > 0);
 699              		.loc 1 524 5 is_stmt 1 discriminator 1 view .LVU176
 525:Middlewares/Third_Party/LwIP/src/apps/mqtt/mqtt.c **** 
 700              		.loc 1 525 11 discriminator 1 view .LVU177
 525:Middlewares/Third_Party/LwIP/src/apps/mqtt/mqtt.c **** 
 701              		.loc 1 525 3 is_stmt 0 discriminator 1 view .LVU178
 702 0010 ED09     		lsrs	r5, r5, #7
ARM GAS  /tmp/ccVfyJBo.s 			page 26


 703              	.LVL67:
 525:Middlewares/Third_Party/LwIP/src/apps/mqtt/mqtt.c **** 
 704              		.loc 1 525 3 discriminator 1 view .LVU179
 705 0012 FBD1     		bne	.L46
 527:Middlewares/Third_Party/LwIP/src/apps/mqtt/mqtt.c **** }
 706              		.loc 1 527 3 is_stmt 1 view .LVU180
 527:Middlewares/Third_Party/LwIP/src/apps/mqtt/mqtt.c **** }
 707              		.loc 1 527 24 is_stmt 0 view .LVU181
 708 0014 3046     		mov	r0, r6
 709 0016 FFF7FEFF 		bl	mqtt_ringbuf_len
 710              	.LVL68:
 711 001a C0F58070 		rsb	r0, r0, #256
 528:Middlewares/Third_Party/LwIP/src/apps/mqtt/mqtt.c **** 
 712              		.loc 1 528 1 view .LVU182
 713 001e 8442     		cmp	r4, r0
 714 0020 CCBF     		ite	gt
 715 0022 0020     		movgt	r0, #0
 716 0024 0120     		movle	r0, #1
 717 0026 70BD     		pop	{r4, r5, r6, pc}
 718              	.LVL69:
 719              	.L48:
 519:Middlewares/Third_Party/LwIP/src/apps/mqtt/mqtt.c **** 
 720              		.loc 1 519 3 is_stmt 1 discriminator 1 view .LVU183
 519:Middlewares/Third_Party/LwIP/src/apps/mqtt/mqtt.c **** 
 721              		.loc 1 519 3 discriminator 1 view .LVU184
 722 0028 034B     		ldr	r3, .L49
 723 002a 40F20722 		movw	r2, #519
 724 002e 0349     		ldr	r1, .L49+4
 725              	.LVL70:
 519:Middlewares/Third_Party/LwIP/src/apps/mqtt/mqtt.c **** 
 726              		.loc 1 519 3 is_stmt 0 discriminator 1 view .LVU185
 727 0030 0348     		ldr	r0, .L49+8
 728              	.LVL71:
 519:Middlewares/Third_Party/LwIP/src/apps/mqtt/mqtt.c **** 
 729              		.loc 1 519 3 discriminator 1 view .LVU186
 730 0032 FFF7FEFF 		bl	printf
 731              	.LVL72:
 732 0036 E9E7     		b	.L46
 733              	.L50:
 734              		.align	2
 735              	.L49:
 736 0038 00000000 		.word	.LC0
 737 003c 00000000 		.word	.LC3
 738 0040 58000000 		.word	.LC2
 739              		.cfi_endproc
 740              	.LFE185:
 742              		.section	.rodata.mqtt_append_request.str1.4,"aMS",%progbits,1
 743              		.align	2
 744              	.LC4:
 745 0000 6D717474 		.ascii	"mqtt_append_request: tail != NULL\000"
 745      5F617070 
 745      656E645F 
 745      72657175 
 745      6573743A 
 746 0022 0000     		.align	2
 747              	.LC5:
 748 0024 6D717474 		.ascii	"mqtt_append_request: time_before <= MQTT_REQ_TIMEOU"
ARM GAS  /tmp/ccVfyJBo.s 			page 27


 748      5F617070 
 748      656E645F 
 748      72657175 
 748      6573743A 
 749 0057 5400     		.ascii	"T\000"
 750              		.section	.text.mqtt_append_request,"ax",%progbits
 751              		.align	1
 752              		.syntax unified
 753              		.thumb
 754              		.thumb_func
 756              	mqtt_append_request:
 757              	.LVL73:
 758              	.LFB174:
 314:Middlewares/Third_Party/LwIP/src/apps/mqtt/mqtt.c ****   struct mqtt_request_t *head = NULL;
 759              		.loc 1 314 1 is_stmt 1 view -0
 760              		.cfi_startproc
 761              		@ args = 0, pretend = 0, frame = 0
 762              		@ frame_needed = 0, uses_anonymous_args = 0
 314:Middlewares/Third_Party/LwIP/src/apps/mqtt/mqtt.c ****   struct mqtt_request_t *head = NULL;
 763              		.loc 1 314 1 is_stmt 0 view .LVU188
 764 0000 F8B5     		push	{r3, r4, r5, r6, r7, lr}
 765              	.LCFI8:
 766              		.cfi_def_cfa_offset 24
 767              		.cfi_offset 3, -24
 768              		.cfi_offset 4, -20
 769              		.cfi_offset 5, -16
 770              		.cfi_offset 6, -12
 771              		.cfi_offset 7, -8
 772              		.cfi_offset 14, -4
 773 0002 0E46     		mov	r6, r1
 315:Middlewares/Third_Party/LwIP/src/apps/mqtt/mqtt.c ****   s16_t time_before = 0;
 774              		.loc 1 315 3 is_stmt 1 view .LVU189
 775              	.LVL74:
 316:Middlewares/Third_Party/LwIP/src/apps/mqtt/mqtt.c ****   struct mqtt_request_t *iter;
 776              		.loc 1 316 3 view .LVU190
 317:Middlewares/Third_Party/LwIP/src/apps/mqtt/mqtt.c **** 
 777              		.loc 1 317 3 view .LVU191
 319:Middlewares/Third_Party/LwIP/src/apps/mqtt/mqtt.c **** 
 778              		.loc 1 319 3 view .LVU192
 319:Middlewares/Third_Party/LwIP/src/apps/mqtt/mqtt.c **** 
 779              		.loc 1 319 3 view .LVU193
 780 0004 0746     		mov	r7, r0
 781 0006 18B1     		cbz	r0, .L59
 782              	.LVL75:
 783              	.L52:
 319:Middlewares/Third_Party/LwIP/src/apps/mqtt/mqtt.c **** 
 784              		.loc 1 319 3 discriminator 3 view .LVU194
 319:Middlewares/Third_Party/LwIP/src/apps/mqtt/mqtt.c **** 
 785              		.loc 1 319 3 discriminator 3 view .LVU195
 322:Middlewares/Third_Party/LwIP/src/apps/mqtt/mqtt.c ****     time_before += iter->timeout_diff;
 786              		.loc 1 322 3 discriminator 3 view .LVU196
 322:Middlewares/Third_Party/LwIP/src/apps/mqtt/mqtt.c ****     time_before += iter->timeout_diff;
 787              		.loc 1 322 13 is_stmt 0 discriminator 3 view .LVU197
 788 0008 3B68     		ldr	r3, [r7]
 789              	.LVL76:
 316:Middlewares/Third_Party/LwIP/src/apps/mqtt/mqtt.c ****   struct mqtt_request_t *iter;
 790              		.loc 1 316 9 discriminator 3 view .LVU198
ARM GAS  /tmp/ccVfyJBo.s 			page 28


 791 000a 0024     		movs	r4, #0
 315:Middlewares/Third_Party/LwIP/src/apps/mqtt/mqtt.c ****   s16_t time_before = 0;
 792              		.loc 1 315 26 discriminator 3 view .LVU199
 793 000c 2546     		mov	r5, r4
 322:Middlewares/Third_Party/LwIP/src/apps/mqtt/mqtt.c ****     time_before += iter->timeout_diff;
 794              		.loc 1 322 3 discriminator 3 view .LVU200
 795 000e 0CE0     		b	.L53
 796              	.LVL77:
 797              	.L59:
 319:Middlewares/Third_Party/LwIP/src/apps/mqtt/mqtt.c **** 
 798              		.loc 1 319 3 is_stmt 1 discriminator 1 view .LVU201
 319:Middlewares/Third_Party/LwIP/src/apps/mqtt/mqtt.c **** 
 799              		.loc 1 319 3 discriminator 1 view .LVU202
 800 0010 104B     		ldr	r3, .L62
 801 0012 40F23F12 		movw	r2, #319
 802 0016 1049     		ldr	r1, .L62+4
 803              	.LVL78:
 319:Middlewares/Third_Party/LwIP/src/apps/mqtt/mqtt.c **** 
 804              		.loc 1 319 3 is_stmt 0 discriminator 1 view .LVU203
 805 0018 1048     		ldr	r0, .L62+8
 806              	.LVL79:
 319:Middlewares/Third_Party/LwIP/src/apps/mqtt/mqtt.c **** 
 807              		.loc 1 319 3 discriminator 1 view .LVU204
 808 001a FFF7FEFF 		bl	printf
 809              	.LVL80:
 810 001e F3E7     		b	.L52
 811              	.LVL81:
 812              	.L54:
 323:Middlewares/Third_Party/LwIP/src/apps/mqtt/mqtt.c ****     head = iter;
 813              		.loc 1 323 5 is_stmt 1 discriminator 3 view .LVU205
 323:Middlewares/Third_Party/LwIP/src/apps/mqtt/mqtt.c ****     head = iter;
 814              		.loc 1 323 24 is_stmt 0 discriminator 3 view .LVU206
 815 0020 DA89     		ldrh	r2, [r3, #14]
 323:Middlewares/Third_Party/LwIP/src/apps/mqtt/mqtt.c ****     head = iter;
 816              		.loc 1 323 17 discriminator 3 view .LVU207
 817 0022 1444     		add	r4, r4, r2
 818              	.LVL82:
 323:Middlewares/Third_Party/LwIP/src/apps/mqtt/mqtt.c ****     head = iter;
 819              		.loc 1 323 17 discriminator 3 view .LVU208
 820 0024 24B2     		sxth	r4, r4
 821              	.LVL83:
 324:Middlewares/Third_Party/LwIP/src/apps/mqtt/mqtt.c ****   }
 822              		.loc 1 324 5 is_stmt 1 discriminator 3 view .LVU209
 322:Middlewares/Third_Party/LwIP/src/apps/mqtt/mqtt.c ****     time_before += iter->timeout_diff;
 823              		.loc 1 322 36 discriminator 3 view .LVU210
 324:Middlewares/Third_Party/LwIP/src/apps/mqtt/mqtt.c ****   }
 824              		.loc 1 324 10 is_stmt 0 discriminator 3 view .LVU211
 825 0026 1D46     		mov	r5, r3
 322:Middlewares/Third_Party/LwIP/src/apps/mqtt/mqtt.c ****     time_before += iter->timeout_diff;
 826              		.loc 1 322 41 discriminator 3 view .LVU212
 827 0028 1B68     		ldr	r3, [r3]
 828              	.LVL84:
 829              	.L53:
 322:Middlewares/Third_Party/LwIP/src/apps/mqtt/mqtt.c ****     time_before += iter->timeout_diff;
 830              		.loc 1 322 22 is_stmt 1 discriminator 1 view .LVU213
 322:Middlewares/Third_Party/LwIP/src/apps/mqtt/mqtt.c ****     time_before += iter->timeout_diff;
 831              		.loc 1 322 3 is_stmt 0 discriminator 1 view .LVU214
ARM GAS  /tmp/ccVfyJBo.s 			page 29


 832 002a 002B     		cmp	r3, #0
 833 002c F8D1     		bne	.L54
 327:Middlewares/Third_Party/LwIP/src/apps/mqtt/mqtt.c ****   r->timeout_diff = MQTT_REQ_TIMEOUT - time_before;
 834              		.loc 1 327 3 is_stmt 1 view .LVU215
 327:Middlewares/Third_Party/LwIP/src/apps/mqtt/mqtt.c ****   r->timeout_diff = MQTT_REQ_TIMEOUT - time_before;
 835              		.loc 1 327 3 view .LVU216
 836 002e 1E2C     		cmp	r4, #30
 837 0030 05DC     		bgt	.L60
 838              	.LVL85:
 839              	.L55:
 327:Middlewares/Third_Party/LwIP/src/apps/mqtt/mqtt.c ****   r->timeout_diff = MQTT_REQ_TIMEOUT - time_before;
 840              		.loc 1 327 3 discriminator 3 view .LVU217
 327:Middlewares/Third_Party/LwIP/src/apps/mqtt/mqtt.c ****   r->timeout_diff = MQTT_REQ_TIMEOUT - time_before;
 841              		.loc 1 327 3 discriminator 3 view .LVU218
 328:Middlewares/Third_Party/LwIP/src/apps/mqtt/mqtt.c ****   if (head == NULL) {
 842              		.loc 1 328 3 discriminator 3 view .LVU219
 328:Middlewares/Third_Party/LwIP/src/apps/mqtt/mqtt.c ****   if (head == NULL) {
 843              		.loc 1 328 38 is_stmt 0 discriminator 3 view .LVU220
 844 0032 C4F11E04 		rsb	r4, r4, #30
 845              	.LVL86:
 328:Middlewares/Third_Party/LwIP/src/apps/mqtt/mqtt.c ****   if (head == NULL) {
 846              		.loc 1 328 19 discriminator 3 view .LVU221
 847 0036 F481     		strh	r4, [r6, #14]	@ movhi
 329:Middlewares/Third_Party/LwIP/src/apps/mqtt/mqtt.c ****     *tail = r;
 848              		.loc 1 329 3 is_stmt 1 discriminator 3 view .LVU222
 329:Middlewares/Third_Party/LwIP/src/apps/mqtt/mqtt.c ****     *tail = r;
 849              		.loc 1 329 6 is_stmt 0 discriminator 3 view .LVU223
 850 0038 4DB1     		cbz	r5, .L61
 332:Middlewares/Third_Party/LwIP/src/apps/mqtt/mqtt.c ****   }
 851              		.loc 1 332 5 is_stmt 1 view .LVU224
 332:Middlewares/Third_Party/LwIP/src/apps/mqtt/mqtt.c ****   }
 852              		.loc 1 332 16 is_stmt 0 view .LVU225
 853 003a 2E60     		str	r6, [r5]
 854              	.L51:
 334:Middlewares/Third_Party/LwIP/src/apps/mqtt/mqtt.c **** 
 855              		.loc 1 334 1 view .LVU226
 856 003c F8BD     		pop	{r3, r4, r5, r6, r7, pc}
 857              	.LVL87:
 858              	.L60:
 327:Middlewares/Third_Party/LwIP/src/apps/mqtt/mqtt.c ****   r->timeout_diff = MQTT_REQ_TIMEOUT - time_before;
 859              		.loc 1 327 3 is_stmt 1 discriminator 1 view .LVU227
 327:Middlewares/Third_Party/LwIP/src/apps/mqtt/mqtt.c ****   r->timeout_diff = MQTT_REQ_TIMEOUT - time_before;
 860              		.loc 1 327 3 discriminator 1 view .LVU228
 861 003e 054B     		ldr	r3, .L62
 862              	.LVL88:
 327:Middlewares/Third_Party/LwIP/src/apps/mqtt/mqtt.c ****   r->timeout_diff = MQTT_REQ_TIMEOUT - time_before;
 863              		.loc 1 327 3 is_stmt 0 discriminator 1 view .LVU229
 864 0040 40F24712 		movw	r2, #327
 865 0044 0649     		ldr	r1, .L62+12
 866 0046 0548     		ldr	r0, .L62+8
 867 0048 FFF7FEFF 		bl	printf
 868              	.LVL89:
 869 004c F1E7     		b	.L55
 870              	.LVL90:
 871              	.L61:
 330:Middlewares/Third_Party/LwIP/src/apps/mqtt/mqtt.c ****   } else {
 872              		.loc 1 330 5 is_stmt 1 view .LVU230
ARM GAS  /tmp/ccVfyJBo.s 			page 30


 330:Middlewares/Third_Party/LwIP/src/apps/mqtt/mqtt.c ****   } else {
 873              		.loc 1 330 11 is_stmt 0 view .LVU231
 874 004e 3E60     		str	r6, [r7]
 875 0050 F4E7     		b	.L51
 876              	.L63:
 877 0052 00BF     		.align	2
 878              	.L62:
 879 0054 00000000 		.word	.LC0
 880 0058 00000000 		.word	.LC4
 881 005c 58000000 		.word	.LC2
 882 0060 24000000 		.word	.LC5
 883              		.cfi_endproc
 884              	.LFE174:
 886              		.section	.rodata.mqtt_ringbuf_advance_get_idx.str1.4,"aMS",%progbits,1
 887              		.align	2
 888              	.LC6:
 889 0000 6D717474 		.ascii	"mqtt_ringbuf_advance_get_idx: len < MQTT_OUTPUT_RIN"
 889      5F72696E 
 889      67627566 
 889      5F616476 
 889      616E6365 
 890 0033 47425546 		.ascii	"GBUF_SIZE\000"
 890      5F53495A 
 890      4500
 891              		.section	.text.mqtt_ringbuf_advance_get_idx,"ax",%progbits
 892              		.align	1
 893              		.syntax unified
 894              		.thumb
 895              		.thumb_func
 897              	mqtt_ringbuf_advance_get_idx:
 898              	.LVL91:
 899              	.LFB170:
 202:Middlewares/Third_Party/LwIP/src/apps/mqtt/mqtt.c ****   LWIP_ASSERT("mqtt_ringbuf_advance_get_idx: len < MQTT_OUTPUT_RINGBUF_SIZE", len < MQTT_OUTPUT_RIN
 900              		.loc 1 202 1 is_stmt 1 view -0
 901              		.cfi_startproc
 902              		@ args = 0, pretend = 0, frame = 0
 903              		@ frame_needed = 0, uses_anonymous_args = 0
 202:Middlewares/Third_Party/LwIP/src/apps/mqtt/mqtt.c ****   LWIP_ASSERT("mqtt_ringbuf_advance_get_idx: len < MQTT_OUTPUT_RINGBUF_SIZE", len < MQTT_OUTPUT_RIN
 904              		.loc 1 202 1 is_stmt 0 view .LVU233
 905 0000 38B5     		push	{r3, r4, r5, lr}
 906              	.LCFI9:
 907              		.cfi_def_cfa_offset 16
 908              		.cfi_offset 3, -16
 909              		.cfi_offset 4, -12
 910              		.cfi_offset 5, -8
 911              		.cfi_offset 14, -4
 912 0002 0546     		mov	r5, r0
 913 0004 0C46     		mov	r4, r1
 203:Middlewares/Third_Party/LwIP/src/apps/mqtt/mqtt.c **** 
 914              		.loc 1 203 3 is_stmt 1 view .LVU234
 203:Middlewares/Third_Party/LwIP/src/apps/mqtt/mqtt.c **** 
 915              		.loc 1 203 3 view .LVU235
 916 0006 FF29     		cmp	r1, #255
 917 0008 09D8     		bhi	.L68
 918              	.LVL92:
 919              	.L65:
 203:Middlewares/Third_Party/LwIP/src/apps/mqtt/mqtt.c **** 
ARM GAS  /tmp/ccVfyJBo.s 			page 31


 920              		.loc 1 203 3 discriminator 3 view .LVU236
 203:Middlewares/Third_Party/LwIP/src/apps/mqtt/mqtt.c **** 
 921              		.loc 1 203 3 discriminator 3 view .LVU237
 205:Middlewares/Third_Party/LwIP/src/apps/mqtt/mqtt.c ****   if (rb->get >= MQTT_OUTPUT_RINGBUF_SIZE) {
 922              		.loc 1 205 3 discriminator 3 view .LVU238
 205:Middlewares/Third_Party/LwIP/src/apps/mqtt/mqtt.c ****   if (rb->get >= MQTT_OUTPUT_RINGBUF_SIZE) {
 923              		.loc 1 205 11 is_stmt 0 discriminator 3 view .LVU239
 924 000a 6988     		ldrh	r1, [r5, #2]
 925 000c 2144     		add	r1, r1, r4
 926 000e 89B2     		uxth	r1, r1
 927 0010 6980     		strh	r1, [r5, #2]	@ movhi
 206:Middlewares/Third_Party/LwIP/src/apps/mqtt/mqtt.c ****     rb->get = rb->get - MQTT_OUTPUT_RINGBUF_SIZE;
 928              		.loc 1 206 3 is_stmt 1 discriminator 3 view .LVU240
 206:Middlewares/Third_Party/LwIP/src/apps/mqtt/mqtt.c ****     rb->get = rb->get - MQTT_OUTPUT_RINGBUF_SIZE;
 929              		.loc 1 206 6 is_stmt 0 discriminator 3 view .LVU241
 930 0012 FF29     		cmp	r1, #255
 931 0014 02D9     		bls	.L64
 207:Middlewares/Third_Party/LwIP/src/apps/mqtt/mqtt.c ****   }
 932              		.loc 1 207 5 is_stmt 1 view .LVU242
 207:Middlewares/Third_Party/LwIP/src/apps/mqtt/mqtt.c ****   }
 933              		.loc 1 207 23 is_stmt 0 view .LVU243
 934 0016 A1F58071 		sub	r1, r1, #256
 207:Middlewares/Third_Party/LwIP/src/apps/mqtt/mqtt.c ****   }
 935              		.loc 1 207 13 view .LVU244
 936 001a 6980     		strh	r1, [r5, #2]	@ movhi
 937              	.L64:
 209:Middlewares/Third_Party/LwIP/src/apps/mqtt/mqtt.c **** 
 938              		.loc 1 209 1 view .LVU245
 939 001c 38BD     		pop	{r3, r4, r5, pc}
 940              	.LVL93:
 941              	.L68:
 203:Middlewares/Third_Party/LwIP/src/apps/mqtt/mqtt.c **** 
 942              		.loc 1 203 3 is_stmt 1 discriminator 1 view .LVU246
 203:Middlewares/Third_Party/LwIP/src/apps/mqtt/mqtt.c **** 
 943              		.loc 1 203 3 discriminator 1 view .LVU247
 944 001e 034B     		ldr	r3, .L69
 945 0020 CB22     		movs	r2, #203
 946 0022 0349     		ldr	r1, .L69+4
 947              	.LVL94:
 203:Middlewares/Third_Party/LwIP/src/apps/mqtt/mqtt.c **** 
 948              		.loc 1 203 3 is_stmt 0 discriminator 1 view .LVU248
 949 0024 0348     		ldr	r0, .L69+8
 950              	.LVL95:
 203:Middlewares/Third_Party/LwIP/src/apps/mqtt/mqtt.c **** 
 951              		.loc 1 203 3 discriminator 1 view .LVU249
 952 0026 FFF7FEFF 		bl	printf
 953              	.LVL96:
 954 002a EEE7     		b	.L65
 955              	.L70:
 956              		.align	2
 957              	.L69:
 958 002c 00000000 		.word	.LC0
 959 0030 00000000 		.word	.LC6
 960 0034 58000000 		.word	.LC2
 961              		.cfi_endproc
 962              	.LFE170:
 964              		.section	.rodata.mqtt_request_time_elapsed.str1.4,"aMS",%progbits,1
ARM GAS  /tmp/ccVfyJBo.s 			page 32


 965              		.align	2
 966              	.LC7:
 967 0000 6D717474 		.ascii	"mqtt_request_time_elapsed: tail != NULL\000"
 967      5F726571 
 967      75657374 
 967      5F74696D 
 967      655F656C 
 968              		.section	.text.mqtt_request_time_elapsed,"ax",%progbits
 969              		.align	1
 970              		.syntax unified
 971              		.thumb
 972              		.thumb_func
 974              	mqtt_request_time_elapsed:
 975              	.LVL97:
 976              	.LFB177:
 392:Middlewares/Third_Party/LwIP/src/apps/mqtt/mqtt.c ****   struct mqtt_request_t *r;
 977              		.loc 1 392 1 is_stmt 1 view -0
 978              		.cfi_startproc
 979              		@ args = 0, pretend = 0, frame = 0
 980              		@ frame_needed = 0, uses_anonymous_args = 0
 392:Middlewares/Third_Party/LwIP/src/apps/mqtt/mqtt.c ****   struct mqtt_request_t *r;
 981              		.loc 1 392 1 is_stmt 0 view .LVU251
 982 0000 70B5     		push	{r4, r5, r6, lr}
 983              	.LCFI10:
 984              		.cfi_def_cfa_offset 16
 985              		.cfi_offset 4, -16
 986              		.cfi_offset 5, -12
 987              		.cfi_offset 6, -8
 988              		.cfi_offset 14, -4
 989 0002 0D46     		mov	r5, r1
 393:Middlewares/Third_Party/LwIP/src/apps/mqtt/mqtt.c ****   LWIP_ASSERT("mqtt_request_time_elapsed: tail != NULL", tail != NULL);
 990              		.loc 1 393 3 is_stmt 1 view .LVU252
 394:Middlewares/Third_Party/LwIP/src/apps/mqtt/mqtt.c ****   r = *tail;
 991              		.loc 1 394 3 view .LVU253
 394:Middlewares/Third_Party/LwIP/src/apps/mqtt/mqtt.c ****   r = *tail;
 992              		.loc 1 394 3 view .LVU254
 993 0004 0646     		mov	r6, r0
 994 0006 08B1     		cbz	r0, .L79
 995              	.LVL98:
 996              	.L72:
 394:Middlewares/Third_Party/LwIP/src/apps/mqtt/mqtt.c ****   r = *tail;
 997              		.loc 1 394 3 discriminator 3 view .LVU255
 394:Middlewares/Third_Party/LwIP/src/apps/mqtt/mqtt.c ****   r = *tail;
 998              		.loc 1 394 3 discriminator 3 view .LVU256
 395:Middlewares/Third_Party/LwIP/src/apps/mqtt/mqtt.c ****   while (t > 0 && r != NULL) {
 999              		.loc 1 395 3 discriminator 3 view .LVU257
 395:Middlewares/Third_Party/LwIP/src/apps/mqtt/mqtt.c ****   while (t > 0 && r != NULL) {
 1000              		.loc 1 395 5 is_stmt 0 discriminator 3 view .LVU258
 1001 0008 3468     		ldr	r4, [r6]
 1002              	.LVL99:
 396:Middlewares/Third_Party/LwIP/src/apps/mqtt/mqtt.c ****     if (t >= r->timeout_diff) {
 1003              		.loc 1 396 3 is_stmt 1 discriminator 3 view .LVU259
 396:Middlewares/Third_Party/LwIP/src/apps/mqtt/mqtt.c ****     if (t >= r->timeout_diff) {
 1004              		.loc 1 396 9 is_stmt 0 discriminator 3 view .LVU260
 1005 000a 0BE0     		b	.L73
 1006              	.LVL100:
 1007              	.L79:
ARM GAS  /tmp/ccVfyJBo.s 			page 33


 394:Middlewares/Third_Party/LwIP/src/apps/mqtt/mqtt.c ****   r = *tail;
 1008              		.loc 1 394 3 is_stmt 1 discriminator 1 view .LVU261
 394:Middlewares/Third_Party/LwIP/src/apps/mqtt/mqtt.c ****   r = *tail;
 1009              		.loc 1 394 3 discriminator 1 view .LVU262
 1010 000c 124B     		ldr	r3, .L81
 1011 000e 4FF4C572 		mov	r2, #394
 1012 0012 1249     		ldr	r1, .L81+4
 1013              	.LVL101:
 394:Middlewares/Third_Party/LwIP/src/apps/mqtt/mqtt.c ****   r = *tail;
 1014              		.loc 1 394 3 is_stmt 0 discriminator 1 view .LVU263
 1015 0014 1248     		ldr	r0, .L81+8
 1016              	.LVL102:
 394:Middlewares/Third_Party/LwIP/src/apps/mqtt/mqtt.c ****   r = *tail;
 1017              		.loc 1 394 3 discriminator 1 view .LVU264
 1018 0016 FFF7FEFF 		bl	printf
 1019              	.LVL103:
 1020 001a F5E7     		b	.L72
 1021              	.LVL104:
 1022              	.L75:
 405:Middlewares/Third_Party/LwIP/src/apps/mqtt/mqtt.c ****       /* Tail might be be modified in callback, so re-read it in every iteration */
 1023              		.loc 1 405 7 is_stmt 1 view .LVU265
 1024 001c 2046     		mov	r0, r4
 1025 001e FFF7FEFF 		bl	mqtt_delete_request
 1026              	.LVL105:
 407:Middlewares/Third_Party/LwIP/src/apps/mqtt/mqtt.c ****     } else {
 1027              		.loc 1 407 7 view .LVU266
 407:Middlewares/Third_Party/LwIP/src/apps/mqtt/mqtt.c ****     } else {
 1028              		.loc 1 407 9 is_stmt 0 view .LVU267
 1029 0022 3468     		ldr	r4, [r6]
 1030              	.LVL106:
 1031              	.L73:
 396:Middlewares/Third_Party/LwIP/src/apps/mqtt/mqtt.c ****     if (t >= r->timeout_diff) {
 1032              		.loc 1 396 9 is_stmt 1 view .LVU268
 1033 0024 002D     		cmp	r5, #0
 1034 0026 18BF     		it	ne
 1035 0028 002C     		cmpne	r4, #0
 1036 002a 14D0     		beq	.L80
 397:Middlewares/Third_Party/LwIP/src/apps/mqtt/mqtt.c ****       t -= (u8_t)r->timeout_diff;
 1037              		.loc 1 397 5 view .LVU269
 397:Middlewares/Third_Party/LwIP/src/apps/mqtt/mqtt.c ****       t -= (u8_t)r->timeout_diff;
 1038              		.loc 1 397 11 is_stmt 0 view .LVU270
 1039 002c AAB2     		uxth	r2, r5
 397:Middlewares/Third_Party/LwIP/src/apps/mqtt/mqtt.c ****       t -= (u8_t)r->timeout_diff;
 1040              		.loc 1 397 15 view .LVU271
 1041 002e E389     		ldrh	r3, [r4, #14]
 397:Middlewares/Third_Party/LwIP/src/apps/mqtt/mqtt.c ****       t -= (u8_t)r->timeout_diff;
 1042              		.loc 1 397 8 view .LVU272
 1043 0030 9A42     		cmp	r2, r3
 1044 0032 0CD3     		bcc	.L74
 398:Middlewares/Third_Party/LwIP/src/apps/mqtt/mqtt.c ****       /* Unchain */
 1045              		.loc 1 398 7 is_stmt 1 view .LVU273
 398:Middlewares/Third_Party/LwIP/src/apps/mqtt/mqtt.c ****       /* Unchain */
 1046              		.loc 1 398 12 is_stmt 0 view .LVU274
 1047 0034 DBB2     		uxtb	r3, r3
 398:Middlewares/Third_Party/LwIP/src/apps/mqtt/mqtt.c ****       /* Unchain */
 1048              		.loc 1 398 9 view .LVU275
 1049 0036 EB1A     		subs	r3, r5, r3
ARM GAS  /tmp/ccVfyJBo.s 			page 34


 1050 0038 DDB2     		uxtb	r5, r3
 1051              	.LVL107:
 400:Middlewares/Third_Party/LwIP/src/apps/mqtt/mqtt.c ****       /* Notify upper layer about timeout */
 1052              		.loc 1 400 7 is_stmt 1 view .LVU276
 400:Middlewares/Third_Party/LwIP/src/apps/mqtt/mqtt.c ****       /* Notify upper layer about timeout */
 1053              		.loc 1 400 16 is_stmt 0 view .LVU277
 1054 003a 2368     		ldr	r3, [r4]
 400:Middlewares/Third_Party/LwIP/src/apps/mqtt/mqtt.c ****       /* Notify upper layer about timeout */
 1055              		.loc 1 400 13 view .LVU278
 1056 003c 3360     		str	r3, [r6]
 402:Middlewares/Third_Party/LwIP/src/apps/mqtt/mqtt.c ****         r->cb(r->arg, ERR_TIMEOUT);
 1057              		.loc 1 402 7 is_stmt 1 view .LVU279
 402:Middlewares/Third_Party/LwIP/src/apps/mqtt/mqtt.c ****         r->cb(r->arg, ERR_TIMEOUT);
 1058              		.loc 1 402 12 is_stmt 0 view .LVU280
 1059 003e 6368     		ldr	r3, [r4, #4]
 402:Middlewares/Third_Party/LwIP/src/apps/mqtt/mqtt.c ****         r->cb(r->arg, ERR_TIMEOUT);
 1060              		.loc 1 402 10 view .LVU281
 1061 0040 002B     		cmp	r3, #0
 1062 0042 EBD0     		beq	.L75
 403:Middlewares/Third_Party/LwIP/src/apps/mqtt/mqtt.c ****       }
 1063              		.loc 1 403 9 is_stmt 1 view .LVU282
 1064 0044 6FF00201 		mvn	r1, #2
 1065 0048 A068     		ldr	r0, [r4, #8]
 1066 004a 9847     		blx	r3
 1067              	.LVL108:
 1068 004c E6E7     		b	.L75
 1069              	.L74:
 409:Middlewares/Third_Party/LwIP/src/apps/mqtt/mqtt.c ****       t = 0;
 1070              		.loc 1 409 7 view .LVU283
 409:Middlewares/Third_Party/LwIP/src/apps/mqtt/mqtt.c ****       t = 0;
 1071              		.loc 1 409 23 is_stmt 0 view .LVU284
 1072 004e 9B1A     		subs	r3, r3, r2
 1073 0050 E381     		strh	r3, [r4, #14]	@ movhi
 410:Middlewares/Third_Party/LwIP/src/apps/mqtt/mqtt.c ****     }
 1074              		.loc 1 410 7 is_stmt 1 view .LVU285
 1075              	.LVL109:
 410:Middlewares/Third_Party/LwIP/src/apps/mqtt/mqtt.c ****     }
 1076              		.loc 1 410 9 is_stmt 0 view .LVU286
 1077 0052 0025     		movs	r5, #0
 1078 0054 E6E7     		b	.L73
 1079              	.LVL110:
 1080              	.L80:
 413:Middlewares/Third_Party/LwIP/src/apps/mqtt/mqtt.c **** 
 1081              		.loc 1 413 1 view .LVU287
 1082 0056 70BD     		pop	{r4, r5, r6, pc}
 1083              	.LVL111:
 1084              	.L82:
 413:Middlewares/Third_Party/LwIP/src/apps/mqtt/mqtt.c **** 
 1085              		.loc 1 413 1 view .LVU288
 1086              		.align	2
 1087              	.L81:
 1088 0058 00000000 		.word	.LC0
 1089 005c 00000000 		.word	.LC7
 1090 0060 58000000 		.word	.LC2
 1091              		.cfi_endproc
 1092              	.LFE177:
 1094              		.section	.rodata.mqtt_clear_requests.str1.4,"aMS",%progbits,1
ARM GAS  /tmp/ccVfyJBo.s 			page 35


 1095              		.align	2
 1096              	.LC8:
 1097 0000 6D717474 		.ascii	"mqtt_clear_requests: tail != NULL\000"
 1097      5F636C65 
 1097      61725F72 
 1097      65717565 
 1097      7374733A 
 1098              		.section	.text.mqtt_clear_requests,"ax",%progbits
 1099              		.align	1
 1100              		.syntax unified
 1101              		.thumb
 1102              		.thumb_func
 1104              	mqtt_clear_requests:
 1105              	.LVL112:
 1106              	.LFB178:
 421:Middlewares/Third_Party/LwIP/src/apps/mqtt/mqtt.c ****   struct mqtt_request_t *iter, *next;
 1107              		.loc 1 421 1 is_stmt 1 view -0
 1108              		.cfi_startproc
 1109              		@ args = 0, pretend = 0, frame = 0
 1110              		@ frame_needed = 0, uses_anonymous_args = 0
 421:Middlewares/Third_Party/LwIP/src/apps/mqtt/mqtt.c ****   struct mqtt_request_t *iter, *next;
 1111              		.loc 1 421 1 is_stmt 0 view .LVU290
 1112 0000 38B5     		push	{r3, r4, r5, lr}
 1113              	.LCFI11:
 1114              		.cfi_def_cfa_offset 16
 1115              		.cfi_offset 3, -16
 1116              		.cfi_offset 4, -12
 1117              		.cfi_offset 5, -8
 1118              		.cfi_offset 14, -4
 422:Middlewares/Third_Party/LwIP/src/apps/mqtt/mqtt.c ****   LWIP_ASSERT("mqtt_clear_requests: tail != NULL", tail != NULL);
 1119              		.loc 1 422 3 is_stmt 1 view .LVU291
 423:Middlewares/Third_Party/LwIP/src/apps/mqtt/mqtt.c ****   for (iter = *tail; iter != NULL; iter = next) {
 1120              		.loc 1 423 3 view .LVU292
 423:Middlewares/Third_Party/LwIP/src/apps/mqtt/mqtt.c ****   for (iter = *tail; iter != NULL; iter = next) {
 1121              		.loc 1 423 3 view .LVU293
 1122 0002 0546     		mov	r5, r0
 1123 0004 08B1     		cbz	r0, .L88
 1124              	.LVL113:
 1125              	.L84:
 423:Middlewares/Third_Party/LwIP/src/apps/mqtt/mqtt.c ****   for (iter = *tail; iter != NULL; iter = next) {
 1126              		.loc 1 423 3 discriminator 3 view .LVU294
 423:Middlewares/Third_Party/LwIP/src/apps/mqtt/mqtt.c ****   for (iter = *tail; iter != NULL; iter = next) {
 1127              		.loc 1 423 3 discriminator 3 view .LVU295
 424:Middlewares/Third_Party/LwIP/src/apps/mqtt/mqtt.c ****     next = iter->next;
 1128              		.loc 1 424 3 discriminator 3 view .LVU296
 424:Middlewares/Third_Party/LwIP/src/apps/mqtt/mqtt.c ****     next = iter->next;
 1129              		.loc 1 424 13 is_stmt 0 discriminator 3 view .LVU297
 1130 0006 2868     		ldr	r0, [r5]
 1131              	.LVL114:
 424:Middlewares/Third_Party/LwIP/src/apps/mqtt/mqtt.c ****     next = iter->next;
 1132              		.loc 1 424 3 discriminator 3 view .LVU298
 1133 0008 0BE0     		b	.L85
 1134              	.LVL115:
 1135              	.L88:
 423:Middlewares/Third_Party/LwIP/src/apps/mqtt/mqtt.c ****   for (iter = *tail; iter != NULL; iter = next) {
 1136              		.loc 1 423 3 is_stmt 1 discriminator 1 view .LVU299
 423:Middlewares/Third_Party/LwIP/src/apps/mqtt/mqtt.c ****   for (iter = *tail; iter != NULL; iter = next) {
ARM GAS  /tmp/ccVfyJBo.s 			page 36


 1137              		.loc 1 423 3 discriminator 1 view .LVU300
 1138 000a 084B     		ldr	r3, .L89
 1139 000c 40F2A712 		movw	r2, #423
 1140 0010 0749     		ldr	r1, .L89+4
 1141 0012 0848     		ldr	r0, .L89+8
 1142              	.LVL116:
 423:Middlewares/Third_Party/LwIP/src/apps/mqtt/mqtt.c ****   for (iter = *tail; iter != NULL; iter = next) {
 1143              		.loc 1 423 3 is_stmt 0 discriminator 1 view .LVU301
 1144 0014 FFF7FEFF 		bl	printf
 1145              	.LVL117:
 1146 0018 F5E7     		b	.L84
 1147              	.LVL118:
 1148              	.L86:
 425:Middlewares/Third_Party/LwIP/src/apps/mqtt/mqtt.c ****     mqtt_delete_request(iter);
 1149              		.loc 1 425 5 is_stmt 1 discriminator 3 view .LVU302
 425:Middlewares/Third_Party/LwIP/src/apps/mqtt/mqtt.c ****     mqtt_delete_request(iter);
 1150              		.loc 1 425 10 is_stmt 0 discriminator 3 view .LVU303
 1151 001a 0468     		ldr	r4, [r0]
 1152              	.LVL119:
 426:Middlewares/Third_Party/LwIP/src/apps/mqtt/mqtt.c ****   }
 1153              		.loc 1 426 5 is_stmt 1 discriminator 3 view .LVU304
 1154 001c FFF7FEFF 		bl	mqtt_delete_request
 1155              	.LVL120:
 424:Middlewares/Third_Party/LwIP/src/apps/mqtt/mqtt.c ****     next = iter->next;
 1156              		.loc 1 424 36 discriminator 3 view .LVU305
 424:Middlewares/Third_Party/LwIP/src/apps/mqtt/mqtt.c ****     next = iter->next;
 1157              		.loc 1 424 41 is_stmt 0 discriminator 3 view .LVU306
 1158 0020 2046     		mov	r0, r4
 1159              	.LVL121:
 1160              	.L85:
 424:Middlewares/Third_Party/LwIP/src/apps/mqtt/mqtt.c ****     next = iter->next;
 1161              		.loc 1 424 22 is_stmt 1 discriminator 1 view .LVU307
 424:Middlewares/Third_Party/LwIP/src/apps/mqtt/mqtt.c ****     next = iter->next;
 1162              		.loc 1 424 3 is_stmt 0 discriminator 1 view .LVU308
 1163 0022 0028     		cmp	r0, #0
 1164 0024 F9D1     		bne	.L86
 428:Middlewares/Third_Party/LwIP/src/apps/mqtt/mqtt.c **** }
 1165              		.loc 1 428 3 is_stmt 1 view .LVU309
 428:Middlewares/Third_Party/LwIP/src/apps/mqtt/mqtt.c **** }
 1166              		.loc 1 428 9 is_stmt 0 view .LVU310
 1167 0026 0023     		movs	r3, #0
 1168 0028 2B60     		str	r3, [r5]
 429:Middlewares/Third_Party/LwIP/src/apps/mqtt/mqtt.c **** /**
 1169              		.loc 1 429 1 view .LVU311
 1170 002a 38BD     		pop	{r3, r4, r5, pc}
 1171              	.LVL122:
 1172              	.L90:
 429:Middlewares/Third_Party/LwIP/src/apps/mqtt/mqtt.c **** /**
 1173              		.loc 1 429 1 view .LVU312
 1174              		.align	2
 1175              	.L89:
 1176 002c 00000000 		.word	.LC0
 1177 0030 00000000 		.word	.LC8
 1178 0034 58000000 		.word	.LC2
 1179              		.cfi_endproc
 1180              	.LFE178:
 1182              		.section	.rodata.mqtt_take_request.str1.4,"aMS",%progbits,1
ARM GAS  /tmp/ccVfyJBo.s 			page 37


 1183              		.align	2
 1184              	.LC9:
 1185 0000 6D717474 		.ascii	"mqtt_take_request: tail != NULL\000"
 1185      5F74616B 
 1185      655F7265 
 1185      71756573 
 1185      743A2074 
 1186              		.section	.text.mqtt_take_request,"ax",%progbits
 1187              		.align	1
 1188              		.syntax unified
 1189              		.thumb
 1190              		.thumb_func
 1192              	mqtt_take_request:
 1193              	.LVL123:
 1194              	.LFB176:
 357:Middlewares/Third_Party/LwIP/src/apps/mqtt/mqtt.c ****   struct mqtt_request_t *iter = NULL, *prev = NULL;
 1195              		.loc 1 357 1 is_stmt 1 view -0
 1196              		.cfi_startproc
 1197              		@ args = 0, pretend = 0, frame = 0
 1198              		@ frame_needed = 0, uses_anonymous_args = 0
 357:Middlewares/Third_Party/LwIP/src/apps/mqtt/mqtt.c ****   struct mqtt_request_t *iter = NULL, *prev = NULL;
 1199              		.loc 1 357 1 is_stmt 0 view .LVU314
 1200 0000 38B5     		push	{r3, r4, r5, lr}
 1201              	.LCFI12:
 1202              		.cfi_def_cfa_offset 16
 1203              		.cfi_offset 3, -16
 1204              		.cfi_offset 4, -12
 1205              		.cfi_offset 5, -8
 1206              		.cfi_offset 14, -4
 1207 0002 0C46     		mov	r4, r1
 358:Middlewares/Third_Party/LwIP/src/apps/mqtt/mqtt.c ****   LWIP_ASSERT("mqtt_take_request: tail != NULL", tail != NULL);
 1208              		.loc 1 358 3 is_stmt 1 view .LVU315
 1209              	.LVL124:
 359:Middlewares/Third_Party/LwIP/src/apps/mqtt/mqtt.c ****   /* Search all request for pkt_id */
 1210              		.loc 1 359 3 view .LVU316
 359:Middlewares/Third_Party/LwIP/src/apps/mqtt/mqtt.c ****   /* Search all request for pkt_id */
 1211              		.loc 1 359 3 view .LVU317
 1212 0004 0546     		mov	r5, r0
 1213 0006 10B1     		cbz	r0, .L101
 1214              	.LVL125:
 1215              	.L92:
 359:Middlewares/Third_Party/LwIP/src/apps/mqtt/mqtt.c ****   /* Search all request for pkt_id */
 1216              		.loc 1 359 3 discriminator 3 view .LVU318
 359:Middlewares/Third_Party/LwIP/src/apps/mqtt/mqtt.c ****   /* Search all request for pkt_id */
 1217              		.loc 1 359 3 discriminator 3 view .LVU319
 361:Middlewares/Third_Party/LwIP/src/apps/mqtt/mqtt.c ****     if (iter->pkt_id == pkt_id) {
 1218              		.loc 1 361 3 discriminator 3 view .LVU320
 361:Middlewares/Third_Party/LwIP/src/apps/mqtt/mqtt.c ****     if (iter->pkt_id == pkt_id) {
 1219              		.loc 1 361 13 is_stmt 0 discriminator 3 view .LVU321
 1220 0008 2868     		ldr	r0, [r5]
 1221              	.LVL126:
 358:Middlewares/Third_Party/LwIP/src/apps/mqtt/mqtt.c ****   LWIP_ASSERT("mqtt_take_request: tail != NULL", tail != NULL);
 1222              		.loc 1 358 40 discriminator 3 view .LVU322
 1223 000a 0022     		movs	r2, #0
 361:Middlewares/Third_Party/LwIP/src/apps/mqtt/mqtt.c ****     if (iter->pkt_id == pkt_id) {
 1224              		.loc 1 361 3 discriminator 3 view .LVU323
 1225 000c 09E0     		b	.L93
ARM GAS  /tmp/ccVfyJBo.s 			page 38


 1226              	.LVL127:
 1227              	.L101:
 359:Middlewares/Third_Party/LwIP/src/apps/mqtt/mqtt.c ****   /* Search all request for pkt_id */
 1228              		.loc 1 359 3 is_stmt 1 discriminator 1 view .LVU324
 359:Middlewares/Third_Party/LwIP/src/apps/mqtt/mqtt.c ****   /* Search all request for pkt_id */
 1229              		.loc 1 359 3 discriminator 1 view .LVU325
 1230 000e 0F4B     		ldr	r3, .L104
 1231 0010 40F26712 		movw	r2, #359
 1232 0014 0E49     		ldr	r1, .L104+4
 1233              	.LVL128:
 359:Middlewares/Third_Party/LwIP/src/apps/mqtt/mqtt.c ****   /* Search all request for pkt_id */
 1234              		.loc 1 359 3 is_stmt 0 discriminator 1 view .LVU326
 1235 0016 0F48     		ldr	r0, .L104+8
 1236              	.LVL129:
 359:Middlewares/Third_Party/LwIP/src/apps/mqtt/mqtt.c ****   /* Search all request for pkt_id */
 1237              		.loc 1 359 3 discriminator 1 view .LVU327
 1238 0018 FFF7FEFF 		bl	printf
 1239              	.LVL130:
 1240 001c F4E7     		b	.L92
 1241              	.LVL131:
 1242              	.L102:
 365:Middlewares/Third_Party/LwIP/src/apps/mqtt/mqtt.c ****   }
 1243              		.loc 1 365 5 is_stmt 1 discriminator 2 view .LVU328
 361:Middlewares/Third_Party/LwIP/src/apps/mqtt/mqtt.c ****     if (iter->pkt_id == pkt_id) {
 1244              		.loc 1 361 36 discriminator 2 view .LVU329
 365:Middlewares/Third_Party/LwIP/src/apps/mqtt/mqtt.c ****   }
 1245              		.loc 1 365 10 is_stmt 0 discriminator 2 view .LVU330
 1246 001e 0246     		mov	r2, r0
 361:Middlewares/Third_Party/LwIP/src/apps/mqtt/mqtt.c ****     if (iter->pkt_id == pkt_id) {
 1247              		.loc 1 361 41 discriminator 2 view .LVU331
 1248 0020 0068     		ldr	r0, [r0]
 1249              	.LVL132:
 1250              	.L93:
 361:Middlewares/Third_Party/LwIP/src/apps/mqtt/mqtt.c ****     if (iter->pkt_id == pkt_id) {
 1251              		.loc 1 361 22 is_stmt 1 discriminator 1 view .LVU332
 361:Middlewares/Third_Party/LwIP/src/apps/mqtt/mqtt.c ****     if (iter->pkt_id == pkt_id) {
 1252              		.loc 1 361 3 is_stmt 0 discriminator 1 view .LVU333
 1253 0022 10B1     		cbz	r0, .L94
 362:Middlewares/Third_Party/LwIP/src/apps/mqtt/mqtt.c ****       break;
 1254              		.loc 1 362 5 is_stmt 1 view .LVU334
 362:Middlewares/Third_Party/LwIP/src/apps/mqtt/mqtt.c ****       break;
 1255              		.loc 1 362 13 is_stmt 0 view .LVU335
 1256 0024 8389     		ldrh	r3, [r0, #12]
 362:Middlewares/Third_Party/LwIP/src/apps/mqtt/mqtt.c ****       break;
 1257              		.loc 1 362 8 view .LVU336
 1258 0026 A342     		cmp	r3, r4
 1259 0028 F9D1     		bne	.L102
 1260              	.L94:
 369:Middlewares/Third_Party/LwIP/src/apps/mqtt/mqtt.c ****     /* unchain */
 1261              		.loc 1 369 3 is_stmt 1 view .LVU337
 369:Middlewares/Third_Party/LwIP/src/apps/mqtt/mqtt.c ****     /* unchain */
 1262              		.loc 1 369 6 is_stmt 0 view .LVU338
 1263 002a 50B1     		cbz	r0, .L91
 371:Middlewares/Third_Party/LwIP/src/apps/mqtt/mqtt.c ****       *tail = iter->next;
 1264              		.loc 1 371 5 is_stmt 1 view .LVU339
 371:Middlewares/Third_Party/LwIP/src/apps/mqtt/mqtt.c ****       *tail = iter->next;
 1265              		.loc 1 371 8 is_stmt 0 view .LVU340
ARM GAS  /tmp/ccVfyJBo.s 			page 39


 1266 002c 52B1     		cbz	r2, .L103
 374:Middlewares/Third_Party/LwIP/src/apps/mqtt/mqtt.c ****     }
 1267              		.loc 1 374 7 is_stmt 1 view .LVU341
 374:Middlewares/Third_Party/LwIP/src/apps/mqtt/mqtt.c ****     }
 1268              		.loc 1 374 24 is_stmt 0 view .LVU342
 1269 002e 0368     		ldr	r3, [r0]
 374:Middlewares/Third_Party/LwIP/src/apps/mqtt/mqtt.c ****     }
 1270              		.loc 1 374 18 view .LVU343
 1271 0030 1360     		str	r3, [r2]
 1272              	.L98:
 377:Middlewares/Third_Party/LwIP/src/apps/mqtt/mqtt.c ****       iter->next->timeout_diff += iter->timeout_diff;
 1273              		.loc 1 377 5 is_stmt 1 view .LVU344
 377:Middlewares/Third_Party/LwIP/src/apps/mqtt/mqtt.c ****       iter->next->timeout_diff += iter->timeout_diff;
 1274              		.loc 1 377 13 is_stmt 0 view .LVU345
 1275 0032 0368     		ldr	r3, [r0]
 377:Middlewares/Third_Party/LwIP/src/apps/mqtt/mqtt.c ****       iter->next->timeout_diff += iter->timeout_diff;
 1276              		.loc 1 377 8 view .LVU346
 1277 0034 1BB1     		cbz	r3, .L99
 378:Middlewares/Third_Party/LwIP/src/apps/mqtt/mqtt.c ****     }
 1278              		.loc 1 378 7 is_stmt 1 view .LVU347
 378:Middlewares/Third_Party/LwIP/src/apps/mqtt/mqtt.c ****     }
 1279              		.loc 1 378 39 is_stmt 0 view .LVU348
 1280 0036 C289     		ldrh	r2, [r0, #14]
 1281              	.LVL133:
 378:Middlewares/Third_Party/LwIP/src/apps/mqtt/mqtt.c ****     }
 1282              		.loc 1 378 32 view .LVU349
 1283 0038 D989     		ldrh	r1, [r3, #14]
 1284 003a 0A44     		add	r2, r2, r1
 1285 003c DA81     		strh	r2, [r3, #14]	@ movhi
 1286              	.L99:
 380:Middlewares/Third_Party/LwIP/src/apps/mqtt/mqtt.c ****   }
 1287              		.loc 1 380 5 is_stmt 1 view .LVU350
 380:Middlewares/Third_Party/LwIP/src/apps/mqtt/mqtt.c ****   }
 1288              		.loc 1 380 16 is_stmt 0 view .LVU351
 1289 003e 0023     		movs	r3, #0
 1290 0040 0360     		str	r3, [r0]
 382:Middlewares/Third_Party/LwIP/src/apps/mqtt/mqtt.c **** }
 1291              		.loc 1 382 3 is_stmt 1 view .LVU352
 1292              	.L91:
 383:Middlewares/Third_Party/LwIP/src/apps/mqtt/mqtt.c **** 
 1293              		.loc 1 383 1 is_stmt 0 view .LVU353
 1294 0042 38BD     		pop	{r3, r4, r5, pc}
 1295              	.LVL134:
 1296              	.L103:
 372:Middlewares/Third_Party/LwIP/src/apps/mqtt/mqtt.c ****     } else {
 1297              		.loc 1 372 7 is_stmt 1 view .LVU354
 372:Middlewares/Third_Party/LwIP/src/apps/mqtt/mqtt.c ****     } else {
 1298              		.loc 1 372 19 is_stmt 0 view .LVU355
 1299 0044 0368     		ldr	r3, [r0]
 372:Middlewares/Third_Party/LwIP/src/apps/mqtt/mqtt.c ****     } else {
 1300              		.loc 1 372 13 view .LVU356
 1301 0046 2B60     		str	r3, [r5]
 1302 0048 F3E7     		b	.L98
 1303              	.L105:
 1304 004a 00BF     		.align	2
 1305              	.L104:
 1306 004c 00000000 		.word	.LC0
ARM GAS  /tmp/ccVfyJBo.s 			page 40


 1307 0050 00000000 		.word	.LC9
 1308 0054 58000000 		.word	.LC2
 1309              		.cfi_endproc
 1310              	.LFE176:
 1312              		.section	.rodata.mqtt_init_requests.str1.4,"aMS",%progbits,1
 1313              		.align	2
 1314              	.LC10:
 1315 0000 6D717474 		.ascii	"mqtt_init_requests: r_objs != NULL\000"
 1315      5F696E69 
 1315      745F7265 
 1315      71756573 
 1315      74733A20 
 1316              		.section	.text.mqtt_init_requests,"ax",%progbits
 1317              		.align	1
 1318              		.syntax unified
 1319              		.thumb
 1320              		.thumb_func
 1322              	mqtt_init_requests:
 1323              	.LVL135:
 1324              	.LFB179:
 437:Middlewares/Third_Party/LwIP/src/apps/mqtt/mqtt.c ****   u8_t n;
 1325              		.loc 1 437 1 is_stmt 1 view -0
 1326              		.cfi_startproc
 1327              		@ args = 0, pretend = 0, frame = 0
 1328              		@ frame_needed = 0, uses_anonymous_args = 0
 437:Middlewares/Third_Party/LwIP/src/apps/mqtt/mqtt.c ****   u8_t n;
 1329              		.loc 1 437 1 is_stmt 0 view .LVU358
 1330 0000 38B5     		push	{r3, r4, r5, lr}
 1331              	.LCFI13:
 1332              		.cfi_def_cfa_offset 16
 1333              		.cfi_offset 3, -16
 1334              		.cfi_offset 4, -12
 1335              		.cfi_offset 5, -8
 1336              		.cfi_offset 14, -4
 1337 0002 0D46     		mov	r5, r1
 438:Middlewares/Third_Party/LwIP/src/apps/mqtt/mqtt.c ****   LWIP_ASSERT("mqtt_init_requests: r_objs != NULL", r_objs != NULL);
 1338              		.loc 1 438 3 is_stmt 1 view .LVU359
 439:Middlewares/Third_Party/LwIP/src/apps/mqtt/mqtt.c ****   for (n = 0; n < r_objs_len; n++) {
 1339              		.loc 1 439 3 view .LVU360
 439:Middlewares/Third_Party/LwIP/src/apps/mqtt/mqtt.c ****   for (n = 0; n < r_objs_len; n++) {
 1340              		.loc 1 439 3 view .LVU361
 1341 0004 0446     		mov	r4, r0
 1342 0006 08B1     		cbz	r0, .L111
 1343              	.LVL136:
 1344              	.L107:
 437:Middlewares/Third_Party/LwIP/src/apps/mqtt/mqtt.c ****   u8_t n;
 1345              		.loc 1 437 1 is_stmt 0 discriminator 1 view .LVU362
 1346 0008 0023     		movs	r3, #0
 1347 000a 0DE0     		b	.L108
 1348              	.LVL137:
 1349              	.L111:
 439:Middlewares/Third_Party/LwIP/src/apps/mqtt/mqtt.c ****   for (n = 0; n < r_objs_len; n++) {
 1350              		.loc 1 439 3 is_stmt 1 discriminator 1 view .LVU363
 439:Middlewares/Third_Party/LwIP/src/apps/mqtt/mqtt.c ****   for (n = 0; n < r_objs_len; n++) {
 1351              		.loc 1 439 3 discriminator 1 view .LVU364
 1352 000c 084B     		ldr	r3, .L112
 1353 000e 40F2B712 		movw	r2, #439
ARM GAS  /tmp/ccVfyJBo.s 			page 41


 1354 0012 0849     		ldr	r1, .L112+4
 1355              	.LVL138:
 439:Middlewares/Third_Party/LwIP/src/apps/mqtt/mqtt.c ****   for (n = 0; n < r_objs_len; n++) {
 1356              		.loc 1 439 3 is_stmt 0 discriminator 1 view .LVU365
 1357 0014 0848     		ldr	r0, .L112+8
 1358              	.LVL139:
 439:Middlewares/Third_Party/LwIP/src/apps/mqtt/mqtt.c ****   for (n = 0; n < r_objs_len; n++) {
 1359              		.loc 1 439 3 discriminator 1 view .LVU366
 1360 0016 FFF7FEFF 		bl	printf
 1361              	.LVL140:
 1362 001a F5E7     		b	.L107
 1363              	.LVL141:
 1364              	.L109:
 442:Middlewares/Third_Party/LwIP/src/apps/mqtt/mqtt.c ****   }
 1365              		.loc 1 442 5 is_stmt 1 discriminator 3 view .LVU367
 442:Middlewares/Third_Party/LwIP/src/apps/mqtt/mqtt.c ****   }
 1366              		.loc 1 442 29 is_stmt 0 discriminator 3 view .LVU368
 1367 001c 1A01     		lsls	r2, r3, #4
 442:Middlewares/Third_Party/LwIP/src/apps/mqtt/mqtt.c ****   }
 1368              		.loc 1 442 11 discriminator 3 view .LVU369
 1369 001e 04EB0310 		add	r0, r4, r3, lsl #4
 442:Middlewares/Third_Party/LwIP/src/apps/mqtt/mqtt.c ****   }
 1370              		.loc 1 442 20 discriminator 3 view .LVU370
 1371 0022 A050     		str	r0, [r4, r2]
 440:Middlewares/Third_Party/LwIP/src/apps/mqtt/mqtt.c ****     /* Item pointing to itself indicates unused */
 1372              		.loc 1 440 31 is_stmt 1 discriminator 3 view .LVU371
 440:Middlewares/Third_Party/LwIP/src/apps/mqtt/mqtt.c ****     /* Item pointing to itself indicates unused */
 1373              		.loc 1 440 32 is_stmt 0 discriminator 3 view .LVU372
 1374 0024 0133     		adds	r3, r3, #1
 1375              	.LVL142:
 440:Middlewares/Third_Party/LwIP/src/apps/mqtt/mqtt.c ****     /* Item pointing to itself indicates unused */
 1376              		.loc 1 440 32 discriminator 3 view .LVU373
 1377 0026 DBB2     		uxtb	r3, r3
 1378              	.LVL143:
 1379              	.L108:
 440:Middlewares/Third_Party/LwIP/src/apps/mqtt/mqtt.c ****     /* Item pointing to itself indicates unused */
 1380              		.loc 1 440 15 is_stmt 1 discriminator 1 view .LVU374
 440:Middlewares/Third_Party/LwIP/src/apps/mqtt/mqtt.c ****     /* Item pointing to itself indicates unused */
 1381              		.loc 1 440 3 is_stmt 0 discriminator 1 view .LVU375
 1382 0028 AB42     		cmp	r3, r5
 1383 002a F7D3     		bcc	.L109
 444:Middlewares/Third_Party/LwIP/src/apps/mqtt/mqtt.c **** 
 1384              		.loc 1 444 1 view .LVU376
 1385 002c 38BD     		pop	{r3, r4, r5, pc}
 1386              	.LVL144:
 1387              	.L113:
 444:Middlewares/Third_Party/LwIP/src/apps/mqtt/mqtt.c **** 
 1388              		.loc 1 444 1 view .LVU377
 1389 002e 00BF     		.align	2
 1390              	.L112:
 1391 0030 00000000 		.word	.LC0
 1392 0034 00000000 		.word	.LC10
 1393 0038 58000000 		.word	.LC2
 1394              		.cfi_endproc
 1395              	.LFE179:
 1397              		.section	.rodata.mqtt_output_send.str1.4,"aMS",%progbits,1
 1398              		.align	2
ARM GAS  /tmp/ccVfyJBo.s 			page 42


 1399              	.LC11:
 1400 0000 6D717474 		.ascii	"mqtt_output_send: tpcb != NULL\000"
 1400      5F6F7574 
 1400      7075745F 
 1400      73656E64 
 1400      3A207470 
 1401              		.section	.text.mqtt_output_send,"ax",%progbits
 1402              		.align	1
 1403              		.syntax unified
 1404              		.thumb
 1405              		.thumb_func
 1407              	mqtt_output_send:
 1408              	.LVL145:
 1409              	.LFB172:
 235:Middlewares/Third_Party/LwIP/src/apps/mqtt/mqtt.c ****   err_t err;
 1410              		.loc 1 235 1 is_stmt 1 view -0
 1411              		.cfi_startproc
 1412              		@ args = 0, pretend = 0, frame = 0
 1413              		@ frame_needed = 0, uses_anonymous_args = 0
 235:Middlewares/Third_Party/LwIP/src/apps/mqtt/mqtt.c ****   err_t err;
 1414              		.loc 1 235 1 is_stmt 0 view .LVU379
 1415 0000 2DE9F041 		push	{r4, r5, r6, r7, r8, lr}
 1416              	.LCFI14:
 1417              		.cfi_def_cfa_offset 24
 1418              		.cfi_offset 4, -24
 1419              		.cfi_offset 5, -20
 1420              		.cfi_offset 6, -16
 1421              		.cfi_offset 7, -12
 1422              		.cfi_offset 8, -8
 1423              		.cfi_offset 14, -4
 1424 0004 0646     		mov	r6, r0
 1425 0006 0D46     		mov	r5, r1
 236:Middlewares/Third_Party/LwIP/src/apps/mqtt/mqtt.c ****   u8_t wrap = 0;
 1426              		.loc 1 236 3 is_stmt 1 view .LVU380
 237:Middlewares/Third_Party/LwIP/src/apps/mqtt/mqtt.c ****   u16_t ringbuf_lin_len = mqtt_ringbuf_linear_read_length(rb);
 1427              		.loc 1 237 3 view .LVU381
 1428              	.LVL146:
 238:Middlewares/Third_Party/LwIP/src/apps/mqtt/mqtt.c ****   u16_t send_len = altcp_sndbuf(tpcb);
 1429              		.loc 1 238 3 view .LVU382
 238:Middlewares/Third_Party/LwIP/src/apps/mqtt/mqtt.c ****   u16_t send_len = altcp_sndbuf(tpcb);
 1430              		.loc 1 238 27 is_stmt 0 view .LVU383
 1431 0008 FFF7FEFF 		bl	mqtt_ringbuf_len
 1432              	.LVL147:
 238:Middlewares/Third_Party/LwIP/src/apps/mqtt/mqtt.c ****   u16_t send_len = altcp_sndbuf(tpcb);
 1433              		.loc 1 238 27 view .LVU384
 1434 000c 0446     		mov	r4, r0
 1435 000e 7088     		ldrh	r0, [r6, #2]
 1436 0010 C0F58073 		rsb	r3, r0, #256
 238:Middlewares/Third_Party/LwIP/src/apps/mqtt/mqtt.c ****   u16_t send_len = altcp_sndbuf(tpcb);
 1437              		.loc 1 238 9 view .LVU385
 1438 0014 9C42     		cmp	r4, r3
 1439 0016 00DB     		blt	.L115
 238:Middlewares/Third_Party/LwIP/src/apps/mqtt/mqtt.c ****   u16_t send_len = altcp_sndbuf(tpcb);
 1440              		.loc 1 238 9 discriminator 2 view .LVU386
 1441 0018 9CB2     		uxth	r4, r3
 1442              	.L115:
 1443              	.LVL148:
ARM GAS  /tmp/ccVfyJBo.s 			page 43


 239:Middlewares/Third_Party/LwIP/src/apps/mqtt/mqtt.c ****   LWIP_ASSERT("mqtt_output_send: tpcb != NULL", tpcb != NULL);
 1444              		.loc 1 239 3 is_stmt 1 discriminator 4 view .LVU387
 239:Middlewares/Third_Party/LwIP/src/apps/mqtt/mqtt.c ****   LWIP_ASSERT("mqtt_output_send: tpcb != NULL", tpcb != NULL);
 1445              		.loc 1 239 9 is_stmt 0 discriminator 4 view .LVU388
 1446 001a B5F86470 		ldrh	r7, [r5, #100]
 1447              	.LVL149:
 240:Middlewares/Third_Party/LwIP/src/apps/mqtt/mqtt.c **** 
 1448              		.loc 1 240 3 is_stmt 1 discriminator 4 view .LVU389
 240:Middlewares/Third_Party/LwIP/src/apps/mqtt/mqtt.c **** 
 1449              		.loc 1 240 3 discriminator 4 view .LVU390
 1450 001e 2DB3     		cbz	r5, .L128
 1451              	.L116:
 240:Middlewares/Third_Party/LwIP/src/apps/mqtt/mqtt.c **** 
 1452              		.loc 1 240 3 discriminator 3 view .LVU391
 240:Middlewares/Third_Party/LwIP/src/apps/mqtt/mqtt.c **** 
 1453              		.loc 1 240 3 discriminator 3 view .LVU392
 242:Middlewares/Third_Party/LwIP/src/apps/mqtt/mqtt.c ****     return;
 1454              		.loc 1 242 3 discriminator 3 view .LVU393
 242:Middlewares/Third_Party/LwIP/src/apps/mqtt/mqtt.c ****     return;
 1455              		.loc 1 242 6 is_stmt 0 discriminator 3 view .LVU394
 1456 0020 002C     		cmp	r4, #0
 1457 0022 18BF     		it	ne
 1458 0024 002F     		cmpne	r7, #0
 1459 0026 1FD0     		beq	.L114
 247:Middlewares/Third_Party/LwIP/src/apps/mqtt/mqtt.c **** 
 1460              		.loc 1 247 79 is_stmt 1 view .LVU395
 249:Middlewares/Third_Party/LwIP/src/apps/mqtt/mqtt.c ****     /* Space in TCP output buffer is larger than available in ring buffer linear portion */
 1461              		.loc 1 249 3 view .LVU396
 249:Middlewares/Third_Party/LwIP/src/apps/mqtt/mqtt.c ****     /* Space in TCP output buffer is larger than available in ring buffer linear portion */
 1462              		.loc 1 249 6 is_stmt 0 view .LVU397
 1463 0028 BC42     		cmp	r4, r7
 1464 002a 26D2     		bcs	.L123
 251:Middlewares/Third_Party/LwIP/src/apps/mqtt/mqtt.c ****     /* Wrap around if more data in ring buffer after linear portion */
 1465              		.loc 1 251 5 is_stmt 1 view .LVU398
 1466              	.LVL150:
 253:Middlewares/Third_Party/LwIP/src/apps/mqtt/mqtt.c ****   }
 1467              		.loc 1 253 5 view .LVU399
 253:Middlewares/Third_Party/LwIP/src/apps/mqtt/mqtt.c ****   }
 1468              		.loc 1 253 13 is_stmt 0 view .LVU400
 1469 002c 3046     		mov	r0, r6
 1470 002e FFF7FEFF 		bl	mqtt_ringbuf_len
 1471              	.LVL151:
 253:Middlewares/Third_Party/LwIP/src/apps/mqtt/mqtt.c ****   }
 1472              		.loc 1 253 34 view .LVU401
 1473 0032 A042     		cmp	r0, r4
 1474 0034 94BF     		ite	ls
 1475 0036 4FF00008 		movls	r8, #0
 1476 003a 4FF00108 		movhi	r8, #1
 1477              	.LVL152:
 251:Middlewares/Third_Party/LwIP/src/apps/mqtt/mqtt.c ****     /* Wrap around if more data in ring buffer after linear portion */
 1478              		.loc 1 251 14 view .LVU402
 1479 003e 2746     		mov	r7, r4
 1480              	.LVL153:
 1481              	.L118:
 255:Middlewares/Third_Party/LwIP/src/apps/mqtt/mqtt.c ****   if ((err == ERR_OK) && wrap) {
 1482              		.loc 1 255 3 is_stmt 1 view .LVU403
 255:Middlewares/Third_Party/LwIP/src/apps/mqtt/mqtt.c ****   if ((err == ERR_OK) && wrap) {
ARM GAS  /tmp/ccVfyJBo.s 			page 44


 1483              		.loc 1 255 27 is_stmt 0 view .LVU404
 1484 0040 3046     		mov	r0, r6
 1485 0042 FFF7FEFF 		bl	mqtt_ringbuf_get_ptr
 1486              	.LVL154:
 1487 0046 0146     		mov	r1, r0
 255:Middlewares/Third_Party/LwIP/src/apps/mqtt/mqtt.c ****   if ((err == ERR_OK) && wrap) {
 1488              		.loc 1 255 9 view .LVU405
 1489 0048 B8F1000F 		cmp	r8, #0
 1490 004c 18D0     		beq	.L124
 1491 004e 0323     		movs	r3, #3
 1492              	.L119:
 255:Middlewares/Third_Party/LwIP/src/apps/mqtt/mqtt.c ****   if ((err == ERR_OK) && wrap) {
 1493              		.loc 1 255 9 discriminator 4 view .LVU406
 1494 0050 3A46     		mov	r2, r7
 1495 0052 2846     		mov	r0, r5
 1496 0054 FFF7FEFF 		bl	tcp_write
 1497              	.LVL155:
 256:Middlewares/Third_Party/LwIP/src/apps/mqtt/mqtt.c ****     mqtt_ringbuf_advance_get_idx(rb, send_len);
 1498              		.loc 1 256 3 is_stmt 1 discriminator 4 view .LVU407
 256:Middlewares/Third_Party/LwIP/src/apps/mqtt/mqtt.c ****     mqtt_ringbuf_advance_get_idx(rb, send_len);
 1499              		.loc 1 256 12 is_stmt 0 discriminator 4 view .LVU408
 1500 0058 0246     		mov	r2, r0
 256:Middlewares/Third_Party/LwIP/src/apps/mqtt/mqtt.c ****     mqtt_ringbuf_advance_get_idx(rb, send_len);
 1501              		.loc 1 256 23 discriminator 4 view .LVU409
 1502 005a 0028     		cmp	r0, #0
 1503 005c 14BF     		ite	ne
 1504 005e 0023     		movne	r3, #0
 1505 0060 08F00103 		andeq	r3, r8, #1
 256:Middlewares/Third_Party/LwIP/src/apps/mqtt/mqtt.c ****     mqtt_ringbuf_advance_get_idx(rb, send_len);
 1506              		.loc 1 256 6 discriminator 4 view .LVU410
 1507 0064 73B9     		cbnz	r3, .L129
 1508              	.LVL156:
 1509              	.L120:
 263:Middlewares/Third_Party/LwIP/src/apps/mqtt/mqtt.c ****     mqtt_ringbuf_advance_get_idx(rb, send_len);
 1510              		.loc 1 263 3 is_stmt 1 view .LVU411
 263:Middlewares/Third_Party/LwIP/src/apps/mqtt/mqtt.c ****     mqtt_ringbuf_advance_get_idx(rb, send_len);
 1511              		.loc 1 263 6 is_stmt 0 view .LVU412
 1512 0066 9AB3     		cbz	r2, .L130
 1513              	.LVL157:
 1514              	.L114:
 270:Middlewares/Third_Party/LwIP/src/apps/mqtt/mqtt.c **** 
 1515              		.loc 1 270 1 view .LVU413
 1516 0068 BDE8F081 		pop	{r4, r5, r6, r7, r8, pc}
 1517              	.LVL158:
 1518              	.L128:
 240:Middlewares/Third_Party/LwIP/src/apps/mqtt/mqtt.c **** 
 1519              		.loc 1 240 3 is_stmt 1 discriminator 1 view .LVU414
 240:Middlewares/Third_Party/LwIP/src/apps/mqtt/mqtt.c **** 
 1520              		.loc 1 240 3 discriminator 1 view .LVU415
 1521 006c 1C4B     		ldr	r3, .L131
 1522 006e F022     		movs	r2, #240
 1523 0070 1C49     		ldr	r1, .L131+4
 1524 0072 1D48     		ldr	r0, .L131+8
 1525 0074 FFF7FEFF 		bl	printf
 1526              	.LVL159:
 1527 0078 D2E7     		b	.L116
 1528              	.L123:
ARM GAS  /tmp/ccVfyJBo.s 			page 45


 237:Middlewares/Third_Party/LwIP/src/apps/mqtt/mqtt.c ****   u16_t ringbuf_lin_len = mqtt_ringbuf_linear_read_length(rb);
 1529              		.loc 1 237 8 is_stmt 0 view .LVU416
 1530 007a 4FF00008 		mov	r8, #0
 1531 007e DFE7     		b	.L118
 1532              	.LVL160:
 1533              	.L124:
 255:Middlewares/Third_Party/LwIP/src/apps/mqtt/mqtt.c ****   if ((err == ERR_OK) && wrap) {
 1534              		.loc 1 255 9 view .LVU417
 1535 0080 0123     		movs	r3, #1
 1536 0082 E5E7     		b	.L119
 1537              	.LVL161:
 1538              	.L129:
 257:Middlewares/Third_Party/LwIP/src/apps/mqtt/mqtt.c ****     /* Use the lesser one of ring buffer linear length and TCP send buffer size */
 1539              		.loc 1 257 5 is_stmt 1 view .LVU418
 1540 0084 3946     		mov	r1, r7
 1541 0086 3046     		mov	r0, r6
 1542              	.LVL162:
 257:Middlewares/Third_Party/LwIP/src/apps/mqtt/mqtt.c ****     /* Use the lesser one of ring buffer linear length and TCP send buffer size */
 1543              		.loc 1 257 5 is_stmt 0 view .LVU419
 1544 0088 FFF7FEFF 		bl	mqtt_ringbuf_advance_get_idx
 1545              	.LVL163:
 259:Middlewares/Third_Party/LwIP/src/apps/mqtt/mqtt.c ****     err = altcp_write(tpcb, mqtt_ringbuf_get_ptr(rb), send_len, TCP_WRITE_FLAG_COPY);
 1546              		.loc 1 259 5 is_stmt 1 view .LVU420
 259:Middlewares/Third_Party/LwIP/src/apps/mqtt/mqtt.c ****     err = altcp_write(tpcb, mqtt_ringbuf_get_ptr(rb), send_len, TCP_WRITE_FLAG_COPY);
 1547              		.loc 1 259 16 is_stmt 0 view .LVU421
 1548 008c B5F86470 		ldrh	r7, [r5, #100]
 1549              	.LVL164:
 259:Middlewares/Third_Party/LwIP/src/apps/mqtt/mqtt.c ****     err = altcp_write(tpcb, mqtt_ringbuf_get_ptr(rb), send_len, TCP_WRITE_FLAG_COPY);
 1550              		.loc 1 259 16 view .LVU422
 1551 0090 3C46     		mov	r4, r7
 1552              	.LVL165:
 259:Middlewares/Third_Party/LwIP/src/apps/mqtt/mqtt.c ****     err = altcp_write(tpcb, mqtt_ringbuf_get_ptr(rb), send_len, TCP_WRITE_FLAG_COPY);
 1553              		.loc 1 259 16 view .LVU423
 1554 0092 3046     		mov	r0, r6
 1555 0094 FFF7FEFF 		bl	mqtt_ringbuf_len
 1556              	.LVL166:
 1557 0098 7288     		ldrh	r2, [r6, #2]
 1558 009a C2F58073 		rsb	r3, r2, #256
 1559 009e 9842     		cmp	r0, r3
 1560 00a0 12DA     		bge	.L125
 1561 00a2 0146     		mov	r1, r0
 1562              	.L121:
 259:Middlewares/Third_Party/LwIP/src/apps/mqtt/mqtt.c ****     err = altcp_write(tpcb, mqtt_ringbuf_get_ptr(rb), send_len, TCP_WRITE_FLAG_COPY);
 1563              		.loc 1 259 14 discriminator 4 view .LVU424
 1564 00a4 8C42     		cmp	r4, r1
 1565 00a6 04DB     		blt	.L122
 259:Middlewares/Third_Party/LwIP/src/apps/mqtt/mqtt.c ****     err = altcp_write(tpcb, mqtt_ringbuf_get_ptr(rb), send_len, TCP_WRITE_FLAG_COPY);
 1566              		.loc 1 259 14 discriminator 6 view .LVU425
 1567 00a8 9842     		cmp	r0, r3
 1568 00aa 0FDB     		blt	.L126
 259:Middlewares/Third_Party/LwIP/src/apps/mqtt/mqtt.c ****     err = altcp_write(tpcb, mqtt_ringbuf_get_ptr(rb), send_len, TCP_WRITE_FLAG_COPY);
 1569              		.loc 1 259 14 discriminator 9 view .LVU426
 1570 00ac C2F58072 		rsb	r2, r2, #256
 1571 00b0 97B2     		uxth	r7, r2
 1572              	.L122:
 1573              	.LVL167:
 260:Middlewares/Third_Party/LwIP/src/apps/mqtt/mqtt.c ****   }
ARM GAS  /tmp/ccVfyJBo.s 			page 46


 1574              		.loc 1 260 5 is_stmt 1 discriminator 12 view .LVU427
 260:Middlewares/Third_Party/LwIP/src/apps/mqtt/mqtt.c ****   }
 1575              		.loc 1 260 29 is_stmt 0 discriminator 12 view .LVU428
 1576 00b2 3046     		mov	r0, r6
 1577 00b4 FFF7FEFF 		bl	mqtt_ringbuf_get_ptr
 1578              	.LVL168:
 1579 00b8 0146     		mov	r1, r0
 260:Middlewares/Third_Party/LwIP/src/apps/mqtt/mqtt.c ****   }
 1580              		.loc 1 260 11 discriminator 12 view .LVU429
 1581 00ba 0123     		movs	r3, #1
 1582 00bc 3A46     		mov	r2, r7
 1583 00be 2846     		mov	r0, r5
 1584 00c0 FFF7FEFF 		bl	tcp_write
 1585              	.LVL169:
 1586 00c4 0246     		mov	r2, r0
 1587              	.LVL170:
 260:Middlewares/Third_Party/LwIP/src/apps/mqtt/mqtt.c ****   }
 1588              		.loc 1 260 11 discriminator 12 view .LVU430
 1589 00c6 CEE7     		b	.L120
 1590              	.LVL171:
 1591              	.L125:
 259:Middlewares/Third_Party/LwIP/src/apps/mqtt/mqtt.c ****     err = altcp_write(tpcb, mqtt_ringbuf_get_ptr(rb), send_len, TCP_WRITE_FLAG_COPY);
 1592              		.loc 1 259 16 view .LVU431
 1593 00c8 1946     		mov	r1, r3
 1594 00ca EBE7     		b	.L121
 1595              	.L126:
 1596 00cc 0746     		mov	r7, r0
 1597 00ce F0E7     		b	.L122
 1598              	.LVL172:
 1599              	.L130:
 264:Middlewares/Third_Party/LwIP/src/apps/mqtt/mqtt.c ****     /* Flush */
 1600              		.loc 1 264 5 is_stmt 1 view .LVU432
 1601 00d0 3946     		mov	r1, r7
 1602 00d2 3046     		mov	r0, r6
 1603 00d4 FFF7FEFF 		bl	mqtt_ringbuf_advance_get_idx
 1604              	.LVL173:
 266:Middlewares/Third_Party/LwIP/src/apps/mqtt/mqtt.c ****   } else {
 1605              		.loc 1 266 5 view .LVU433
 1606 00d8 2846     		mov	r0, r5
 1607 00da FFF7FEFF 		bl	tcp_output
 1608              	.LVL174:
 268:Middlewares/Third_Party/LwIP/src/apps/mqtt/mqtt.c ****   }
 1609              		.loc 1 268 114 view .LVU434
 1610 00de C3E7     		b	.L114
 1611              	.L132:
 1612              		.align	2
 1613              	.L131:
 1614 00e0 00000000 		.word	.LC0
 1615 00e4 00000000 		.word	.LC11
 1616 00e8 58000000 		.word	.LC2
 1617              		.cfi_endproc
 1618              	.LFE172:
 1620              		.section	.text.mqtt_tcp_poll_cb,"ax",%progbits
 1621              		.align	1
 1622              		.syntax unified
 1623              		.thumb
 1624              		.thumb_func
ARM GAS  /tmp/ccVfyJBo.s 			page 47


 1626              	mqtt_tcp_poll_cb:
 1627              	.LVL175:
 1628              	.LFB195:
 662:Middlewares/Third_Party/LwIP/src/apps/mqtt/mqtt.c **** 
 663:Middlewares/Third_Party/LwIP/src/apps/mqtt/mqtt.c **** 
 664:Middlewares/Third_Party/LwIP/src/apps/mqtt/mqtt.c **** /**
 665:Middlewares/Third_Party/LwIP/src/apps/mqtt/mqtt.c ****  * Complete MQTT message received or buffer full
 666:Middlewares/Third_Party/LwIP/src/apps/mqtt/mqtt.c ****  * @param client MQTT client
 667:Middlewares/Third_Party/LwIP/src/apps/mqtt/mqtt.c ****  * @param fixed_hdr_idx header index
 668:Middlewares/Third_Party/LwIP/src/apps/mqtt/mqtt.c ****  * @param length length received part
 669:Middlewares/Third_Party/LwIP/src/apps/mqtt/mqtt.c ****  * @param remaining_length Remaining length of complete message
 670:Middlewares/Third_Party/LwIP/src/apps/mqtt/mqtt.c ****  */
 671:Middlewares/Third_Party/LwIP/src/apps/mqtt/mqtt.c **** static mqtt_connection_status_t
 672:Middlewares/Third_Party/LwIP/src/apps/mqtt/mqtt.c **** mqtt_message_received(mqtt_client_t *client, u8_t fixed_hdr_idx, u16_t length, u32_t remaining_leng
 673:Middlewares/Third_Party/LwIP/src/apps/mqtt/mqtt.c **** {
 674:Middlewares/Third_Party/LwIP/src/apps/mqtt/mqtt.c ****   mqtt_connection_status_t res = MQTT_CONNECT_ACCEPTED;
 675:Middlewares/Third_Party/LwIP/src/apps/mqtt/mqtt.c **** 
 676:Middlewares/Third_Party/LwIP/src/apps/mqtt/mqtt.c ****   u8_t *var_hdr_payload = client->rx_buffer + fixed_hdr_idx;
 677:Middlewares/Third_Party/LwIP/src/apps/mqtt/mqtt.c ****   size_t var_hdr_payload_bufsize = sizeof(client->rx_buffer) - fixed_hdr_idx;
 678:Middlewares/Third_Party/LwIP/src/apps/mqtt/mqtt.c **** 
 679:Middlewares/Third_Party/LwIP/src/apps/mqtt/mqtt.c ****   /* Control packet type */
 680:Middlewares/Third_Party/LwIP/src/apps/mqtt/mqtt.c ****   u8_t pkt_type = MQTT_CTL_PACKET_TYPE(client->rx_buffer[0]);
 681:Middlewares/Third_Party/LwIP/src/apps/mqtt/mqtt.c ****   u16_t pkt_id = 0;
 682:Middlewares/Third_Party/LwIP/src/apps/mqtt/mqtt.c **** 
 683:Middlewares/Third_Party/LwIP/src/apps/mqtt/mqtt.c ****   LWIP_ASSERT("client->msg_idx < MQTT_VAR_HEADER_BUFFER_LEN", client->msg_idx < MQTT_VAR_HEADER_BUF
 684:Middlewares/Third_Party/LwIP/src/apps/mqtt/mqtt.c ****   LWIP_ASSERT("fixed_hdr_idx <= client->msg_idx", fixed_hdr_idx <= client->msg_idx);
 685:Middlewares/Third_Party/LwIP/src/apps/mqtt/mqtt.c ****   LWIP_ERROR("buffer length mismatch", fixed_hdr_idx + length <= MQTT_VAR_HEADER_BUFFER_LEN,
 686:Middlewares/Third_Party/LwIP/src/apps/mqtt/mqtt.c ****              return MQTT_CONNECT_DISCONNECTED);
 687:Middlewares/Third_Party/LwIP/src/apps/mqtt/mqtt.c **** 
 688:Middlewares/Third_Party/LwIP/src/apps/mqtt/mqtt.c ****   if (pkt_type == MQTT_MSG_TYPE_CONNACK) {
 689:Middlewares/Third_Party/LwIP/src/apps/mqtt/mqtt.c ****     if (client->conn_state == MQTT_CONNECTING) {
 690:Middlewares/Third_Party/LwIP/src/apps/mqtt/mqtt.c ****       if (length < 2) {
 691:Middlewares/Third_Party/LwIP/src/apps/mqtt/mqtt.c ****         LWIP_DEBUGF(MQTT_DEBUG_WARN,( "mqtt_message_received: Received short CONNACK message\n"));
 692:Middlewares/Third_Party/LwIP/src/apps/mqtt/mqtt.c ****         goto out_disconnect;
 693:Middlewares/Third_Party/LwIP/src/apps/mqtt/mqtt.c ****       }
 694:Middlewares/Third_Party/LwIP/src/apps/mqtt/mqtt.c ****       /* Get result code from CONNACK */
 695:Middlewares/Third_Party/LwIP/src/apps/mqtt/mqtt.c ****       res = (mqtt_connection_status_t)var_hdr_payload[1];
 696:Middlewares/Third_Party/LwIP/src/apps/mqtt/mqtt.c ****       LWIP_DEBUGF(MQTT_DEBUG_TRACE, ("mqtt_message_received: Connect response code %d\n", res));
 697:Middlewares/Third_Party/LwIP/src/apps/mqtt/mqtt.c ****       if (res == MQTT_CONNECT_ACCEPTED) {
 698:Middlewares/Third_Party/LwIP/src/apps/mqtt/mqtt.c ****         /* Reset cyclic_tick when changing to connected state */
 699:Middlewares/Third_Party/LwIP/src/apps/mqtt/mqtt.c ****         client->cyclic_tick = 0;
 700:Middlewares/Third_Party/LwIP/src/apps/mqtt/mqtt.c ****         client->conn_state = MQTT_CONNECTED;
 701:Middlewares/Third_Party/LwIP/src/apps/mqtt/mqtt.c ****         /* Notify upper layer */
 702:Middlewares/Third_Party/LwIP/src/apps/mqtt/mqtt.c ****         if (client->connect_cb != 0) {
 703:Middlewares/Third_Party/LwIP/src/apps/mqtt/mqtt.c ****           client->connect_cb(client, client->connect_arg, res);
 704:Middlewares/Third_Party/LwIP/src/apps/mqtt/mqtt.c ****         }
 705:Middlewares/Third_Party/LwIP/src/apps/mqtt/mqtt.c ****       }
 706:Middlewares/Third_Party/LwIP/src/apps/mqtt/mqtt.c ****     } else {
 707:Middlewares/Third_Party/LwIP/src/apps/mqtt/mqtt.c ****       LWIP_DEBUGF(MQTT_DEBUG_WARN, ("mqtt_message_received: Received CONNACK in connected state\n")
 708:Middlewares/Third_Party/LwIP/src/apps/mqtt/mqtt.c ****     }
 709:Middlewares/Third_Party/LwIP/src/apps/mqtt/mqtt.c ****   } else if (pkt_type == MQTT_MSG_TYPE_PINGRESP) {
 710:Middlewares/Third_Party/LwIP/src/apps/mqtt/mqtt.c ****     LWIP_DEBUGF(MQTT_DEBUG_TRACE, ( "mqtt_message_received: Received PINGRESP from server\n"));
 711:Middlewares/Third_Party/LwIP/src/apps/mqtt/mqtt.c **** 
 712:Middlewares/Third_Party/LwIP/src/apps/mqtt/mqtt.c ****   } else if (pkt_type == MQTT_MSG_TYPE_PUBLISH) {
 713:Middlewares/Third_Party/LwIP/src/apps/mqtt/mqtt.c ****     u16_t payload_offset = 0;
 714:Middlewares/Third_Party/LwIP/src/apps/mqtt/mqtt.c ****     u16_t payload_length = length;
 715:Middlewares/Third_Party/LwIP/src/apps/mqtt/mqtt.c ****     u8_t qos = MQTT_CTL_PACKET_QOS(client->rx_buffer[0]);
ARM GAS  /tmp/ccVfyJBo.s 			page 48


 716:Middlewares/Third_Party/LwIP/src/apps/mqtt/mqtt.c **** 
 717:Middlewares/Third_Party/LwIP/src/apps/mqtt/mqtt.c ****     if (client->msg_idx <= MQTT_VAR_HEADER_BUFFER_LEN) {
 718:Middlewares/Third_Party/LwIP/src/apps/mqtt/mqtt.c ****       /* Should have topic and pkt id*/
 719:Middlewares/Third_Party/LwIP/src/apps/mqtt/mqtt.c ****       u8_t *topic;
 720:Middlewares/Third_Party/LwIP/src/apps/mqtt/mqtt.c ****       u16_t after_topic;
 721:Middlewares/Third_Party/LwIP/src/apps/mqtt/mqtt.c ****       u8_t bkp;
 722:Middlewares/Third_Party/LwIP/src/apps/mqtt/mqtt.c ****       u16_t topic_len;
 723:Middlewares/Third_Party/LwIP/src/apps/mqtt/mqtt.c ****       u16_t qos_len = (qos ? 2U : 0U);
 724:Middlewares/Third_Party/LwIP/src/apps/mqtt/mqtt.c ****       if (length < 2 + qos_len) {
 725:Middlewares/Third_Party/LwIP/src/apps/mqtt/mqtt.c ****         LWIP_DEBUGF(MQTT_DEBUG_WARN,( "mqtt_message_received: Received short PUBLISH packet\n"));
 726:Middlewares/Third_Party/LwIP/src/apps/mqtt/mqtt.c ****         goto out_disconnect;
 727:Middlewares/Third_Party/LwIP/src/apps/mqtt/mqtt.c ****       }
 728:Middlewares/Third_Party/LwIP/src/apps/mqtt/mqtt.c ****       topic_len = var_hdr_payload[0];
 729:Middlewares/Third_Party/LwIP/src/apps/mqtt/mqtt.c ****       topic_len = (topic_len << 8) + (u16_t)(var_hdr_payload[1]);
 730:Middlewares/Third_Party/LwIP/src/apps/mqtt/mqtt.c ****       if ((topic_len > length - (2 + qos_len)) ||
 731:Middlewares/Third_Party/LwIP/src/apps/mqtt/mqtt.c ****           (topic_len > var_hdr_payload_bufsize - (2 + qos_len))) {
 732:Middlewares/Third_Party/LwIP/src/apps/mqtt/mqtt.c ****         LWIP_DEBUGF(MQTT_DEBUG_WARN,( "mqtt_message_received: Received short PUBLISH packet (topic)
 733:Middlewares/Third_Party/LwIP/src/apps/mqtt/mqtt.c ****         goto out_disconnect;
 734:Middlewares/Third_Party/LwIP/src/apps/mqtt/mqtt.c ****       }
 735:Middlewares/Third_Party/LwIP/src/apps/mqtt/mqtt.c **** 
 736:Middlewares/Third_Party/LwIP/src/apps/mqtt/mqtt.c ****       topic = var_hdr_payload + 2;
 737:Middlewares/Third_Party/LwIP/src/apps/mqtt/mqtt.c ****       after_topic = 2 + topic_len;
 738:Middlewares/Third_Party/LwIP/src/apps/mqtt/mqtt.c ****       /* Check buffer length, add one byte even for QoS 0 so that zero termination will fit */
 739:Middlewares/Third_Party/LwIP/src/apps/mqtt/mqtt.c ****       if ((after_topic + (qos ? 2U : 1U)) > var_hdr_payload_bufsize) {
 740:Middlewares/Third_Party/LwIP/src/apps/mqtt/mqtt.c ****         LWIP_DEBUGF(MQTT_DEBUG_WARN, ("mqtt_message_received: Receive buffer can not fit topic + pk
 741:Middlewares/Third_Party/LwIP/src/apps/mqtt/mqtt.c ****         goto out_disconnect;
 742:Middlewares/Third_Party/LwIP/src/apps/mqtt/mqtt.c ****       }
 743:Middlewares/Third_Party/LwIP/src/apps/mqtt/mqtt.c **** 
 744:Middlewares/Third_Party/LwIP/src/apps/mqtt/mqtt.c ****       /* id for QoS 1 and 2 */
 745:Middlewares/Third_Party/LwIP/src/apps/mqtt/mqtt.c ****       if (qos > 0) {
 746:Middlewares/Third_Party/LwIP/src/apps/mqtt/mqtt.c ****         if (length < after_topic + 2U) {
 747:Middlewares/Third_Party/LwIP/src/apps/mqtt/mqtt.c ****           LWIP_DEBUGF(MQTT_DEBUG_WARN,( "mqtt_message_received: Received short PUBLISH packet (afte
 748:Middlewares/Third_Party/LwIP/src/apps/mqtt/mqtt.c ****           goto out_disconnect;
 749:Middlewares/Third_Party/LwIP/src/apps/mqtt/mqtt.c ****         }
 750:Middlewares/Third_Party/LwIP/src/apps/mqtt/mqtt.c ****         client->inpub_pkt_id = ((u16_t)var_hdr_payload[after_topic] << 8) + (u16_t)var_hdr_payload[
 751:Middlewares/Third_Party/LwIP/src/apps/mqtt/mqtt.c ****         after_topic += 2;
 752:Middlewares/Third_Party/LwIP/src/apps/mqtt/mqtt.c ****       } else {
 753:Middlewares/Third_Party/LwIP/src/apps/mqtt/mqtt.c ****         client->inpub_pkt_id = 0;
 754:Middlewares/Third_Party/LwIP/src/apps/mqtt/mqtt.c ****       }
 755:Middlewares/Third_Party/LwIP/src/apps/mqtt/mqtt.c ****       /* Take backup of byte after topic */
 756:Middlewares/Third_Party/LwIP/src/apps/mqtt/mqtt.c ****       bkp = topic[topic_len];
 757:Middlewares/Third_Party/LwIP/src/apps/mqtt/mqtt.c ****       /* Zero terminate string */
 758:Middlewares/Third_Party/LwIP/src/apps/mqtt/mqtt.c ****       topic[topic_len] = 0;
 759:Middlewares/Third_Party/LwIP/src/apps/mqtt/mqtt.c ****       /* Payload data remaining in receive buffer */
 760:Middlewares/Third_Party/LwIP/src/apps/mqtt/mqtt.c ****       payload_length = length - after_topic;
 761:Middlewares/Third_Party/LwIP/src/apps/mqtt/mqtt.c ****       payload_offset = after_topic;
 762:Middlewares/Third_Party/LwIP/src/apps/mqtt/mqtt.c **** 
 763:Middlewares/Third_Party/LwIP/src/apps/mqtt/mqtt.c ****       LWIP_DEBUGF(MQTT_DEBUG_TRACE, ("mqtt_incomming_publish: Received message with QoS %d at topic
 764:Middlewares/Third_Party/LwIP/src/apps/mqtt/mqtt.c ****                                      qos, topic, remaining_length + payload_length));
 765:Middlewares/Third_Party/LwIP/src/apps/mqtt/mqtt.c ****       if (client->pub_cb != NULL) {
 766:Middlewares/Third_Party/LwIP/src/apps/mqtt/mqtt.c ****         client->pub_cb(client->inpub_arg, (const char *)topic, remaining_length + payload_length);
 767:Middlewares/Third_Party/LwIP/src/apps/mqtt/mqtt.c ****       }
 768:Middlewares/Third_Party/LwIP/src/apps/mqtt/mqtt.c ****       /* Restore byte after topic */
 769:Middlewares/Third_Party/LwIP/src/apps/mqtt/mqtt.c ****       topic[topic_len] = bkp;
 770:Middlewares/Third_Party/LwIP/src/apps/mqtt/mqtt.c ****     }
 771:Middlewares/Third_Party/LwIP/src/apps/mqtt/mqtt.c ****     if (payload_length > 0 || remaining_length == 0) {
 772:Middlewares/Third_Party/LwIP/src/apps/mqtt/mqtt.c ****       if (length < (size_t)(payload_offset + payload_length)) {
ARM GAS  /tmp/ccVfyJBo.s 			page 49


 773:Middlewares/Third_Party/LwIP/src/apps/mqtt/mqtt.c ****         LWIP_DEBUGF(MQTT_DEBUG_WARN,( "mqtt_message_received: Received short packet (payload)\n"));
 774:Middlewares/Third_Party/LwIP/src/apps/mqtt/mqtt.c ****         goto out_disconnect;
 775:Middlewares/Third_Party/LwIP/src/apps/mqtt/mqtt.c ****       }
 776:Middlewares/Third_Party/LwIP/src/apps/mqtt/mqtt.c ****       client->data_cb(client->inpub_arg, var_hdr_payload + payload_offset, payload_length, remainin
 777:Middlewares/Third_Party/LwIP/src/apps/mqtt/mqtt.c ****       /* Reply if QoS > 0 */
 778:Middlewares/Third_Party/LwIP/src/apps/mqtt/mqtt.c ****       if (remaining_length == 0 && qos > 0) {
 779:Middlewares/Third_Party/LwIP/src/apps/mqtt/mqtt.c ****         /* Send PUBACK for QoS 1 or PUBREC for QoS 2 */
 780:Middlewares/Third_Party/LwIP/src/apps/mqtt/mqtt.c ****         u8_t resp_msg = (qos == 1) ? MQTT_MSG_TYPE_PUBACK : MQTT_MSG_TYPE_PUBREC;
 781:Middlewares/Third_Party/LwIP/src/apps/mqtt/mqtt.c ****         LWIP_DEBUGF(MQTT_DEBUG_TRACE, ("mqtt_incomming_publish: Sending publish response: %s with p
 782:Middlewares/Third_Party/LwIP/src/apps/mqtt/mqtt.c ****                                        mqtt_msg_type_to_str(resp_msg), client->inpub_pkt_id));
 783:Middlewares/Third_Party/LwIP/src/apps/mqtt/mqtt.c ****         pub_ack_rec_rel_response(client, resp_msg, client->inpub_pkt_id, 0);
 784:Middlewares/Third_Party/LwIP/src/apps/mqtt/mqtt.c ****       }
 785:Middlewares/Third_Party/LwIP/src/apps/mqtt/mqtt.c ****     }
 786:Middlewares/Third_Party/LwIP/src/apps/mqtt/mqtt.c ****   } else {
 787:Middlewares/Third_Party/LwIP/src/apps/mqtt/mqtt.c ****     /* Get packet identifier */
 788:Middlewares/Third_Party/LwIP/src/apps/mqtt/mqtt.c ****     pkt_id = (u16_t)var_hdr_payload[0] << 8;
 789:Middlewares/Third_Party/LwIP/src/apps/mqtt/mqtt.c ****     pkt_id |= (u16_t)var_hdr_payload[1];
 790:Middlewares/Third_Party/LwIP/src/apps/mqtt/mqtt.c ****     if (pkt_id == 0) {
 791:Middlewares/Third_Party/LwIP/src/apps/mqtt/mqtt.c ****       LWIP_DEBUGF(MQTT_DEBUG_WARN, ("mqtt_message_received: Got message with illegal packet identif
 792:Middlewares/Third_Party/LwIP/src/apps/mqtt/mqtt.c ****       goto out_disconnect;
 793:Middlewares/Third_Party/LwIP/src/apps/mqtt/mqtt.c ****     }
 794:Middlewares/Third_Party/LwIP/src/apps/mqtt/mqtt.c ****     if (pkt_type == MQTT_MSG_TYPE_PUBREC) {
 795:Middlewares/Third_Party/LwIP/src/apps/mqtt/mqtt.c ****       LWIP_DEBUGF(MQTT_DEBUG_TRACE, ("mqtt_message_received: PUBREC, sending PUBREL with pkt_id: %d
 796:Middlewares/Third_Party/LwIP/src/apps/mqtt/mqtt.c ****       pub_ack_rec_rel_response(client, MQTT_MSG_TYPE_PUBREL, pkt_id, 1);
 797:Middlewares/Third_Party/LwIP/src/apps/mqtt/mqtt.c **** 
 798:Middlewares/Third_Party/LwIP/src/apps/mqtt/mqtt.c ****     } else if (pkt_type == MQTT_MSG_TYPE_PUBREL) {
 799:Middlewares/Third_Party/LwIP/src/apps/mqtt/mqtt.c ****       LWIP_DEBUGF(MQTT_DEBUG_TRACE, ("mqtt_message_received: PUBREL, sending PUBCOMP response with 
 800:Middlewares/Third_Party/LwIP/src/apps/mqtt/mqtt.c ****       pub_ack_rec_rel_response(client, MQTT_MSG_TYPE_PUBCOMP, pkt_id, 0);
 801:Middlewares/Third_Party/LwIP/src/apps/mqtt/mqtt.c **** 
 802:Middlewares/Third_Party/LwIP/src/apps/mqtt/mqtt.c ****     } else if (pkt_type == MQTT_MSG_TYPE_SUBACK || pkt_type == MQTT_MSG_TYPE_UNSUBACK ||
 803:Middlewares/Third_Party/LwIP/src/apps/mqtt/mqtt.c ****                pkt_type == MQTT_MSG_TYPE_PUBCOMP || pkt_type == MQTT_MSG_TYPE_PUBACK) {
 804:Middlewares/Third_Party/LwIP/src/apps/mqtt/mqtt.c ****       struct mqtt_request_t *r = mqtt_take_request(&client->pend_req_queue, pkt_id);
 805:Middlewares/Third_Party/LwIP/src/apps/mqtt/mqtt.c ****       if (r != NULL) {
 806:Middlewares/Third_Party/LwIP/src/apps/mqtt/mqtt.c ****         LWIP_DEBUGF(MQTT_DEBUG_TRACE, ("mqtt_message_received: %s response with id %d\n", mqtt_msg_
 807:Middlewares/Third_Party/LwIP/src/apps/mqtt/mqtt.c ****         if (pkt_type == MQTT_MSG_TYPE_SUBACK) {
 808:Middlewares/Third_Party/LwIP/src/apps/mqtt/mqtt.c ****           if (length < 3) {
 809:Middlewares/Third_Party/LwIP/src/apps/mqtt/mqtt.c ****             LWIP_DEBUGF(MQTT_DEBUG_WARN, ("mqtt_message_received: To small SUBACK packet\n"));
 810:Middlewares/Third_Party/LwIP/src/apps/mqtt/mqtt.c ****             goto out_disconnect;
 811:Middlewares/Third_Party/LwIP/src/apps/mqtt/mqtt.c ****           } else {
 812:Middlewares/Third_Party/LwIP/src/apps/mqtt/mqtt.c ****             mqtt_incomming_suback(r, var_hdr_payload[2]);
 813:Middlewares/Third_Party/LwIP/src/apps/mqtt/mqtt.c ****           }
 814:Middlewares/Third_Party/LwIP/src/apps/mqtt/mqtt.c ****         } else if (r->cb != NULL) {
 815:Middlewares/Third_Party/LwIP/src/apps/mqtt/mqtt.c ****           r->cb(r->arg, ERR_OK);
 816:Middlewares/Third_Party/LwIP/src/apps/mqtt/mqtt.c ****         }
 817:Middlewares/Third_Party/LwIP/src/apps/mqtt/mqtt.c ****         mqtt_delete_request(r);
 818:Middlewares/Third_Party/LwIP/src/apps/mqtt/mqtt.c ****       } else {
 819:Middlewares/Third_Party/LwIP/src/apps/mqtt/mqtt.c ****         LWIP_DEBUGF(MQTT_DEBUG_WARN, ( "mqtt_message_received: Received %s reply, with wrong pkt_id
 820:Middlewares/Third_Party/LwIP/src/apps/mqtt/mqtt.c ****       }
 821:Middlewares/Third_Party/LwIP/src/apps/mqtt/mqtt.c ****     } else {
 822:Middlewares/Third_Party/LwIP/src/apps/mqtt/mqtt.c ****       LWIP_DEBUGF(MQTT_DEBUG_WARN, ( "mqtt_message_received: Received unknown message type: %d\n", 
 823:Middlewares/Third_Party/LwIP/src/apps/mqtt/mqtt.c ****       goto out_disconnect;
 824:Middlewares/Third_Party/LwIP/src/apps/mqtt/mqtt.c ****     }
 825:Middlewares/Third_Party/LwIP/src/apps/mqtt/mqtt.c ****   }
 826:Middlewares/Third_Party/LwIP/src/apps/mqtt/mqtt.c ****   return res;
 827:Middlewares/Third_Party/LwIP/src/apps/mqtt/mqtt.c **** out_disconnect:
 828:Middlewares/Third_Party/LwIP/src/apps/mqtt/mqtt.c ****   return MQTT_CONNECT_DISCONNECTED;
 829:Middlewares/Third_Party/LwIP/src/apps/mqtt/mqtt.c **** }
ARM GAS  /tmp/ccVfyJBo.s 			page 50


 830:Middlewares/Third_Party/LwIP/src/apps/mqtt/mqtt.c **** 
 831:Middlewares/Third_Party/LwIP/src/apps/mqtt/mqtt.c **** 
 832:Middlewares/Third_Party/LwIP/src/apps/mqtt/mqtt.c **** /**
 833:Middlewares/Third_Party/LwIP/src/apps/mqtt/mqtt.c ****  * MQTT incoming message parser
 834:Middlewares/Third_Party/LwIP/src/apps/mqtt/mqtt.c ****  * @param client MQTT client
 835:Middlewares/Third_Party/LwIP/src/apps/mqtt/mqtt.c ****  * @param p PBUF chain of received data
 836:Middlewares/Third_Party/LwIP/src/apps/mqtt/mqtt.c ****  * @return Connection status
 837:Middlewares/Third_Party/LwIP/src/apps/mqtt/mqtt.c ****  */
 838:Middlewares/Third_Party/LwIP/src/apps/mqtt/mqtt.c **** static mqtt_connection_status_t
 839:Middlewares/Third_Party/LwIP/src/apps/mqtt/mqtt.c **** mqtt_parse_incoming(mqtt_client_t *client, struct pbuf *p)
 840:Middlewares/Third_Party/LwIP/src/apps/mqtt/mqtt.c **** {
 841:Middlewares/Third_Party/LwIP/src/apps/mqtt/mqtt.c ****   u16_t in_offset = 0;
 842:Middlewares/Third_Party/LwIP/src/apps/mqtt/mqtt.c ****   u32_t msg_rem_len = 0;
 843:Middlewares/Third_Party/LwIP/src/apps/mqtt/mqtt.c ****   u8_t fixed_hdr_idx = 0;
 844:Middlewares/Third_Party/LwIP/src/apps/mqtt/mqtt.c ****   u8_t b = 0;
 845:Middlewares/Third_Party/LwIP/src/apps/mqtt/mqtt.c **** 
 846:Middlewares/Third_Party/LwIP/src/apps/mqtt/mqtt.c ****   while (p->tot_len > in_offset) {
 847:Middlewares/Third_Party/LwIP/src/apps/mqtt/mqtt.c ****     /* We ALWAYS parse the header here first. Even if the header was not
 848:Middlewares/Third_Party/LwIP/src/apps/mqtt/mqtt.c ****        included in this segment, we re-parse it here by buffering it in
 849:Middlewares/Third_Party/LwIP/src/apps/mqtt/mqtt.c ****        client->rx_buffer. client->msg_idx keeps track of this. */
 850:Middlewares/Third_Party/LwIP/src/apps/mqtt/mqtt.c ****     if ((fixed_hdr_idx < 2) || ((b & 0x80) != 0)) {
 851:Middlewares/Third_Party/LwIP/src/apps/mqtt/mqtt.c **** 
 852:Middlewares/Third_Party/LwIP/src/apps/mqtt/mqtt.c ****       if (fixed_hdr_idx < client->msg_idx) {
 853:Middlewares/Third_Party/LwIP/src/apps/mqtt/mqtt.c ****         /* parse header from old pbuf (buffered in client->rx_buffer) */
 854:Middlewares/Third_Party/LwIP/src/apps/mqtt/mqtt.c ****         b = client->rx_buffer[fixed_hdr_idx];
 855:Middlewares/Third_Party/LwIP/src/apps/mqtt/mqtt.c ****       } else {
 856:Middlewares/Third_Party/LwIP/src/apps/mqtt/mqtt.c ****         /* parse header from this pbuf and save it in client->rx_buffer in case
 857:Middlewares/Third_Party/LwIP/src/apps/mqtt/mqtt.c ****            it comes in segmented */
 858:Middlewares/Third_Party/LwIP/src/apps/mqtt/mqtt.c ****         b = pbuf_get_at(p, in_offset++);
 859:Middlewares/Third_Party/LwIP/src/apps/mqtt/mqtt.c ****         client->rx_buffer[client->msg_idx++] = b;
 860:Middlewares/Third_Party/LwIP/src/apps/mqtt/mqtt.c ****       }
 861:Middlewares/Third_Party/LwIP/src/apps/mqtt/mqtt.c ****       fixed_hdr_idx++;
 862:Middlewares/Third_Party/LwIP/src/apps/mqtt/mqtt.c **** 
 863:Middlewares/Third_Party/LwIP/src/apps/mqtt/mqtt.c ****       if (fixed_hdr_idx >= 2) {
 864:Middlewares/Third_Party/LwIP/src/apps/mqtt/mqtt.c ****         /* fixed header contains at least 2 bytes but can contain more, depending on
 865:Middlewares/Third_Party/LwIP/src/apps/mqtt/mqtt.c ****            'remaining length'. All bytes but the last of this have 0x80 set to
 866:Middlewares/Third_Party/LwIP/src/apps/mqtt/mqtt.c ****            indicate more bytes are coming. */
 867:Middlewares/Third_Party/LwIP/src/apps/mqtt/mqtt.c ****         msg_rem_len |= (u32_t)(b & 0x7f) << ((fixed_hdr_idx - 2) * 7);
 868:Middlewares/Third_Party/LwIP/src/apps/mqtt/mqtt.c ****         if ((b & 0x80) == 0) {
 869:Middlewares/Third_Party/LwIP/src/apps/mqtt/mqtt.c ****           /* fixed header is done */
 870:Middlewares/Third_Party/LwIP/src/apps/mqtt/mqtt.c ****           LWIP_DEBUGF(MQTT_DEBUG_TRACE, ("mqtt_parse_incoming: Remaining length after fixed header:
 871:Middlewares/Third_Party/LwIP/src/apps/mqtt/mqtt.c ****           if (msg_rem_len == 0) {
 872:Middlewares/Third_Party/LwIP/src/apps/mqtt/mqtt.c ****             /* Complete message with no extra headers of payload received */
 873:Middlewares/Third_Party/LwIP/src/apps/mqtt/mqtt.c ****             mqtt_message_received(client, fixed_hdr_idx, 0, 0);
 874:Middlewares/Third_Party/LwIP/src/apps/mqtt/mqtt.c ****             client->msg_idx = 0;
 875:Middlewares/Third_Party/LwIP/src/apps/mqtt/mqtt.c ****             fixed_hdr_idx = 0;
 876:Middlewares/Third_Party/LwIP/src/apps/mqtt/mqtt.c ****           } else {
 877:Middlewares/Third_Party/LwIP/src/apps/mqtt/mqtt.c ****             /* Bytes remaining in message (changes remaining length if this is
 878:Middlewares/Third_Party/LwIP/src/apps/mqtt/mqtt.c ****                not the first segment of this message) */
 879:Middlewares/Third_Party/LwIP/src/apps/mqtt/mqtt.c ****             msg_rem_len = (msg_rem_len + fixed_hdr_idx) - client->msg_idx;
 880:Middlewares/Third_Party/LwIP/src/apps/mqtt/mqtt.c ****           }
 881:Middlewares/Third_Party/LwIP/src/apps/mqtt/mqtt.c ****         }
 882:Middlewares/Third_Party/LwIP/src/apps/mqtt/mqtt.c ****       }
 883:Middlewares/Third_Party/LwIP/src/apps/mqtt/mqtt.c ****     } else {
 884:Middlewares/Third_Party/LwIP/src/apps/mqtt/mqtt.c ****       /* Fixed header has been parsed, parse variable header */
 885:Middlewares/Third_Party/LwIP/src/apps/mqtt/mqtt.c ****       u16_t cpy_len, cpy_start, buffer_space;
 886:Middlewares/Third_Party/LwIP/src/apps/mqtt/mqtt.c **** 
ARM GAS  /tmp/ccVfyJBo.s 			page 51


 887:Middlewares/Third_Party/LwIP/src/apps/mqtt/mqtt.c ****       cpy_start = (client->msg_idx - fixed_hdr_idx) % (MQTT_VAR_HEADER_BUFFER_LEN - fixed_hdr_idx) 
 888:Middlewares/Third_Party/LwIP/src/apps/mqtt/mqtt.c **** 
 889:Middlewares/Third_Party/LwIP/src/apps/mqtt/mqtt.c ****       /* Allow to copy the lesser one of available length in input data or bytes remaining in messa
 890:Middlewares/Third_Party/LwIP/src/apps/mqtt/mqtt.c ****       cpy_len = (u16_t)LWIP_MIN((u16_t)(p->tot_len - in_offset), msg_rem_len);
 891:Middlewares/Third_Party/LwIP/src/apps/mqtt/mqtt.c **** 
 892:Middlewares/Third_Party/LwIP/src/apps/mqtt/mqtt.c ****       /* Limit to available space in buffer */
 893:Middlewares/Third_Party/LwIP/src/apps/mqtt/mqtt.c ****       buffer_space = MQTT_VAR_HEADER_BUFFER_LEN - cpy_start;
 894:Middlewares/Third_Party/LwIP/src/apps/mqtt/mqtt.c ****       if (cpy_len > buffer_space) {
 895:Middlewares/Third_Party/LwIP/src/apps/mqtt/mqtt.c ****         cpy_len = buffer_space;
 896:Middlewares/Third_Party/LwIP/src/apps/mqtt/mqtt.c ****       }
 897:Middlewares/Third_Party/LwIP/src/apps/mqtt/mqtt.c ****       pbuf_copy_partial(p, client->rx_buffer + cpy_start, cpy_len, in_offset);
 898:Middlewares/Third_Party/LwIP/src/apps/mqtt/mqtt.c **** 
 899:Middlewares/Third_Party/LwIP/src/apps/mqtt/mqtt.c ****       /* Advance get and put indexes  */
 900:Middlewares/Third_Party/LwIP/src/apps/mqtt/mqtt.c ****       client->msg_idx += cpy_len;
 901:Middlewares/Third_Party/LwIP/src/apps/mqtt/mqtt.c ****       in_offset += cpy_len;
 902:Middlewares/Third_Party/LwIP/src/apps/mqtt/mqtt.c ****       msg_rem_len -= cpy_len;
 903:Middlewares/Third_Party/LwIP/src/apps/mqtt/mqtt.c **** 
 904:Middlewares/Third_Party/LwIP/src/apps/mqtt/mqtt.c ****       LWIP_DEBUGF(MQTT_DEBUG_TRACE, ("mqtt_parse_incoming: msg_idx: %"U32_F", cpy_len: %"U16_F", re
 905:Middlewares/Third_Party/LwIP/src/apps/mqtt/mqtt.c ****       if ((msg_rem_len == 0) || (cpy_len == buffer_space)) {
 906:Middlewares/Third_Party/LwIP/src/apps/mqtt/mqtt.c ****         /* Whole message received or buffer is full */
 907:Middlewares/Third_Party/LwIP/src/apps/mqtt/mqtt.c ****         mqtt_connection_status_t res = mqtt_message_received(client, fixed_hdr_idx, (cpy_start + cp
 908:Middlewares/Third_Party/LwIP/src/apps/mqtt/mqtt.c ****         if (res != MQTT_CONNECT_ACCEPTED) {
 909:Middlewares/Third_Party/LwIP/src/apps/mqtt/mqtt.c ****           return res;
 910:Middlewares/Third_Party/LwIP/src/apps/mqtt/mqtt.c ****         }
 911:Middlewares/Third_Party/LwIP/src/apps/mqtt/mqtt.c ****         if (msg_rem_len == 0) {
 912:Middlewares/Third_Party/LwIP/src/apps/mqtt/mqtt.c ****           /* Reset parser state */
 913:Middlewares/Third_Party/LwIP/src/apps/mqtt/mqtt.c ****           client->msg_idx = 0;
 914:Middlewares/Third_Party/LwIP/src/apps/mqtt/mqtt.c ****           /* msg_tot_len = 0; */
 915:Middlewares/Third_Party/LwIP/src/apps/mqtt/mqtt.c ****           fixed_hdr_idx = 0;
 916:Middlewares/Third_Party/LwIP/src/apps/mqtt/mqtt.c ****         }
 917:Middlewares/Third_Party/LwIP/src/apps/mqtt/mqtt.c ****       }
 918:Middlewares/Third_Party/LwIP/src/apps/mqtt/mqtt.c ****     }
 919:Middlewares/Third_Party/LwIP/src/apps/mqtt/mqtt.c ****   }
 920:Middlewares/Third_Party/LwIP/src/apps/mqtt/mqtt.c ****   return MQTT_CONNECT_ACCEPTED;
 921:Middlewares/Third_Party/LwIP/src/apps/mqtt/mqtt.c **** }
 922:Middlewares/Third_Party/LwIP/src/apps/mqtt/mqtt.c **** 
 923:Middlewares/Third_Party/LwIP/src/apps/mqtt/mqtt.c **** 
 924:Middlewares/Third_Party/LwIP/src/apps/mqtt/mqtt.c **** /**
 925:Middlewares/Third_Party/LwIP/src/apps/mqtt/mqtt.c ****  * TCP received callback function. @see tcp_recv_fn
 926:Middlewares/Third_Party/LwIP/src/apps/mqtt/mqtt.c ****  * @param arg MQTT client
 927:Middlewares/Third_Party/LwIP/src/apps/mqtt/mqtt.c ****  * @param p PBUF chain of received data
 928:Middlewares/Third_Party/LwIP/src/apps/mqtt/mqtt.c ****  * @param err Passed as return value if not ERR_OK
 929:Middlewares/Third_Party/LwIP/src/apps/mqtt/mqtt.c ****  * @return ERR_OK or err passed into callback
 930:Middlewares/Third_Party/LwIP/src/apps/mqtt/mqtt.c ****  */
 931:Middlewares/Third_Party/LwIP/src/apps/mqtt/mqtt.c **** static err_t
 932:Middlewares/Third_Party/LwIP/src/apps/mqtt/mqtt.c **** mqtt_tcp_recv_cb(void *arg, struct altcp_pcb *pcb, struct pbuf *p, err_t err)
 933:Middlewares/Third_Party/LwIP/src/apps/mqtt/mqtt.c **** {
 934:Middlewares/Third_Party/LwIP/src/apps/mqtt/mqtt.c ****   mqtt_client_t *client = (mqtt_client_t *)arg;
 935:Middlewares/Third_Party/LwIP/src/apps/mqtt/mqtt.c ****   LWIP_ASSERT("mqtt_tcp_recv_cb: client != NULL", client != NULL);
 936:Middlewares/Third_Party/LwIP/src/apps/mqtt/mqtt.c ****   LWIP_ASSERT("mqtt_tcp_recv_cb: client->conn == pcb", client->conn == pcb);
 937:Middlewares/Third_Party/LwIP/src/apps/mqtt/mqtt.c **** 
 938:Middlewares/Third_Party/LwIP/src/apps/mqtt/mqtt.c ****   if (p == NULL) {
 939:Middlewares/Third_Party/LwIP/src/apps/mqtt/mqtt.c ****     LWIP_DEBUGF(MQTT_DEBUG_TRACE, ("mqtt_tcp_recv_cb: Recv pbuf=NULL, remote has closed connection\
 940:Middlewares/Third_Party/LwIP/src/apps/mqtt/mqtt.c ****     mqtt_close(client, MQTT_CONNECT_DISCONNECTED);
 941:Middlewares/Third_Party/LwIP/src/apps/mqtt/mqtt.c ****   } else {
 942:Middlewares/Third_Party/LwIP/src/apps/mqtt/mqtt.c ****     mqtt_connection_status_t res;
 943:Middlewares/Third_Party/LwIP/src/apps/mqtt/mqtt.c ****     if (err != ERR_OK) {
ARM GAS  /tmp/ccVfyJBo.s 			page 52


 944:Middlewares/Third_Party/LwIP/src/apps/mqtt/mqtt.c ****       LWIP_DEBUGF(MQTT_DEBUG_WARN, ("mqtt_tcp_recv_cb: Recv err=%d\n", err));
 945:Middlewares/Third_Party/LwIP/src/apps/mqtt/mqtt.c ****       pbuf_free(p);
 946:Middlewares/Third_Party/LwIP/src/apps/mqtt/mqtt.c ****       return err;
 947:Middlewares/Third_Party/LwIP/src/apps/mqtt/mqtt.c ****     }
 948:Middlewares/Third_Party/LwIP/src/apps/mqtt/mqtt.c **** 
 949:Middlewares/Third_Party/LwIP/src/apps/mqtt/mqtt.c ****     /* Tell remote that data has been received */
 950:Middlewares/Third_Party/LwIP/src/apps/mqtt/mqtt.c ****     altcp_recved(pcb, p->tot_len);
 951:Middlewares/Third_Party/LwIP/src/apps/mqtt/mqtt.c ****     res = mqtt_parse_incoming(client, p);
 952:Middlewares/Third_Party/LwIP/src/apps/mqtt/mqtt.c ****     pbuf_free(p);
 953:Middlewares/Third_Party/LwIP/src/apps/mqtt/mqtt.c **** 
 954:Middlewares/Third_Party/LwIP/src/apps/mqtt/mqtt.c ****     if (res != MQTT_CONNECT_ACCEPTED) {
 955:Middlewares/Third_Party/LwIP/src/apps/mqtt/mqtt.c ****       mqtt_close(client, res);
 956:Middlewares/Third_Party/LwIP/src/apps/mqtt/mqtt.c ****     }
 957:Middlewares/Third_Party/LwIP/src/apps/mqtt/mqtt.c ****     /* If keep alive functionality is used */
 958:Middlewares/Third_Party/LwIP/src/apps/mqtt/mqtt.c ****     if (client->keep_alive != 0) {
 959:Middlewares/Third_Party/LwIP/src/apps/mqtt/mqtt.c ****       /* Reset server alive watchdog */
 960:Middlewares/Third_Party/LwIP/src/apps/mqtt/mqtt.c ****       client->server_watchdog = 0;
 961:Middlewares/Third_Party/LwIP/src/apps/mqtt/mqtt.c ****     }
 962:Middlewares/Third_Party/LwIP/src/apps/mqtt/mqtt.c **** 
 963:Middlewares/Third_Party/LwIP/src/apps/mqtt/mqtt.c ****   }
 964:Middlewares/Third_Party/LwIP/src/apps/mqtt/mqtt.c ****   return ERR_OK;
 965:Middlewares/Third_Party/LwIP/src/apps/mqtt/mqtt.c **** }
 966:Middlewares/Third_Party/LwIP/src/apps/mqtt/mqtt.c **** 
 967:Middlewares/Third_Party/LwIP/src/apps/mqtt/mqtt.c **** 
 968:Middlewares/Third_Party/LwIP/src/apps/mqtt/mqtt.c **** /**
 969:Middlewares/Third_Party/LwIP/src/apps/mqtt/mqtt.c ****  * TCP data sent callback function. @see tcp_sent_fn
 970:Middlewares/Third_Party/LwIP/src/apps/mqtt/mqtt.c ****  * @param arg MQTT client
 971:Middlewares/Third_Party/LwIP/src/apps/mqtt/mqtt.c ****  * @param tpcb TCP connection handle
 972:Middlewares/Third_Party/LwIP/src/apps/mqtt/mqtt.c ****  * @param len Number of bytes sent
 973:Middlewares/Third_Party/LwIP/src/apps/mqtt/mqtt.c ****  * @return ERR_OK
 974:Middlewares/Third_Party/LwIP/src/apps/mqtt/mqtt.c ****  */
 975:Middlewares/Third_Party/LwIP/src/apps/mqtt/mqtt.c **** static err_t
 976:Middlewares/Third_Party/LwIP/src/apps/mqtt/mqtt.c **** mqtt_tcp_sent_cb(void *arg, struct altcp_pcb *tpcb, u16_t len)
 977:Middlewares/Third_Party/LwIP/src/apps/mqtt/mqtt.c **** {
 978:Middlewares/Third_Party/LwIP/src/apps/mqtt/mqtt.c ****   mqtt_client_t *client = (mqtt_client_t *)arg;
 979:Middlewares/Third_Party/LwIP/src/apps/mqtt/mqtt.c **** 
 980:Middlewares/Third_Party/LwIP/src/apps/mqtt/mqtt.c ****   LWIP_UNUSED_ARG(tpcb);
 981:Middlewares/Third_Party/LwIP/src/apps/mqtt/mqtt.c ****   LWIP_UNUSED_ARG(len);
 982:Middlewares/Third_Party/LwIP/src/apps/mqtt/mqtt.c **** 
 983:Middlewares/Third_Party/LwIP/src/apps/mqtt/mqtt.c ****   if (client->conn_state == MQTT_CONNECTED) {
 984:Middlewares/Third_Party/LwIP/src/apps/mqtt/mqtt.c ****     struct mqtt_request_t *r;
 985:Middlewares/Third_Party/LwIP/src/apps/mqtt/mqtt.c **** 
 986:Middlewares/Third_Party/LwIP/src/apps/mqtt/mqtt.c ****     /* Reset keep-alive send timer and server watchdog */
 987:Middlewares/Third_Party/LwIP/src/apps/mqtt/mqtt.c ****     client->cyclic_tick = 0;
 988:Middlewares/Third_Party/LwIP/src/apps/mqtt/mqtt.c ****     client->server_watchdog = 0;
 989:Middlewares/Third_Party/LwIP/src/apps/mqtt/mqtt.c ****     /* QoS 0 publish has no response from server, so call its callbacks here */
 990:Middlewares/Third_Party/LwIP/src/apps/mqtt/mqtt.c ****     while ((r = mqtt_take_request(&client->pend_req_queue, 0)) != NULL) {
 991:Middlewares/Third_Party/LwIP/src/apps/mqtt/mqtt.c ****       LWIP_DEBUGF(MQTT_DEBUG_TRACE, ("mqtt_tcp_sent_cb: Calling QoS 0 publish complete callback\n")
 992:Middlewares/Third_Party/LwIP/src/apps/mqtt/mqtt.c ****       if (r->cb != NULL) {
 993:Middlewares/Third_Party/LwIP/src/apps/mqtt/mqtt.c ****         r->cb(r->arg, ERR_OK);
 994:Middlewares/Third_Party/LwIP/src/apps/mqtt/mqtt.c ****       }
 995:Middlewares/Third_Party/LwIP/src/apps/mqtt/mqtt.c ****       mqtt_delete_request(r);
 996:Middlewares/Third_Party/LwIP/src/apps/mqtt/mqtt.c ****     }
 997:Middlewares/Third_Party/LwIP/src/apps/mqtt/mqtt.c ****     /* Try send any remaining buffers from output queue */
 998:Middlewares/Third_Party/LwIP/src/apps/mqtt/mqtt.c ****     mqtt_output_send(&client->output, client->conn);
 999:Middlewares/Third_Party/LwIP/src/apps/mqtt/mqtt.c ****   }
1000:Middlewares/Third_Party/LwIP/src/apps/mqtt/mqtt.c ****   return ERR_OK;
ARM GAS  /tmp/ccVfyJBo.s 			page 53


1001:Middlewares/Third_Party/LwIP/src/apps/mqtt/mqtt.c **** }
1002:Middlewares/Third_Party/LwIP/src/apps/mqtt/mqtt.c **** 
1003:Middlewares/Third_Party/LwIP/src/apps/mqtt/mqtt.c **** /**
1004:Middlewares/Third_Party/LwIP/src/apps/mqtt/mqtt.c ****  * TCP error callback function. @see tcp_err_fn
1005:Middlewares/Third_Party/LwIP/src/apps/mqtt/mqtt.c ****  * @param arg MQTT client
1006:Middlewares/Third_Party/LwIP/src/apps/mqtt/mqtt.c ****  * @param err Error encountered
1007:Middlewares/Third_Party/LwIP/src/apps/mqtt/mqtt.c ****  */
1008:Middlewares/Third_Party/LwIP/src/apps/mqtt/mqtt.c **** static void
1009:Middlewares/Third_Party/LwIP/src/apps/mqtt/mqtt.c **** mqtt_tcp_err_cb(void *arg, err_t err)
1010:Middlewares/Third_Party/LwIP/src/apps/mqtt/mqtt.c **** {
1011:Middlewares/Third_Party/LwIP/src/apps/mqtt/mqtt.c ****   mqtt_client_t *client = (mqtt_client_t *)arg;
1012:Middlewares/Third_Party/LwIP/src/apps/mqtt/mqtt.c ****   LWIP_UNUSED_ARG(err); /* only used for debug output */
1013:Middlewares/Third_Party/LwIP/src/apps/mqtt/mqtt.c ****   LWIP_DEBUGF(MQTT_DEBUG_TRACE, ("mqtt_tcp_err_cb: TCP error callback: error %d, arg: %p\n", err, a
1014:Middlewares/Third_Party/LwIP/src/apps/mqtt/mqtt.c ****   LWIP_ASSERT("mqtt_tcp_err_cb: client != NULL", client != NULL);
1015:Middlewares/Third_Party/LwIP/src/apps/mqtt/mqtt.c ****   /* Set conn to null before calling close as pcb is already deallocated*/
1016:Middlewares/Third_Party/LwIP/src/apps/mqtt/mqtt.c ****   client->conn = 0;
1017:Middlewares/Third_Party/LwIP/src/apps/mqtt/mqtt.c ****   mqtt_close(client, MQTT_CONNECT_DISCONNECTED);
1018:Middlewares/Third_Party/LwIP/src/apps/mqtt/mqtt.c **** }
1019:Middlewares/Third_Party/LwIP/src/apps/mqtt/mqtt.c **** 
1020:Middlewares/Third_Party/LwIP/src/apps/mqtt/mqtt.c **** /**
1021:Middlewares/Third_Party/LwIP/src/apps/mqtt/mqtt.c ****  * TCP poll callback function. @see tcp_poll_fn
1022:Middlewares/Third_Party/LwIP/src/apps/mqtt/mqtt.c ****  * @param arg MQTT client
1023:Middlewares/Third_Party/LwIP/src/apps/mqtt/mqtt.c ****  * @param tpcb TCP connection handle
1024:Middlewares/Third_Party/LwIP/src/apps/mqtt/mqtt.c ****  * @return err ERR_OK
1025:Middlewares/Third_Party/LwIP/src/apps/mqtt/mqtt.c ****  */
1026:Middlewares/Third_Party/LwIP/src/apps/mqtt/mqtt.c **** static err_t
1027:Middlewares/Third_Party/LwIP/src/apps/mqtt/mqtt.c **** mqtt_tcp_poll_cb(void *arg, struct altcp_pcb *tpcb)
1028:Middlewares/Third_Party/LwIP/src/apps/mqtt/mqtt.c **** {
 1629              		.loc 1 1028 1 view -0
 1630              		.cfi_startproc
 1631              		@ args = 0, pretend = 0, frame = 0
 1632              		@ frame_needed = 0, uses_anonymous_args = 0
 1633              		.loc 1 1028 1 is_stmt 0 view .LVU436
 1634 0000 08B5     		push	{r3, lr}
 1635              	.LCFI15:
 1636              		.cfi_def_cfa_offset 8
 1637              		.cfi_offset 3, -8
 1638              		.cfi_offset 14, -4
1029:Middlewares/Third_Party/LwIP/src/apps/mqtt/mqtt.c ****   mqtt_client_t *client = (mqtt_client_t *)arg;
 1639              		.loc 1 1029 3 is_stmt 1 view .LVU437
 1640              	.LVL176:
1030:Middlewares/Third_Party/LwIP/src/apps/mqtt/mqtt.c ****   if (client->conn_state == MQTT_CONNECTED) {
 1641              		.loc 1 1030 3 view .LVU438
 1642              		.loc 1 1030 13 is_stmt 0 view .LVU439
 1643 0002 837A     		ldrb	r3, [r0, #10]	@ zero_extendqisi2
 1644              		.loc 1 1030 6 view .LVU440
 1645 0004 032B     		cmp	r3, #3
 1646 0006 01D0     		beq	.L136
 1647              	.LVL177:
 1648              	.L134:
1031:Middlewares/Third_Party/LwIP/src/apps/mqtt/mqtt.c ****     /* Try send any remaining buffers from output queue */
1032:Middlewares/Third_Party/LwIP/src/apps/mqtt/mqtt.c ****     mqtt_output_send(&client->output, tpcb);
1033:Middlewares/Third_Party/LwIP/src/apps/mqtt/mqtt.c ****   }
1034:Middlewares/Third_Party/LwIP/src/apps/mqtt/mqtt.c ****   return ERR_OK;
 1649              		.loc 1 1034 3 is_stmt 1 view .LVU441
1035:Middlewares/Third_Party/LwIP/src/apps/mqtt/mqtt.c **** }
 1650              		.loc 1 1035 1 is_stmt 0 view .LVU442
ARM GAS  /tmp/ccVfyJBo.s 			page 54


 1651 0008 0020     		movs	r0, #0
 1652 000a 08BD     		pop	{r3, pc}
 1653              	.LVL178:
 1654              	.L136:
1032:Middlewares/Third_Party/LwIP/src/apps/mqtt/mqtt.c ****   }
 1655              		.loc 1 1032 5 is_stmt 1 view .LVU443
 1656 000c EC30     		adds	r0, r0, #236
 1657              	.LVL179:
1032:Middlewares/Third_Party/LwIP/src/apps/mqtt/mqtt.c ****   }
 1658              		.loc 1 1032 5 is_stmt 0 view .LVU444
 1659 000e FFF7FEFF 		bl	mqtt_output_send
 1660              	.LVL180:
1032:Middlewares/Third_Party/LwIP/src/apps/mqtt/mqtt.c ****   }
 1661              		.loc 1 1032 5 view .LVU445
 1662 0012 F9E7     		b	.L134
 1663              		.cfi_endproc
 1664              	.LFE195:
 1666              		.section	.text.mqtt_tcp_sent_cb,"ax",%progbits
 1667              		.align	1
 1668              		.syntax unified
 1669              		.thumb
 1670              		.thumb_func
 1672              	mqtt_tcp_sent_cb:
 1673              	.LVL181:
 1674              	.LFB193:
 977:Middlewares/Third_Party/LwIP/src/apps/mqtt/mqtt.c ****   mqtt_client_t *client = (mqtt_client_t *)arg;
 1675              		.loc 1 977 1 is_stmt 1 view -0
 1676              		.cfi_startproc
 1677              		@ args = 0, pretend = 0, frame = 0
 1678              		@ frame_needed = 0, uses_anonymous_args = 0
 977:Middlewares/Third_Party/LwIP/src/apps/mqtt/mqtt.c ****   mqtt_client_t *client = (mqtt_client_t *)arg;
 1679              		.loc 1 977 1 is_stmt 0 view .LVU447
 1680 0000 38B5     		push	{r3, r4, r5, lr}
 1681              	.LCFI16:
 1682              		.cfi_def_cfa_offset 16
 1683              		.cfi_offset 3, -16
 1684              		.cfi_offset 4, -12
 1685              		.cfi_offset 5, -8
 1686              		.cfi_offset 14, -4
 978:Middlewares/Third_Party/LwIP/src/apps/mqtt/mqtt.c **** 
 1687              		.loc 1 978 3 is_stmt 1 view .LVU448
 1688              	.LVL182:
 980:Middlewares/Third_Party/LwIP/src/apps/mqtt/mqtt.c ****   LWIP_UNUSED_ARG(len);
 1689              		.loc 1 980 3 view .LVU449
 981:Middlewares/Third_Party/LwIP/src/apps/mqtt/mqtt.c **** 
 1690              		.loc 1 981 3 view .LVU450
 983:Middlewares/Third_Party/LwIP/src/apps/mqtt/mqtt.c ****     struct mqtt_request_t *r;
 1691              		.loc 1 983 3 view .LVU451
 983:Middlewares/Third_Party/LwIP/src/apps/mqtt/mqtt.c ****     struct mqtt_request_t *r;
 1692              		.loc 1 983 13 is_stmt 0 view .LVU452
 1693 0002 837A     		ldrb	r3, [r0, #10]	@ zero_extendqisi2
 983:Middlewares/Third_Party/LwIP/src/apps/mqtt/mqtt.c ****     struct mqtt_request_t *r;
 1694              		.loc 1 983 6 view .LVU453
 1695 0004 032B     		cmp	r3, #3
 1696 0006 01D0     		beq	.L143
 1697              	.LVL183:
 1698              	.L138:
ARM GAS  /tmp/ccVfyJBo.s 			page 55


1000:Middlewares/Third_Party/LwIP/src/apps/mqtt/mqtt.c **** }
 1699              		.loc 1 1000 3 is_stmt 1 view .LVU454
1001:Middlewares/Third_Party/LwIP/src/apps/mqtt/mqtt.c **** 
 1700              		.loc 1 1001 1 is_stmt 0 view .LVU455
 1701 0008 0020     		movs	r0, #0
 1702 000a 38BD     		pop	{r3, r4, r5, pc}
 1703              	.LVL184:
 1704              	.L143:
1001:Middlewares/Third_Party/LwIP/src/apps/mqtt/mqtt.c **** 
 1705              		.loc 1 1001 1 view .LVU456
 1706 000c 0546     		mov	r5, r0
 1707              	.LBB2:
 984:Middlewares/Third_Party/LwIP/src/apps/mqtt/mqtt.c **** 
 1708              		.loc 1 984 5 is_stmt 1 view .LVU457
 987:Middlewares/Third_Party/LwIP/src/apps/mqtt/mqtt.c ****     client->server_watchdog = 0;
 1709              		.loc 1 987 5 view .LVU458
 987:Middlewares/Third_Party/LwIP/src/apps/mqtt/mqtt.c ****     client->server_watchdog = 0;
 1710              		.loc 1 987 25 is_stmt 0 view .LVU459
 1711 000e 0023     		movs	r3, #0
 1712 0010 0380     		strh	r3, [r0]	@ movhi
 988:Middlewares/Third_Party/LwIP/src/apps/mqtt/mqtt.c ****     /* QoS 0 publish has no response from server, so call its callbacks here */
 1713              		.loc 1 988 5 is_stmt 1 view .LVU460
 988:Middlewares/Third_Party/LwIP/src/apps/mqtt/mqtt.c ****     /* QoS 0 publish has no response from server, so call its callbacks here */
 1714              		.loc 1 988 29 is_stmt 0 view .LVU461
 1715 0012 8380     		strh	r3, [r0, #4]	@ movhi
 990:Middlewares/Third_Party/LwIP/src/apps/mqtt/mqtt.c ****       LWIP_DEBUGF(MQTT_DEBUG_TRACE, ("mqtt_tcp_sent_cb: Calling QoS 0 publish complete callback\n")
 1716              		.loc 1 990 5 is_stmt 1 view .LVU462
 990:Middlewares/Third_Party/LwIP/src/apps/mqtt/mqtt.c ****       LWIP_DEBUGF(MQTT_DEBUG_TRACE, ("mqtt_tcp_sent_cb: Calling QoS 0 publish complete callback\n")
 1717              		.loc 1 990 11 is_stmt 0 view .LVU463
 1718 0014 02E0     		b	.L139
 1719              	.LVL185:
 1720              	.L140:
 995:Middlewares/Third_Party/LwIP/src/apps/mqtt/mqtt.c ****     }
 1721              		.loc 1 995 7 is_stmt 1 view .LVU464
 1722 0016 2046     		mov	r0, r4
 1723 0018 FFF7FEFF 		bl	mqtt_delete_request
 1724              	.LVL186:
 1725              	.L139:
 990:Middlewares/Third_Party/LwIP/src/apps/mqtt/mqtt.c ****       LWIP_DEBUGF(MQTT_DEBUG_TRACE, ("mqtt_tcp_sent_cb: Calling QoS 0 publish complete callback\n")
 1726              		.loc 1 990 11 view .LVU465
 990:Middlewares/Third_Party/LwIP/src/apps/mqtt/mqtt.c ****       LWIP_DEBUGF(MQTT_DEBUG_TRACE, ("mqtt_tcp_sent_cb: Calling QoS 0 publish complete callback\n")
 1727              		.loc 1 990 17 is_stmt 0 view .LVU466
 1728 001c 0021     		movs	r1, #0
 1729 001e 05F11800 		add	r0, r5, #24
 1730 0022 FFF7FEFF 		bl	mqtt_take_request
 1731              	.LVL187:
 990:Middlewares/Third_Party/LwIP/src/apps/mqtt/mqtt.c ****       LWIP_DEBUGF(MQTT_DEBUG_TRACE, ("mqtt_tcp_sent_cb: Calling QoS 0 publish complete callback\n")
 1732              		.loc 1 990 11 view .LVU467
 1733 0026 0446     		mov	r4, r0
 1734 0028 30B1     		cbz	r0, .L144
 991:Middlewares/Third_Party/LwIP/src/apps/mqtt/mqtt.c ****       if (r->cb != NULL) {
 1735              		.loc 1 991 101 is_stmt 1 view .LVU468
 992:Middlewares/Third_Party/LwIP/src/apps/mqtt/mqtt.c ****         r->cb(r->arg, ERR_OK);
 1736              		.loc 1 992 7 view .LVU469
 992:Middlewares/Third_Party/LwIP/src/apps/mqtt/mqtt.c ****         r->cb(r->arg, ERR_OK);
 1737              		.loc 1 992 12 is_stmt 0 view .LVU470
 1738 002a 6368     		ldr	r3, [r4, #4]
ARM GAS  /tmp/ccVfyJBo.s 			page 56


 992:Middlewares/Third_Party/LwIP/src/apps/mqtt/mqtt.c ****         r->cb(r->arg, ERR_OK);
 1739              		.loc 1 992 10 view .LVU471
 1740 002c 002B     		cmp	r3, #0
 1741 002e F2D0     		beq	.L140
 993:Middlewares/Third_Party/LwIP/src/apps/mqtt/mqtt.c ****       }
 1742              		.loc 1 993 9 is_stmt 1 view .LVU472
 1743 0030 0021     		movs	r1, #0
 1744 0032 A068     		ldr	r0, [r4, #8]
 1745              	.LVL188:
 993:Middlewares/Third_Party/LwIP/src/apps/mqtt/mqtt.c ****       }
 1746              		.loc 1 993 9 is_stmt 0 view .LVU473
 1747 0034 9847     		blx	r3
 1748              	.LVL189:
 1749 0036 EEE7     		b	.L140
 1750              	.LVL190:
 1751              	.L144:
 998:Middlewares/Third_Party/LwIP/src/apps/mqtt/mqtt.c ****   }
 1752              		.loc 1 998 5 is_stmt 1 view .LVU474
 1753 0038 E968     		ldr	r1, [r5, #12]
 1754 003a 05F1EC00 		add	r0, r5, #236
 1755              	.LVL191:
 998:Middlewares/Third_Party/LwIP/src/apps/mqtt/mqtt.c ****   }
 1756              		.loc 1 998 5 is_stmt 0 view .LVU475
 1757 003e FFF7FEFF 		bl	mqtt_output_send
 1758              	.LVL192:
 1759 0042 E1E7     		b	.L138
 1760              	.LBE2:
 1761              		.cfi_endproc
 1762              	.LFE193:
 1764              		.section	.text.pub_ack_rec_rel_response,"ax",%progbits
 1765              		.align	1
 1766              		.syntax unified
 1767              		.thumb
 1768              		.thumb_func
 1770              	pub_ack_rec_rel_response:
 1771              	.LVL193:
 1772              	.LFB188:
 636:Middlewares/Third_Party/LwIP/src/apps/mqtt/mqtt.c ****   err_t err = ERR_OK;
 1773              		.loc 1 636 1 is_stmt 1 view -0
 1774              		.cfi_startproc
 1775              		@ args = 0, pretend = 0, frame = 0
 1776              		@ frame_needed = 0, uses_anonymous_args = 0
 636:Middlewares/Third_Party/LwIP/src/apps/mqtt/mqtt.c ****   err_t err = ERR_OK;
 1777              		.loc 1 636 1 is_stmt 0 view .LVU477
 1778 0000 2DE9F043 		push	{r4, r5, r6, r7, r8, r9, lr}
 1779              	.LCFI17:
 1780              		.cfi_def_cfa_offset 28
 1781              		.cfi_offset 4, -28
 1782              		.cfi_offset 5, -24
 1783              		.cfi_offset 6, -20
 1784              		.cfi_offset 7, -16
 1785              		.cfi_offset 8, -12
 1786              		.cfi_offset 9, -8
 1787              		.cfi_offset 14, -4
 1788 0004 83B0     		sub	sp, sp, #12
 1789              	.LCFI18:
 1790              		.cfi_def_cfa_offset 40
ARM GAS  /tmp/ccVfyJBo.s 			page 57


 1791 0006 0546     		mov	r5, r0
 1792 0008 8846     		mov	r8, r1
 1793 000a 9146     		mov	r9, r2
 1794 000c 1F46     		mov	r7, r3
 637:Middlewares/Third_Party/LwIP/src/apps/mqtt/mqtt.c ****   if (mqtt_output_check_space(&client->output, 2)) {
 1795              		.loc 1 637 3 is_stmt 1 view .LVU478
 1796              	.LVL194:
 638:Middlewares/Third_Party/LwIP/src/apps/mqtt/mqtt.c ****     mqtt_output_append_fixed_header(&client->output, msg, 0, qos, 0, 2);
 1797              		.loc 1 638 3 view .LVU479
 638:Middlewares/Third_Party/LwIP/src/apps/mqtt/mqtt.c ****     mqtt_output_append_fixed_header(&client->output, msg, 0, qos, 0, 2);
 1798              		.loc 1 638 7 is_stmt 0 view .LVU480
 1799 000e 00F1EC06 		add	r6, r0, #236
 1800 0012 0221     		movs	r1, #2
 1801              	.LVL195:
 638:Middlewares/Third_Party/LwIP/src/apps/mqtt/mqtt.c ****     mqtt_output_append_fixed_header(&client->output, msg, 0, qos, 0, 2);
 1802              		.loc 1 638 7 view .LVU481
 1803 0014 3046     		mov	r0, r6
 1804              	.LVL196:
 638:Middlewares/Third_Party/LwIP/src/apps/mqtt/mqtt.c ****     mqtt_output_append_fixed_header(&client->output, msg, 0, qos, 0, 2);
 1805              		.loc 1 638 7 view .LVU482
 1806 0016 FFF7FEFF 		bl	mqtt_output_check_space
 1807              	.LVL197:
 638:Middlewares/Third_Party/LwIP/src/apps/mqtt/mqtt.c ****     mqtt_output_append_fixed_header(&client->output, msg, 0, qos, 0, 2);
 1808              		.loc 1 638 6 view .LVU483
 1809 001a A8B1     		cbz	r0, .L147
 639:Middlewares/Third_Party/LwIP/src/apps/mqtt/mqtt.c ****     mqtt_output_append_u16(&client->output, pkt_id);
 1810              		.loc 1 639 5 is_stmt 1 view .LVU484
 1811 001c 0223     		movs	r3, #2
 1812 001e 0193     		str	r3, [sp, #4]
 1813 0020 0024     		movs	r4, #0
 1814 0022 0094     		str	r4, [sp]
 1815 0024 3B46     		mov	r3, r7
 1816 0026 2246     		mov	r2, r4
 1817 0028 4146     		mov	r1, r8
 1818 002a 3046     		mov	r0, r6
 1819 002c FFF7FEFF 		bl	mqtt_output_append_fixed_header
 1820              	.LVL198:
 640:Middlewares/Third_Party/LwIP/src/apps/mqtt/mqtt.c ****     mqtt_output_send(&client->output, client->conn);
 1821              		.loc 1 640 5 view .LVU485
 1822 0030 4946     		mov	r1, r9
 1823 0032 3046     		mov	r0, r6
 1824 0034 FFF7FEFF 		bl	mqtt_output_append_u16
 1825              	.LVL199:
 641:Middlewares/Third_Party/LwIP/src/apps/mqtt/mqtt.c ****   } else {
 1826              		.loc 1 641 5 view .LVU486
 1827 0038 E968     		ldr	r1, [r5, #12]
 1828 003a 3046     		mov	r0, r6
 1829 003c FFF7FEFF 		bl	mqtt_output_send
 1830              	.LVL200:
 637:Middlewares/Third_Party/LwIP/src/apps/mqtt/mqtt.c ****   if (mqtt_output_check_space(&client->output, 2)) {
 1831              		.loc 1 637 9 is_stmt 0 view .LVU487
 1832 0040 2046     		mov	r0, r4
 1833              	.L146:
 1834              	.LVL201:
 647:Middlewares/Third_Party/LwIP/src/apps/mqtt/mqtt.c **** }
 1835              		.loc 1 647 3 is_stmt 1 view .LVU488
 648:Middlewares/Third_Party/LwIP/src/apps/mqtt/mqtt.c **** 
ARM GAS  /tmp/ccVfyJBo.s 			page 58


 1836              		.loc 1 648 1 is_stmt 0 view .LVU489
 1837 0042 03B0     		add	sp, sp, #12
 1838              	.LCFI19:
 1839              		.cfi_remember_state
 1840              		.cfi_def_cfa_offset 28
 1841              		@ sp needed
 1842 0044 BDE8F083 		pop	{r4, r5, r6, r7, r8, r9, pc}
 1843              	.LVL202:
 1844              	.L147:
 1845              	.LCFI20:
 1846              		.cfi_restore_state
 645:Middlewares/Third_Party/LwIP/src/apps/mqtt/mqtt.c ****   }
 1847              		.loc 1 645 9 view .LVU490
 1848 0048 4FF0FF30 		mov	r0, #-1
 1849 004c F9E7     		b	.L146
 1850              		.cfi_endproc
 1851              	.LFE188:
 1853              		.section	.rodata.mqtt_message_received.str1.4,"aMS",%progbits,1
 1854              		.align	2
 1855              	.LC12:
 1856 0000 636C6965 		.ascii	"client->msg_idx < MQTT_VAR_HEADER_BUFFER_LEN\000"
 1856      6E742D3E 
 1856      6D73675F 
 1856      69647820 
 1856      3C204D51 
 1857 002d 000000   		.align	2
 1858              	.LC13:
 1859 0030 66697865 		.ascii	"fixed_hdr_idx <= client->msg_idx\000"
 1859      645F6864 
 1859      725F6964 
 1859      78203C3D 
 1859      20636C69 
 1860 0051 000000   		.align	2
 1861              	.LC14:
 1862 0054 62756666 		.ascii	"buffer length mismatch\000"
 1862      6572206C 
 1862      656E6774 
 1862      68206D69 
 1862      736D6174 
 1863              		.section	.text.mqtt_message_received,"ax",%progbits
 1864              		.align	1
 1865              		.syntax unified
 1866              		.thumb
 1867              		.thumb_func
 1869              	mqtt_message_received:
 1870              	.LVL203:
 1871              	.LFB190:
 673:Middlewares/Third_Party/LwIP/src/apps/mqtt/mqtt.c ****   mqtt_connection_status_t res = MQTT_CONNECT_ACCEPTED;
 1872              		.loc 1 673 1 is_stmt 1 view -0
 1873              		.cfi_startproc
 1874              		@ args = 0, pretend = 0, frame = 8
 1875              		@ frame_needed = 0, uses_anonymous_args = 0
 673:Middlewares/Third_Party/LwIP/src/apps/mqtt/mqtt.c ****   mqtt_connection_status_t res = MQTT_CONNECT_ACCEPTED;
 1876              		.loc 1 673 1 is_stmt 0 view .LVU492
 1877 0000 2DE9F04F 		push	{r4, r5, r6, r7, r8, r9, r10, fp, lr}
 1878              	.LCFI21:
 1879              		.cfi_def_cfa_offset 36
ARM GAS  /tmp/ccVfyJBo.s 			page 59


 1880              		.cfi_offset 4, -36
 1881              		.cfi_offset 5, -32
 1882              		.cfi_offset 6, -28
 1883              		.cfi_offset 7, -24
 1884              		.cfi_offset 8, -20
 1885              		.cfi_offset 9, -16
 1886              		.cfi_offset 10, -12
 1887              		.cfi_offset 11, -8
 1888              		.cfi_offset 14, -4
 1889 0004 83B0     		sub	sp, sp, #12
 1890              	.LCFI22:
 1891              		.cfi_def_cfa_offset 48
 1892 0006 0446     		mov	r4, r0
 1893 0008 8946     		mov	r9, r1
 1894 000a 1546     		mov	r5, r2
 1895 000c 1E46     		mov	r6, r3
 674:Middlewares/Third_Party/LwIP/src/apps/mqtt/mqtt.c **** 
 1896              		.loc 1 674 3 is_stmt 1 view .LVU493
 1897              	.LVL204:
 676:Middlewares/Third_Party/LwIP/src/apps/mqtt/mqtt.c ****   size_t var_hdr_payload_bufsize = sizeof(client->rx_buffer) - fixed_hdr_idx;
 1898              		.loc 1 676 3 view .LVU494
 676:Middlewares/Third_Party/LwIP/src/apps/mqtt/mqtt.c ****   size_t var_hdr_payload_bufsize = sizeof(client->rx_buffer) - fixed_hdr_idx;
 1899              		.loc 1 676 27 is_stmt 0 view .LVU495
 1900 000e 00F16C0B 		add	fp, r0, #108
 676:Middlewares/Third_Party/LwIP/src/apps/mqtt/mqtt.c ****   size_t var_hdr_payload_bufsize = sizeof(client->rx_buffer) - fixed_hdr_idx;
 1901              		.loc 1 676 9 view .LVU496
 1902 0012 0BEB0107 		add	r7, fp, r1
 1903              	.LVL205:
 677:Middlewares/Third_Party/LwIP/src/apps/mqtt/mqtt.c **** 
 1904              		.loc 1 677 3 is_stmt 1 view .LVU497
 677:Middlewares/Third_Party/LwIP/src/apps/mqtt/mqtt.c **** 
 1905              		.loc 1 677 10 is_stmt 0 view .LVU498
 1906 0016 C1F1800A 		rsb	r10, r1, #128
 1907              	.LVL206:
 680:Middlewares/Third_Party/LwIP/src/apps/mqtt/mqtt.c ****   u16_t pkt_id = 0;
 1908              		.loc 1 680 3 is_stmt 1 view .LVU499
 680:Middlewares/Third_Party/LwIP/src/apps/mqtt/mqtt.c ****   u16_t pkt_id = 0;
 1909              		.loc 1 680 19 is_stmt 0 view .LVU500
 1910 001a 90F86C80 		ldrb	r8, [r0, #108]	@ zero_extendqisi2
 680:Middlewares/Third_Party/LwIP/src/apps/mqtt/mqtt.c ****   u16_t pkt_id = 0;
 1911              		.loc 1 680 8 view .LVU501
 1912 001e 4FEA1818 		lsr	r8, r8, #4
 1913              	.LVL207:
 681:Middlewares/Third_Party/LwIP/src/apps/mqtt/mqtt.c **** 
 1914              		.loc 1 681 3 is_stmt 1 view .LVU502
 683:Middlewares/Third_Party/LwIP/src/apps/mqtt/mqtt.c ****   LWIP_ASSERT("fixed_hdr_idx <= client->msg_idx", fixed_hdr_idx <= client->msg_idx);
 1915              		.loc 1 683 3 view .LVU503
 683:Middlewares/Third_Party/LwIP/src/apps/mqtt/mqtt.c ****   LWIP_ASSERT("fixed_hdr_idx <= client->msg_idx", fixed_hdr_idx <= client->msg_idx);
 1916              		.loc 1 683 3 view .LVU504
 1917 0022 836E     		ldr	r3, [r0, #104]
 1918              	.LVL208:
 683:Middlewares/Third_Party/LwIP/src/apps/mqtt/mqtt.c ****   LWIP_ASSERT("fixed_hdr_idx <= client->msg_idx", fixed_hdr_idx <= client->msg_idx);
 1919              		.loc 1 683 3 is_stmt 0 view .LVU505
 1920 0024 7F2B     		cmp	r3, #127
 1921 0026 46D8     		bhi	.L189
 1922              	.LVL209:
 1923              	.L150:
ARM GAS  /tmp/ccVfyJBo.s 			page 60


 683:Middlewares/Third_Party/LwIP/src/apps/mqtt/mqtt.c ****   LWIP_ASSERT("fixed_hdr_idx <= client->msg_idx", fixed_hdr_idx <= client->msg_idx);
 1924              		.loc 1 683 3 is_stmt 1 discriminator 3 view .LVU506
 683:Middlewares/Third_Party/LwIP/src/apps/mqtt/mqtt.c ****   LWIP_ASSERT("fixed_hdr_idx <= client->msg_idx", fixed_hdr_idx <= client->msg_idx);
 1925              		.loc 1 683 3 discriminator 3 view .LVU507
 684:Middlewares/Third_Party/LwIP/src/apps/mqtt/mqtt.c ****   LWIP_ERROR("buffer length mismatch", fixed_hdr_idx + length <= MQTT_VAR_HEADER_BUFFER_LEN,
 1926              		.loc 1 684 3 discriminator 3 view .LVU508
 684:Middlewares/Third_Party/LwIP/src/apps/mqtt/mqtt.c ****   LWIP_ERROR("buffer length mismatch", fixed_hdr_idx + length <= MQTT_VAR_HEADER_BUFFER_LEN,
 1927              		.loc 1 684 3 discriminator 3 view .LVU509
 1928 0028 A36E     		ldr	r3, [r4, #104]
 1929 002a 9945     		cmp	r9, r3
 1930 002c 4BD8     		bhi	.L190
 1931              	.L151:
 684:Middlewares/Third_Party/LwIP/src/apps/mqtt/mqtt.c ****   LWIP_ERROR("buffer length mismatch", fixed_hdr_idx + length <= MQTT_VAR_HEADER_BUFFER_LEN,
 1932              		.loc 1 684 3 discriminator 3 view .LVU510
 684:Middlewares/Third_Party/LwIP/src/apps/mqtt/mqtt.c ****   LWIP_ERROR("buffer length mismatch", fixed_hdr_idx + length <= MQTT_VAR_HEADER_BUFFER_LEN,
 1933              		.loc 1 684 3 discriminator 3 view .LVU511
 685:Middlewares/Third_Party/LwIP/src/apps/mqtt/mqtt.c ****              return MQTT_CONNECT_DISCONNECTED);
 1934              		.loc 1 685 3 discriminator 3 view .LVU512
 685:Middlewares/Third_Party/LwIP/src/apps/mqtt/mqtt.c ****              return MQTT_CONNECT_DISCONNECTED);
 1935              		.loc 1 685 3 discriminator 3 view .LVU513
 1936 002e 09EB0503 		add	r3, r9, r5
 1937 0032 802B     		cmp	r3, #128
 1938 0034 4FDC     		bgt	.L191
 685:Middlewares/Third_Party/LwIP/src/apps/mqtt/mqtt.c ****              return MQTT_CONNECT_DISCONNECTED);
 1939              		.loc 1 685 3 discriminator 2 view .LVU514
 688:Middlewares/Third_Party/LwIP/src/apps/mqtt/mqtt.c ****     if (client->conn_state == MQTT_CONNECTING) {
 1940              		.loc 1 688 3 discriminator 2 view .LVU515
 688:Middlewares/Third_Party/LwIP/src/apps/mqtt/mqtt.c ****     if (client->conn_state == MQTT_CONNECTING) {
 1941              		.loc 1 688 6 is_stmt 0 discriminator 2 view .LVU516
 1942 0036 B8F1020F 		cmp	r8, #2
 1943 003a 56D0     		beq	.L192
 709:Middlewares/Third_Party/LwIP/src/apps/mqtt/mqtt.c ****     LWIP_DEBUGF(MQTT_DEBUG_TRACE, ( "mqtt_message_received: Received PINGRESP from server\n"));
 1944              		.loc 1 709 10 is_stmt 1 view .LVU517
 709:Middlewares/Third_Party/LwIP/src/apps/mqtt/mqtt.c ****     LWIP_DEBUGF(MQTT_DEBUG_TRACE, ( "mqtt_message_received: Received PINGRESP from server\n"));
 1945              		.loc 1 709 13 is_stmt 0 view .LVU518
 1946 003c B8F10D0F 		cmp	r8, #13
 1947 0040 00F01081 		beq	.L171
 712:Middlewares/Third_Party/LwIP/src/apps/mqtt/mqtt.c ****     u16_t payload_offset = 0;
 1948              		.loc 1 712 10 is_stmt 1 view .LVU519
 712:Middlewares/Third_Party/LwIP/src/apps/mqtt/mqtt.c ****     u16_t payload_offset = 0;
 1949              		.loc 1 712 13 is_stmt 0 view .LVU520
 1950 0044 B8F1030F 		cmp	r8, #3
 1951 0048 69D0     		beq	.L193
 788:Middlewares/Third_Party/LwIP/src/apps/mqtt/mqtt.c ****     pkt_id |= (u16_t)var_hdr_payload[1];
 1952              		.loc 1 788 5 is_stmt 1 view .LVU521
 788:Middlewares/Third_Party/LwIP/src/apps/mqtt/mqtt.c ****     pkt_id |= (u16_t)var_hdr_payload[1];
 1953              		.loc 1 788 36 is_stmt 0 view .LVU522
 1954 004a 1BF80910 		ldrb	r1, [fp, r9]	@ zero_extendqisi2
 1955              	.LVL210:
 789:Middlewares/Third_Party/LwIP/src/apps/mqtt/mqtt.c ****     if (pkt_id == 0) {
 1956              		.loc 1 789 5 is_stmt 1 view .LVU523
 789:Middlewares/Third_Party/LwIP/src/apps/mqtt/mqtt.c ****     if (pkt_id == 0) {
 1957              		.loc 1 789 37 is_stmt 0 view .LVU524
 1958 004e 7A78     		ldrb	r2, [r7, #1]	@ zero_extendqisi2
 1959              	.LVL211:
 790:Middlewares/Third_Party/LwIP/src/apps/mqtt/mqtt.c ****       LWIP_DEBUGF(MQTT_DEBUG_WARN, ("mqtt_message_received: Got message with illegal packet identif
 1960              		.loc 1 790 5 is_stmt 1 view .LVU525
ARM GAS  /tmp/ccVfyJBo.s 			page 61


 790:Middlewares/Third_Party/LwIP/src/apps/mqtt/mqtt.c ****       LWIP_DEBUGF(MQTT_DEBUG_WARN, ("mqtt_message_received: Got message with illegal packet identif
 1961              		.loc 1 790 8 is_stmt 0 view .LVU526
 1962 0050 52EA0121 		orrs	r1, r2, r1, lsl #8
 1963              	.LVL212:
 790:Middlewares/Third_Party/LwIP/src/apps/mqtt/mqtt.c ****       LWIP_DEBUGF(MQTT_DEBUG_WARN, ("mqtt_message_received: Got message with illegal packet identif
 1964              		.loc 1 790 8 view .LVU527
 1965 0054 00F01E81 		beq	.L184
 794:Middlewares/Third_Party/LwIP/src/apps/mqtt/mqtt.c ****       LWIP_DEBUGF(MQTT_DEBUG_TRACE, ("mqtt_message_received: PUBREC, sending PUBREL with pkt_id: %d
 1966              		.loc 1 794 5 is_stmt 1 view .LVU528
 794:Middlewares/Third_Party/LwIP/src/apps/mqtt/mqtt.c ****       LWIP_DEBUGF(MQTT_DEBUG_TRACE, ("mqtt_message_received: PUBREC, sending PUBREL with pkt_id: %d
 1967              		.loc 1 794 8 is_stmt 0 view .LVU529
 1968 0058 B8F1050F 		cmp	r8, #5
 1969 005c 00F0E980 		beq	.L194
 798:Middlewares/Third_Party/LwIP/src/apps/mqtt/mqtt.c ****       LWIP_DEBUGF(MQTT_DEBUG_TRACE, ("mqtt_message_received: PUBREL, sending PUBCOMP response with 
 1970              		.loc 1 798 12 is_stmt 1 view .LVU530
 798:Middlewares/Third_Party/LwIP/src/apps/mqtt/mqtt.c ****       LWIP_DEBUGF(MQTT_DEBUG_TRACE, ("mqtt_message_received: PUBREL, sending PUBCOMP response with 
 1971              		.loc 1 798 15 is_stmt 0 view .LVU531
 1972 0060 B8F1060F 		cmp	r8, #6
 1973 0064 00F0ED80 		beq	.L195
 802:Middlewares/Third_Party/LwIP/src/apps/mqtt/mqtt.c ****                pkt_type == MQTT_MSG_TYPE_PUBCOMP || pkt_type == MQTT_MSG_TYPE_PUBACK) {
 1974              		.loc 1 802 12 is_stmt 1 view .LVU532
 802:Middlewares/Third_Party/LwIP/src/apps/mqtt/mqtt.c ****                pkt_type == MQTT_MSG_TYPE_PUBCOMP || pkt_type == MQTT_MSG_TYPE_PUBACK) {
 1975              		.loc 1 802 15 is_stmt 0 view .LVU533
 1976 0068 B8F10B0F 		cmp	r8, #11
 1977 006c 18BF     		it	ne
 1978 006e B8F1090F 		cmpne	r8, #9
 1979 0072 0AD0     		beq	.L165
 803:Middlewares/Third_Party/LwIP/src/apps/mqtt/mqtt.c ****       struct mqtt_request_t *r = mqtt_take_request(&client->pend_req_queue, pkt_id);
 1980              		.loc 1 803 62 view .LVU534
 1981 0074 B8F1040F 		cmp	r8, #4
 1982 0078 14BF     		ite	ne
 1983 007a 0023     		movne	r3, #0
 1984 007c 0123     		moveq	r3, #1
 803:Middlewares/Third_Party/LwIP/src/apps/mqtt/mqtt.c ****       struct mqtt_request_t *r = mqtt_take_request(&client->pend_req_queue, pkt_id);
 1985              		.loc 1 803 50 view .LVU535
 1986 007e B8F1070F 		cmp	r8, #7
 1987 0082 02D0     		beq	.L165
 1988 0084 002B     		cmp	r3, #0
 1989 0086 00F00881 		beq	.L185
 1990              	.L165:
 1991              	.LBB3:
 804:Middlewares/Third_Party/LwIP/src/apps/mqtt/mqtt.c ****       if (r != NULL) {
 1992              		.loc 1 804 7 is_stmt 1 view .LVU536
 804:Middlewares/Third_Party/LwIP/src/apps/mqtt/mqtt.c ****       if (r != NULL) {
 1993              		.loc 1 804 34 is_stmt 0 view .LVU537
 1994 008a 04F11800 		add	r0, r4, #24
 1995 008e FFF7FEFF 		bl	mqtt_take_request
 1996              	.LVL213:
 805:Middlewares/Third_Party/LwIP/src/apps/mqtt/mqtt.c ****         LWIP_DEBUGF(MQTT_DEBUG_TRACE, ("mqtt_message_received: %s response with id %d\n", mqtt_msg_
 1997              		.loc 1 805 7 is_stmt 1 view .LVU538
 805:Middlewares/Third_Party/LwIP/src/apps/mqtt/mqtt.c ****         LWIP_DEBUGF(MQTT_DEBUG_TRACE, ("mqtt_message_received: %s response with id %d\n", mqtt_msg_
 1998              		.loc 1 805 10 is_stmt 0 view .LVU539
 1999 0092 0446     		mov	r4, r0
 2000              	.LVL214:
 805:Middlewares/Third_Party/LwIP/src/apps/mqtt/mqtt.c ****         LWIP_DEBUGF(MQTT_DEBUG_TRACE, ("mqtt_message_received: %s response with id %d\n", mqtt_msg_
 2001              		.loc 1 805 10 view .LVU540
 2002 0094 0028     		cmp	r0, #0
ARM GAS  /tmp/ccVfyJBo.s 			page 62


 2003 0096 00F00381 		beq	.L186
 806:Middlewares/Third_Party/LwIP/src/apps/mqtt/mqtt.c ****         if (pkt_type == MQTT_MSG_TYPE_SUBACK) {
 2004              		.loc 1 806 131 is_stmt 1 view .LVU541
 807:Middlewares/Third_Party/LwIP/src/apps/mqtt/mqtt.c ****           if (length < 3) {
 2005              		.loc 1 807 9 view .LVU542
 807:Middlewares/Third_Party/LwIP/src/apps/mqtt/mqtt.c ****           if (length < 3) {
 2006              		.loc 1 807 12 is_stmt 0 view .LVU543
 2007 009a B8F1090F 		cmp	r8, #9
 2008 009e 00F0D880 		beq	.L196
 814:Middlewares/Third_Party/LwIP/src/apps/mqtt/mqtt.c ****           r->cb(r->arg, ERR_OK);
 2009              		.loc 1 814 16 is_stmt 1 view .LVU544
 814:Middlewares/Third_Party/LwIP/src/apps/mqtt/mqtt.c ****           r->cb(r->arg, ERR_OK);
 2010              		.loc 1 814 21 is_stmt 0 view .LVU545
 2011 00a2 4368     		ldr	r3, [r0, #4]
 814:Middlewares/Third_Party/LwIP/src/apps/mqtt/mqtt.c ****           r->cb(r->arg, ERR_OK);
 2012              		.loc 1 814 19 view .LVU546
 2013 00a4 13B1     		cbz	r3, .L168
 815:Middlewares/Third_Party/LwIP/src/apps/mqtt/mqtt.c ****         }
 2014              		.loc 1 815 11 is_stmt 1 view .LVU547
 2015 00a6 0021     		movs	r1, #0
 2016 00a8 8068     		ldr	r0, [r0, #8]
 2017              	.LVL215:
 815:Middlewares/Third_Party/LwIP/src/apps/mqtt/mqtt.c ****         }
 2018              		.loc 1 815 11 is_stmt 0 view .LVU548
 2019 00aa 9847     		blx	r3
 2020              	.LVL216:
 2021              	.L168:
 817:Middlewares/Third_Party/LwIP/src/apps/mqtt/mqtt.c ****       } else {
 2022              		.loc 1 817 9 is_stmt 1 view .LVU549
 2023 00ac 2046     		mov	r0, r4
 2024 00ae FFF7FEFF 		bl	mqtt_delete_request
 2025              	.LVL217:
 2026              	.LBE3:
 674:Middlewares/Third_Party/LwIP/src/apps/mqtt/mqtt.c **** 
 2027              		.loc 1 674 28 is_stmt 0 view .LVU550
 2028 00b2 0025     		movs	r5, #0
 2029              	.LBB4:
 2030 00b4 1DE0     		b	.L153
 2031              	.LVL218:
 2032              	.L189:
 674:Middlewares/Third_Party/LwIP/src/apps/mqtt/mqtt.c **** 
 2033              		.loc 1 674 28 view .LVU551
 2034              	.LBE4:
 683:Middlewares/Third_Party/LwIP/src/apps/mqtt/mqtt.c ****   LWIP_ASSERT("fixed_hdr_idx <= client->msg_idx", fixed_hdr_idx <= client->msg_idx);
 2035              		.loc 1 683 3 is_stmt 1 discriminator 1 view .LVU552
 683:Middlewares/Third_Party/LwIP/src/apps/mqtt/mqtt.c ****   LWIP_ASSERT("fixed_hdr_idx <= client->msg_idx", fixed_hdr_idx <= client->msg_idx);
 2036              		.loc 1 683 3 discriminator 1 view .LVU553
 2037 00b6 7D4B     		ldr	r3, .L199
 2038 00b8 40F2AB22 		movw	r2, #683
 2039              	.LVL219:
 683:Middlewares/Third_Party/LwIP/src/apps/mqtt/mqtt.c ****   LWIP_ASSERT("fixed_hdr_idx <= client->msg_idx", fixed_hdr_idx <= client->msg_idx);
 2040              		.loc 1 683 3 is_stmt 0 discriminator 1 view .LVU554
 2041 00bc 7C49     		ldr	r1, .L199+4
 2042              	.LVL220:
 683:Middlewares/Third_Party/LwIP/src/apps/mqtt/mqtt.c ****   LWIP_ASSERT("fixed_hdr_idx <= client->msg_idx", fixed_hdr_idx <= client->msg_idx);
 2043              		.loc 1 683 3 discriminator 1 view .LVU555
 2044 00be 7D48     		ldr	r0, .L199+8
ARM GAS  /tmp/ccVfyJBo.s 			page 63


 2045              	.LVL221:
 683:Middlewares/Third_Party/LwIP/src/apps/mqtt/mqtt.c ****   LWIP_ASSERT("fixed_hdr_idx <= client->msg_idx", fixed_hdr_idx <= client->msg_idx);
 2046              		.loc 1 683 3 discriminator 1 view .LVU556
 2047 00c0 FFF7FEFF 		bl	printf
 2048              	.LVL222:
 2049 00c4 B0E7     		b	.L150
 2050              	.L190:
 684:Middlewares/Third_Party/LwIP/src/apps/mqtt/mqtt.c ****   LWIP_ERROR("buffer length mismatch", fixed_hdr_idx + length <= MQTT_VAR_HEADER_BUFFER_LEN,
 2051              		.loc 1 684 3 is_stmt 1 discriminator 1 view .LVU557
 684:Middlewares/Third_Party/LwIP/src/apps/mqtt/mqtt.c ****   LWIP_ERROR("buffer length mismatch", fixed_hdr_idx + length <= MQTT_VAR_HEADER_BUFFER_LEN,
 2052              		.loc 1 684 3 discriminator 1 view .LVU558
 2053 00c6 794B     		ldr	r3, .L199
 2054 00c8 4FF42B72 		mov	r2, #684
 2055 00cc 7A49     		ldr	r1, .L199+12
 2056 00ce 7948     		ldr	r0, .L199+8
 2057 00d0 FFF7FEFF 		bl	printf
 2058              	.LVL223:
 2059 00d4 ABE7     		b	.L151
 2060              	.L191:
 685:Middlewares/Third_Party/LwIP/src/apps/mqtt/mqtt.c ****              return MQTT_CONNECT_DISCONNECTED);
 2061              		.loc 1 685 3 discriminator 1 view .LVU559
 685:Middlewares/Third_Party/LwIP/src/apps/mqtt/mqtt.c ****              return MQTT_CONNECT_DISCONNECTED);
 2062              		.loc 1 685 3 discriminator 1 view .LVU560
 2063 00d6 754B     		ldr	r3, .L199
 2064 00d8 40F2AD22 		movw	r2, #685
 2065 00dc 7749     		ldr	r1, .L199+16
 2066 00de 7548     		ldr	r0, .L199+8
 2067 00e0 FFF7FEFF 		bl	printf
 2068              	.LVL224:
 685:Middlewares/Third_Party/LwIP/src/apps/mqtt/mqtt.c ****              return MQTT_CONNECT_DISCONNECTED);
 2069              		.loc 1 685 3 discriminator 1 view .LVU561
 685:Middlewares/Third_Party/LwIP/src/apps/mqtt/mqtt.c ****              return MQTT_CONNECT_DISCONNECTED);
 2070              		.loc 1 685 3 discriminator 1 view .LVU562
 2071 00e4 4FF48075 		mov	r5, #256
 2072 00e8 03E0     		b	.L153
 2073              	.L192:
 689:Middlewares/Third_Party/LwIP/src/apps/mqtt/mqtt.c ****       if (length < 2) {
 2074              		.loc 1 689 5 view .LVU563
 689:Middlewares/Third_Party/LwIP/src/apps/mqtt/mqtt.c ****       if (length < 2) {
 2075              		.loc 1 689 15 is_stmt 0 view .LVU564
 2076 00ea A37A     		ldrb	r3, [r4, #10]	@ zero_extendqisi2
 689:Middlewares/Third_Party/LwIP/src/apps/mqtt/mqtt.c ****       if (length < 2) {
 2077              		.loc 1 689 8 view .LVU565
 2078 00ec 022B     		cmp	r3, #2
 2079 00ee 04D0     		beq	.L197
 674:Middlewares/Third_Party/LwIP/src/apps/mqtt/mqtt.c **** 
 2080              		.loc 1 674 28 view .LVU566
 2081 00f0 0025     		movs	r5, #0
 2082              	.LVL225:
 2083              	.L153:
 829:Middlewares/Third_Party/LwIP/src/apps/mqtt/mqtt.c **** 
 2084              		.loc 1 829 1 view .LVU567
 2085 00f2 2846     		mov	r0, r5
 2086 00f4 03B0     		add	sp, sp, #12
 2087              	.LCFI23:
 2088              		.cfi_remember_state
 2089              		.cfi_def_cfa_offset 36
ARM GAS  /tmp/ccVfyJBo.s 			page 64


 2090              		@ sp needed
 2091 00f6 BDE8F08F 		pop	{r4, r5, r6, r7, r8, r9, r10, fp, pc}
 2092              	.LVL226:
 2093              	.L197:
 2094              	.LCFI24:
 2095              		.cfi_restore_state
 690:Middlewares/Third_Party/LwIP/src/apps/mqtt/mqtt.c ****         LWIP_DEBUGF(MQTT_DEBUG_WARN,( "mqtt_message_received: Received short CONNACK message\n"));
 2096              		.loc 1 690 7 is_stmt 1 view .LVU568
 690:Middlewares/Third_Party/LwIP/src/apps/mqtt/mqtt.c ****         LWIP_DEBUGF(MQTT_DEBUG_WARN,( "mqtt_message_received: Received short CONNACK message\n"));
 2097              		.loc 1 690 10 is_stmt 0 view .LVU569
 2098 00fa 012D     		cmp	r5, #1
 2099 00fc 40F2AF80 		bls	.L170
 695:Middlewares/Third_Party/LwIP/src/apps/mqtt/mqtt.c ****       LWIP_DEBUGF(MQTT_DEBUG_TRACE, ("mqtt_message_received: Connect response code %d\n", res));
 2100              		.loc 1 695 7 is_stmt 1 view .LVU570
 695:Middlewares/Third_Party/LwIP/src/apps/mqtt/mqtt.c ****       LWIP_DEBUGF(MQTT_DEBUG_TRACE, ("mqtt_message_received: Connect response code %d\n", res));
 2101              		.loc 1 695 11 is_stmt 0 view .LVU571
 2102 0100 7D78     		ldrb	r5, [r7, #1]	@ zero_extendqisi2
 2103              	.LVL227:
 696:Middlewares/Third_Party/LwIP/src/apps/mqtt/mqtt.c ****       if (res == MQTT_CONNECT_ACCEPTED) {
 2104              		.loc 1 696 96 is_stmt 1 view .LVU572
 697:Middlewares/Third_Party/LwIP/src/apps/mqtt/mqtt.c ****         /* Reset cyclic_tick when changing to connected state */
 2105              		.loc 1 697 7 view .LVU573
 697:Middlewares/Third_Party/LwIP/src/apps/mqtt/mqtt.c ****         /* Reset cyclic_tick when changing to connected state */
 2106              		.loc 1 697 10 is_stmt 0 view .LVU574
 2107 0102 002D     		cmp	r5, #0
 2108 0104 F5D1     		bne	.L153
 699:Middlewares/Third_Party/LwIP/src/apps/mqtt/mqtt.c ****         client->conn_state = MQTT_CONNECTED;
 2109              		.loc 1 699 9 is_stmt 1 view .LVU575
 699:Middlewares/Third_Party/LwIP/src/apps/mqtt/mqtt.c ****         client->conn_state = MQTT_CONNECTED;
 2110              		.loc 1 699 29 is_stmt 0 view .LVU576
 2111 0106 0023     		movs	r3, #0
 2112 0108 2380     		strh	r3, [r4]	@ movhi
 700:Middlewares/Third_Party/LwIP/src/apps/mqtt/mqtt.c ****         /* Notify upper layer */
 2113              		.loc 1 700 9 is_stmt 1 view .LVU577
 700:Middlewares/Third_Party/LwIP/src/apps/mqtt/mqtt.c ****         /* Notify upper layer */
 2114              		.loc 1 700 28 is_stmt 0 view .LVU578
 2115 010a 0323     		movs	r3, #3
 2116 010c A372     		strb	r3, [r4, #10]
 702:Middlewares/Third_Party/LwIP/src/apps/mqtt/mqtt.c ****           client->connect_cb(client, client->connect_arg, res);
 2117              		.loc 1 702 9 is_stmt 1 view .LVU579
 702:Middlewares/Third_Party/LwIP/src/apps/mqtt/mqtt.c ****           client->connect_cb(client, client->connect_arg, res);
 2118              		.loc 1 702 19 is_stmt 0 view .LVU580
 2119 010e 6369     		ldr	r3, [r4, #20]
 702:Middlewares/Third_Party/LwIP/src/apps/mqtt/mqtt.c ****           client->connect_cb(client, client->connect_arg, res);
 2120              		.loc 1 702 12 view .LVU581
 2121 0110 002B     		cmp	r3, #0
 2122 0112 EED0     		beq	.L153
 703:Middlewares/Third_Party/LwIP/src/apps/mqtt/mqtt.c ****         }
 2123              		.loc 1 703 11 is_stmt 1 view .LVU582
 2124 0114 2A46     		mov	r2, r5
 2125 0116 2169     		ldr	r1, [r4, #16]
 2126 0118 2046     		mov	r0, r4
 2127 011a 9847     		blx	r3
 2128              	.LVL228:
 2129 011c E9E7     		b	.L153
 2130              	.LVL229:
 2131              	.L193:
ARM GAS  /tmp/ccVfyJBo.s 			page 65


 2132              	.LBB5:
 713:Middlewares/Third_Party/LwIP/src/apps/mqtt/mqtt.c ****     u16_t payload_length = length;
 2133              		.loc 1 713 5 view .LVU583
 714:Middlewares/Third_Party/LwIP/src/apps/mqtt/mqtt.c ****     u8_t qos = MQTT_CTL_PACKET_QOS(client->rx_buffer[0]);
 2134              		.loc 1 714 5 view .LVU584
 715:Middlewares/Third_Party/LwIP/src/apps/mqtt/mqtt.c **** 
 2135              		.loc 1 715 5 view .LVU585
 715:Middlewares/Third_Party/LwIP/src/apps/mqtt/mqtt.c **** 
 2136              		.loc 1 715 16 is_stmt 0 view .LVU586
 2137 011e 94F86C80 		ldrb	r8, [r4, #108]	@ zero_extendqisi2
 2138              	.LVL230:
 715:Middlewares/Third_Party/LwIP/src/apps/mqtt/mqtt.c **** 
 2139              		.loc 1 715 10 view .LVU587
 2140 0122 C8F34108 		ubfx	r8, r8, #1, #2
 2141              	.LVL231:
 717:Middlewares/Third_Party/LwIP/src/apps/mqtt/mqtt.c ****       /* Should have topic and pkt id*/
 2142              		.loc 1 717 5 is_stmt 1 view .LVU588
 717:Middlewares/Third_Party/LwIP/src/apps/mqtt/mqtt.c ****       /* Should have topic and pkt id*/
 2143              		.loc 1 717 15 is_stmt 0 view .LVU589
 2144 0126 A36E     		ldr	r3, [r4, #104]
 717:Middlewares/Third_Party/LwIP/src/apps/mqtt/mqtt.c ****       /* Should have topic and pkt id*/
 2145              		.loc 1 717 8 view .LVU590
 2146 0128 802B     		cmp	r3, #128
 2147 012a 55D8     		bhi	.L172
 2148              	.LBB6:
 719:Middlewares/Third_Party/LwIP/src/apps/mqtt/mqtt.c ****       u16_t after_topic;
 2149              		.loc 1 719 7 is_stmt 1 view .LVU591
 720:Middlewares/Third_Party/LwIP/src/apps/mqtt/mqtt.c ****       u8_t bkp;
 2150              		.loc 1 720 7 view .LVU592
 721:Middlewares/Third_Party/LwIP/src/apps/mqtt/mqtt.c ****       u16_t topic_len;
 2151              		.loc 1 721 7 view .LVU593
 722:Middlewares/Third_Party/LwIP/src/apps/mqtt/mqtt.c ****       u16_t qos_len = (qos ? 2U : 0U);
 2152              		.loc 1 722 7 view .LVU594
 723:Middlewares/Third_Party/LwIP/src/apps/mqtt/mqtt.c ****       if (length < 2 + qos_len) {
 2153              		.loc 1 723 7 view .LVU595
 723:Middlewares/Third_Party/LwIP/src/apps/mqtt/mqtt.c ****       if (length < 2 + qos_len) {
 2154              		.loc 1 723 13 is_stmt 0 view .LVU596
 2155 012c B8F1000F 		cmp	r8, #0
 2156 0130 36D0     		beq	.L173
 2157 0132 0223     		movs	r3, #2
 2158              	.L157:
 2159              	.LVL232:
 724:Middlewares/Third_Party/LwIP/src/apps/mqtt/mqtt.c ****         LWIP_DEBUGF(MQTT_DEBUG_WARN,( "mqtt_message_received: Received short PUBLISH packet\n"));
 2160              		.loc 1 724 7 is_stmt 1 discriminator 4 view .LVU597
 724:Middlewares/Third_Party/LwIP/src/apps/mqtt/mqtt.c ****         LWIP_DEBUGF(MQTT_DEBUG_WARN,( "mqtt_message_received: Received short PUBLISH packet\n"));
 2161              		.loc 1 724 18 is_stmt 0 discriminator 4 view .LVU598
 2162 0134 5A1C     		adds	r2, r3, #1
 724:Middlewares/Third_Party/LwIP/src/apps/mqtt/mqtt.c ****         LWIP_DEBUGF(MQTT_DEBUG_WARN,( "mqtt_message_received: Received short PUBLISH packet\n"));
 2163              		.loc 1 724 10 discriminator 4 view .LVU599
 2164 0136 9542     		cmp	r5, r2
 2165 0138 40F39680 		ble	.L174
 728:Middlewares/Third_Party/LwIP/src/apps/mqtt/mqtt.c ****       topic_len = (topic_len << 8) + (u16_t)(var_hdr_payload[1]);
 2166              		.loc 1 728 7 is_stmt 1 view .LVU600
 728:Middlewares/Third_Party/LwIP/src/apps/mqtt/mqtt.c ****       topic_len = (topic_len << 8) + (u16_t)(var_hdr_payload[1]);
 2167              		.loc 1 728 17 is_stmt 0 view .LVU601
 2168 013c 1BF80920 		ldrb	r2, [fp, r9]	@ zero_extendqisi2
 2169              	.LVL233:
ARM GAS  /tmp/ccVfyJBo.s 			page 66


 729:Middlewares/Third_Party/LwIP/src/apps/mqtt/mqtt.c ****       if ((topic_len > length - (2 + qos_len)) ||
 2170              		.loc 1 729 7 is_stmt 1 view .LVU602
 729:Middlewares/Third_Party/LwIP/src/apps/mqtt/mqtt.c ****       if ((topic_len > length - (2 + qos_len)) ||
 2171              		.loc 1 729 61 is_stmt 0 view .LVU603
 2172 0140 97F801B0 		ldrb	fp, [r7, #1]	@ zero_extendqisi2
 729:Middlewares/Third_Party/LwIP/src/apps/mqtt/mqtt.c ****       if ((topic_len > length - (2 + qos_len)) ||
 2173              		.loc 1 729 17 view .LVU604
 2174 0144 0BEB022B 		add	fp, fp, r2, lsl #8
 2175 0148 1FFA8BFB 		uxth	fp, fp
 2176              	.LVL234:
 730:Middlewares/Third_Party/LwIP/src/apps/mqtt/mqtt.c ****           (topic_len > var_hdr_payload_bufsize - (2 + qos_len))) {
 2177              		.loc 1 730 7 is_stmt 1 view .LVU605
 730:Middlewares/Third_Party/LwIP/src/apps/mqtt/mqtt.c ****           (topic_len > var_hdr_payload_bufsize - (2 + qos_len))) {
 2178              		.loc 1 730 36 is_stmt 0 view .LVU606
 2179 014c 9A1C     		adds	r2, r3, #2
 730:Middlewares/Third_Party/LwIP/src/apps/mqtt/mqtt.c ****           (topic_len > var_hdr_payload_bufsize - (2 + qos_len))) {
 2180              		.loc 1 730 31 view .LVU607
 2181 014e AA1A     		subs	r2, r5, r2
 730:Middlewares/Third_Party/LwIP/src/apps/mqtt/mqtt.c ****           (topic_len > var_hdr_payload_bufsize - (2 + qos_len))) {
 2182              		.loc 1 730 10 view .LVU608
 2183 0150 9345     		cmp	fp, r2
 2184 0152 00F38C80 		bgt	.L175
 731:Middlewares/Third_Party/LwIP/src/apps/mqtt/mqtt.c ****         LWIP_DEBUGF(MQTT_DEBUG_WARN,( "mqtt_message_received: Received short PUBLISH packet (topic)
 2185              		.loc 1 731 48 discriminator 1 view .LVU609
 2186 0156 AAEB0303 		sub	r3, r10, r3
 2187              	.LVL235:
 731:Middlewares/Third_Party/LwIP/src/apps/mqtt/mqtt.c ****         LWIP_DEBUGF(MQTT_DEBUG_WARN,( "mqtt_message_received: Received short PUBLISH packet (topic)
 2188              		.loc 1 731 48 discriminator 1 view .LVU610
 2189 015a 023B     		subs	r3, r3, #2
 730:Middlewares/Third_Party/LwIP/src/apps/mqtt/mqtt.c ****           (topic_len > var_hdr_payload_bufsize - (2 + qos_len))) {
 2190              		.loc 1 730 48 discriminator 1 view .LVU611
 2191 015c 9B45     		cmp	fp, r3
 2192 015e 00F28980 		bhi	.L176
 736:Middlewares/Third_Party/LwIP/src/apps/mqtt/mqtt.c ****       after_topic = 2 + topic_len;
 2193              		.loc 1 736 7 is_stmt 1 view .LVU612
 736:Middlewares/Third_Party/LwIP/src/apps/mqtt/mqtt.c ****       after_topic = 2 + topic_len;
 2194              		.loc 1 736 13 is_stmt 0 view .LVU613
 2195 0162 BB1C     		adds	r3, r7, #2
 2196 0164 0093     		str	r3, [sp]
 2197              	.LVL236:
 737:Middlewares/Third_Party/LwIP/src/apps/mqtt/mqtt.c ****       /* Check buffer length, add one byte even for QoS 0 so that zero termination will fit */
 2198              		.loc 1 737 7 is_stmt 1 view .LVU614
 737:Middlewares/Third_Party/LwIP/src/apps/mqtt/mqtt.c ****       /* Check buffer length, add one byte even for QoS 0 so that zero termination will fit */
 2199              		.loc 1 737 19 is_stmt 0 view .LVU615
 2200 0166 0BF10209 		add	r9, fp, #2
 2201 016a 1FFA89F9 		uxth	r9, r9
 2202              	.LVL237:
 739:Middlewares/Third_Party/LwIP/src/apps/mqtt/mqtt.c ****         LWIP_DEBUGF(MQTT_DEBUG_WARN, ("mqtt_message_received: Receive buffer can not fit topic + pk
 2203              		.loc 1 739 7 is_stmt 1 view .LVU616
 739:Middlewares/Third_Party/LwIP/src/apps/mqtt/mqtt.c ****         LWIP_DEBUGF(MQTT_DEBUG_WARN, ("mqtt_message_received: Receive buffer can not fit topic + pk
 2204              		.loc 1 739 24 is_stmt 0 view .LVU617
 2205 016e 4A46     		mov	r2, r9
 739:Middlewares/Third_Party/LwIP/src/apps/mqtt/mqtt.c ****         LWIP_DEBUGF(MQTT_DEBUG_WARN, ("mqtt_message_received: Receive buffer can not fit topic + pk
 2206              		.loc 1 739 36 view .LVU618
 2207 0170 B8F1000F 		cmp	r8, #0
 2208 0174 16D0     		beq	.L177
 2209 0176 0223     		movs	r3, #2
ARM GAS  /tmp/ccVfyJBo.s 			page 67


 2210              	.LVL238:
 2211              	.L158:
 739:Middlewares/Third_Party/LwIP/src/apps/mqtt/mqtt.c ****         LWIP_DEBUGF(MQTT_DEBUG_WARN, ("mqtt_message_received: Receive buffer can not fit topic + pk
 2212              		.loc 1 739 24 discriminator 4 view .LVU619
 2213 0178 1344     		add	r3, r3, r2
 739:Middlewares/Third_Party/LwIP/src/apps/mqtt/mqtt.c ****         LWIP_DEBUGF(MQTT_DEBUG_WARN, ("mqtt_message_received: Receive buffer can not fit topic + pk
 2214              		.loc 1 739 10 discriminator 4 view .LVU620
 2215 017a 5345     		cmp	r3, r10
 2216 017c 7DD8     		bhi	.L178
 745:Middlewares/Third_Party/LwIP/src/apps/mqtt/mqtt.c ****         if (length < after_topic + 2U) {
 2217              		.loc 1 745 7 is_stmt 1 view .LVU621
 745:Middlewares/Third_Party/LwIP/src/apps/mqtt/mqtt.c ****         if (length < after_topic + 2U) {
 2218              		.loc 1 745 10 is_stmt 0 view .LVU622
 2219 017e B8F1000F 		cmp	r8, #0
 2220 0182 11D0     		beq	.L159
 746:Middlewares/Third_Party/LwIP/src/apps/mqtt/mqtt.c ****           LWIP_DEBUGF(MQTT_DEBUG_WARN,( "mqtt_message_received: Received short PUBLISH packet (afte
 2221              		.loc 1 746 9 is_stmt 1 view .LVU623
 746:Middlewares/Third_Party/LwIP/src/apps/mqtt/mqtt.c ****           LWIP_DEBUGF(MQTT_DEBUG_WARN,( "mqtt_message_received: Received short PUBLISH packet (afte
 2222              		.loc 1 746 34 is_stmt 0 view .LVU624
 2223 0184 931C     		adds	r3, r2, #2
 746:Middlewares/Third_Party/LwIP/src/apps/mqtt/mqtt.c ****           LWIP_DEBUGF(MQTT_DEBUG_WARN,( "mqtt_message_received: Received short PUBLISH packet (afte
 2224              		.loc 1 746 12 view .LVU625
 2225 0186 9D42     		cmp	r5, r3
 2226 0188 7AD3     		bcc	.L179
 750:Middlewares/Third_Party/LwIP/src/apps/mqtt/mqtt.c ****         after_topic += 2;
 2227              		.loc 1 750 9 is_stmt 1 view .LVU626
 750:Middlewares/Third_Party/LwIP/src/apps/mqtt/mqtt.c ****         after_topic += 2;
 2228              		.loc 1 750 55 is_stmt 0 view .LVU627
 2229 018a B95C     		ldrb	r1, [r7, r2]	@ zero_extendqisi2
 750:Middlewares/Third_Party/LwIP/src/apps/mqtt/mqtt.c ****         after_topic += 2;
 2230              		.loc 1 750 99 view .LVU628
 2231 018c 3A44     		add	r2, r2, r7
 2232 018e 5378     		ldrb	r3, [r2, #1]	@ zero_extendqisi2
 750:Middlewares/Third_Party/LwIP/src/apps/mqtt/mqtt.c ****         after_topic += 2;
 2233              		.loc 1 750 75 view .LVU629
 2234 0190 03EB0123 		add	r3, r3, r1, lsl #8
 750:Middlewares/Third_Party/LwIP/src/apps/mqtt/mqtt.c ****         after_topic += 2;
 2235              		.loc 1 750 30 view .LVU630
 2236 0194 2381     		strh	r3, [r4, #8]	@ movhi
 751:Middlewares/Third_Party/LwIP/src/apps/mqtt/mqtt.c ****       } else {
 2237              		.loc 1 751 9 is_stmt 1 view .LVU631
 751:Middlewares/Third_Party/LwIP/src/apps/mqtt/mqtt.c ****       } else {
 2238              		.loc 1 751 21 is_stmt 0 view .LVU632
 2239 0196 0BF10409 		add	r9, fp, #4
 2240              	.LVL239:
 751:Middlewares/Third_Party/LwIP/src/apps/mqtt/mqtt.c ****       } else {
 2241              		.loc 1 751 21 view .LVU633
 2242 019a 1FFA89F9 		uxth	r9, r9
 2243              	.LVL240:
 751:Middlewares/Third_Party/LwIP/src/apps/mqtt/mqtt.c ****       } else {
 2244              		.loc 1 751 21 view .LVU634
 2245 019e 05E0     		b	.L160
 2246              	.LVL241:
 2247              	.L173:
 723:Middlewares/Third_Party/LwIP/src/apps/mqtt/mqtt.c ****       if (length < 2 + qos_len) {
 2248              		.loc 1 723 13 view .LVU635
 2249 01a0 0023     		movs	r3, #0
ARM GAS  /tmp/ccVfyJBo.s 			page 68


 2250 01a2 C7E7     		b	.L157
 2251              	.LVL242:
 2252              	.L177:
 739:Middlewares/Third_Party/LwIP/src/apps/mqtt/mqtt.c ****         LWIP_DEBUGF(MQTT_DEBUG_WARN, ("mqtt_message_received: Receive buffer can not fit topic + pk
 2253              		.loc 1 739 36 view .LVU636
 2254 01a4 0123     		movs	r3, #1
 2255              	.LVL243:
 739:Middlewares/Third_Party/LwIP/src/apps/mqtt/mqtt.c ****         LWIP_DEBUGF(MQTT_DEBUG_WARN, ("mqtt_message_received: Receive buffer can not fit topic + pk
 2256              		.loc 1 739 36 view .LVU637
 2257 01a6 E7E7     		b	.L158
 2258              	.L159:
 753:Middlewares/Third_Party/LwIP/src/apps/mqtt/mqtt.c ****       }
 2259              		.loc 1 753 9 is_stmt 1 view .LVU638
 753:Middlewares/Third_Party/LwIP/src/apps/mqtt/mqtt.c ****       }
 2260              		.loc 1 753 30 is_stmt 0 view .LVU639
 2261 01a8 0023     		movs	r3, #0
 2262 01aa 2381     		strh	r3, [r4, #8]	@ movhi
 2263              	.L160:
 756:Middlewares/Third_Party/LwIP/src/apps/mqtt/mqtt.c ****       /* Zero terminate string */
 2264              		.loc 1 756 7 is_stmt 1 view .LVU640
 756:Middlewares/Third_Party/LwIP/src/apps/mqtt/mqtt.c ****       /* Zero terminate string */
 2265              		.loc 1 756 11 is_stmt 0 view .LVU641
 2266 01ac 0099     		ldr	r1, [sp]
 2267 01ae 11F80B30 		ldrb	r3, [r1, fp]	@ zero_extendqisi2
 2268 01b2 0193     		str	r3, [sp, #4]
 2269              	.LVL244:
 758:Middlewares/Third_Party/LwIP/src/apps/mqtt/mqtt.c ****       /* Payload data remaining in receive buffer */
 2270              		.loc 1 758 7 is_stmt 1 view .LVU642
 758:Middlewares/Third_Party/LwIP/src/apps/mqtt/mqtt.c ****       /* Payload data remaining in receive buffer */
 2271              		.loc 1 758 24 is_stmt 0 view .LVU643
 2272 01b4 0023     		movs	r3, #0
 2273 01b6 01F80B30 		strb	r3, [r1, fp]
 760:Middlewares/Third_Party/LwIP/src/apps/mqtt/mqtt.c ****       payload_offset = after_topic;
 2274              		.loc 1 760 7 is_stmt 1 view .LVU644
 760:Middlewares/Third_Party/LwIP/src/apps/mqtt/mqtt.c ****       payload_offset = after_topic;
 2275              		.loc 1 760 22 is_stmt 0 view .LVU645
 2276 01ba A5EB090A 		sub	r10, r5, r9
 2277              	.LVL245:
 760:Middlewares/Third_Party/LwIP/src/apps/mqtt/mqtt.c ****       payload_offset = after_topic;
 2278              		.loc 1 760 22 view .LVU646
 2279 01be 1FFA8AFA 		uxth	r10, r10
 2280              	.LVL246:
 761:Middlewares/Third_Party/LwIP/src/apps/mqtt/mqtt.c **** 
 2281              		.loc 1 761 7 is_stmt 1 view .LVU647
 764:Middlewares/Third_Party/LwIP/src/apps/mqtt/mqtt.c ****       if (client->pub_cb != NULL) {
 2282              		.loc 1 764 85 view .LVU648
 765:Middlewares/Third_Party/LwIP/src/apps/mqtt/mqtt.c ****         client->pub_cb(client->inpub_arg, (const char *)topic, remaining_length + payload_length);
 2283              		.loc 1 765 7 view .LVU649
 765:Middlewares/Third_Party/LwIP/src/apps/mqtt/mqtt.c ****         client->pub_cb(client->inpub_arg, (const char *)topic, remaining_length + payload_length);
 2284              		.loc 1 765 17 is_stmt 0 view .LVU650
 2285 01c2 636E     		ldr	r3, [r4, #100]
 765:Middlewares/Third_Party/LwIP/src/apps/mqtt/mqtt.c ****         client->pub_cb(client->inpub_arg, (const char *)topic, remaining_length + payload_length);
 2286              		.loc 1 765 10 view .LVU651
 2287 01c4 1BB1     		cbz	r3, .L161
 766:Middlewares/Third_Party/LwIP/src/apps/mqtt/mqtt.c ****       }
 2288              		.loc 1 766 9 is_stmt 1 view .LVU652
 2289 01c6 0AEB0602 		add	r2, r10, r6
ARM GAS  /tmp/ccVfyJBo.s 			page 69


 2290 01ca E06D     		ldr	r0, [r4, #92]
 2291 01cc 9847     		blx	r3
 2292              	.LVL247:
 2293              	.L161:
 769:Middlewares/Third_Party/LwIP/src/apps/mqtt/mqtt.c ****     }
 2294              		.loc 1 769 7 view .LVU653
 769:Middlewares/Third_Party/LwIP/src/apps/mqtt/mqtt.c ****     }
 2295              		.loc 1 769 24 is_stmt 0 view .LVU654
 2296 01ce 009B     		ldr	r3, [sp]
 2297 01d0 019A     		ldr	r2, [sp, #4]
 2298 01d2 03F80B20 		strb	r2, [r3, fp]
 2299 01d6 02E0     		b	.L156
 2300              	.LVL248:
 2301              	.L172:
 769:Middlewares/Third_Party/LwIP/src/apps/mqtt/mqtt.c ****     }
 2302              		.loc 1 769 24 view .LVU655
 2303              	.LBE6:
 714:Middlewares/Third_Party/LwIP/src/apps/mqtt/mqtt.c ****     u8_t qos = MQTT_CTL_PACKET_QOS(client->rx_buffer[0]);
 2304              		.loc 1 714 11 view .LVU656
 2305 01d8 AA46     		mov	r10, r5
 2306              	.LVL249:
 713:Middlewares/Third_Party/LwIP/src/apps/mqtt/mqtt.c ****     u16_t payload_length = length;
 2307              		.loc 1 713 11 view .LVU657
 2308 01da 4FF00009 		mov	r9, #0
 2309              	.LVL250:
 2310              	.L156:
 771:Middlewares/Third_Party/LwIP/src/apps/mqtt/mqtt.c ****       if (length < (size_t)(payload_offset + payload_length)) {
 2311              		.loc 1 771 5 is_stmt 1 view .LVU658
 771:Middlewares/Third_Party/LwIP/src/apps/mqtt/mqtt.c ****       if (length < (size_t)(payload_offset + payload_length)) {
 2312              		.loc 1 771 48 is_stmt 0 view .LVU659
 2313 01de B6FA86F6 		clz	r6, r6
 2314              	.LVL251:
 771:Middlewares/Third_Party/LwIP/src/apps/mqtt/mqtt.c ****       if (length < (size_t)(payload_offset + payload_length)) {
 2315              		.loc 1 771 48 view .LVU660
 2316 01e2 7609     		lsrs	r6, r6, #5
 771:Middlewares/Third_Party/LwIP/src/apps/mqtt/mqtt.c ****       if (length < (size_t)(payload_offset + payload_length)) {
 2317              		.loc 1 771 28 view .LVU661
 2318 01e4 BAF1000F 		cmp	r10, #0
 2319 01e8 0CBF     		ite	eq
 2320 01ea 3346     		moveq	r3, r6
 2321 01ec 46F00103 		orrne	r3, r6, #1
 771:Middlewares/Third_Party/LwIP/src/apps/mqtt/mqtt.c ****       if (length < (size_t)(payload_offset + payload_length)) {
 2322              		.loc 1 771 8 view .LVU662
 2323 01f0 002B     		cmp	r3, #0
 2324 01f2 48D0     		beq	.L180
 772:Middlewares/Third_Party/LwIP/src/apps/mqtt/mqtt.c ****         LWIP_DEBUGF(MQTT_DEBUG_WARN,( "mqtt_message_received: Received short packet (payload)\n"));
 2325              		.loc 1 772 7 is_stmt 1 view .LVU663
 772:Middlewares/Third_Party/LwIP/src/apps/mqtt/mqtt.c ****         LWIP_DEBUGF(MQTT_DEBUG_WARN,( "mqtt_message_received: Received short packet (payload)\n"));
 2326              		.loc 1 772 44 is_stmt 0 view .LVU664
 2327 01f4 09EB0A03 		add	r3, r9, r10
 772:Middlewares/Third_Party/LwIP/src/apps/mqtt/mqtt.c ****         LWIP_DEBUGF(MQTT_DEBUG_WARN,( "mqtt_message_received: Received short packet (payload)\n"));
 2328              		.loc 1 772 10 view .LVU665
 2329 01f8 9D42     		cmp	r5, r3
 2330 01fa 46D3     		bcc	.L181
 776:Middlewares/Third_Party/LwIP/src/apps/mqtt/mqtt.c ****       /* Reply if QoS > 0 */
 2331              		.loc 1 776 7 is_stmt 1 view .LVU666
 776:Middlewares/Third_Party/LwIP/src/apps/mqtt/mqtt.c ****       /* Reply if QoS > 0 */
ARM GAS  /tmp/ccVfyJBo.s 			page 70


 2332              		.loc 1 776 13 is_stmt 0 view .LVU667
 2333 01fc 256E     		ldr	r5, [r4, #96]
 776:Middlewares/Third_Party/LwIP/src/apps/mqtt/mqtt.c ****       /* Reply if QoS > 0 */
 2334              		.loc 1 776 7 view .LVU668
 2335 01fe 3346     		mov	r3, r6
 2336 0200 5246     		mov	r2, r10
 2337 0202 07EB0901 		add	r1, r7, r9
 2338 0206 E06D     		ldr	r0, [r4, #92]
 2339 0208 A847     		blx	r5
 2340              	.LVL252:
 778:Middlewares/Third_Party/LwIP/src/apps/mqtt/mqtt.c ****         /* Send PUBACK for QoS 1 or PUBREC for QoS 2 */
 2341              		.loc 1 778 7 is_stmt 1 view .LVU669
 778:Middlewares/Third_Party/LwIP/src/apps/mqtt/mqtt.c ****         /* Send PUBACK for QoS 1 or PUBREC for QoS 2 */
 2342              		.loc 1 778 33 is_stmt 0 view .LVU670
 2343 020a B8F1000F 		cmp	r8, #0
 2344 020e 0CBF     		ite	eq
 2345 0210 0026     		moveq	r6, #0
 2346 0212 06F00106 		andne	r6, r6, #1
 778:Middlewares/Third_Party/LwIP/src/apps/mqtt/mqtt.c ****         /* Send PUBACK for QoS 1 or PUBREC for QoS 2 */
 2347              		.loc 1 778 10 view .LVU671
 2348 0216 DEB3     		cbz	r6, .L182
 2349              	.LBB7:
 780:Middlewares/Third_Party/LwIP/src/apps/mqtt/mqtt.c ****         LWIP_DEBUGF(MQTT_DEBUG_TRACE, ("mqtt_incomming_publish: Sending publish response: %s with p
 2350              		.loc 1 780 9 is_stmt 1 view .LVU672
 780:Middlewares/Third_Party/LwIP/src/apps/mqtt/mqtt.c ****         LWIP_DEBUGF(MQTT_DEBUG_TRACE, ("mqtt_incomming_publish: Sending publish response: %s with p
 2351              		.loc 1 780 14 is_stmt 0 view .LVU673
 2352 0218 B8F1010F 		cmp	r8, #1
 2353 021c 07D0     		beq	.L198
 2354 021e 0521     		movs	r1, #5
 2355              	.L162:
 2356              	.LVL253:
