ARM GAS  /tmp/ccVfyJBo.s 			page 1


   1              		.cpu cortex-m7
   2              		.arch armv7e-m
   3              		.fpu fpv5-d16
   4              		.eabi_attribute 28, 1
   5              		.eabi_attribute 20, 1
   6              		.eabi_attribute 21, 1
   7              		.eabi_attribute 23, 3
   8              		.eabi_attribute 24, 1
   9              		.eabi_attribute 25, 1
  10              		.eabi_attribute 26, 1
  11              		.eabi_attribute 30, 1
  12              		.eabi_attribute 34, 1
  13              		.eabi_attribute 18, 4
  14              		.file	"mqtt.c"
  15              		.text
  16              	.Ltext0:
  17              		.cfi_sections	.debug_frame
  18              		.section	.text.msg_generate_packet_id,"ax",%progbits
  19              		.align	1
  20              		.syntax unified
  21              		.thumb
  22              		.thumb_func
  24              	msg_generate_packet_id:
  25              	.LVL0:
  26              	.LFB167:
  27              		.file 1 "Middlewares/Third_Party/LwIP/src/apps/mqtt/mqtt.c"
   1:Middlewares/Third_Party/LwIP/src/apps/mqtt/mqtt.c **** /**
   2:Middlewares/Third_Party/LwIP/src/apps/mqtt/mqtt.c ****  * @file
   3:Middlewares/Third_Party/LwIP/src/apps/mqtt/mqtt.c ****  * MQTT client
   4:Middlewares/Third_Party/LwIP/src/apps/mqtt/mqtt.c ****  *
   5:Middlewares/Third_Party/LwIP/src/apps/mqtt/mqtt.c ****  * @defgroup mqtt MQTT client
   6:Middlewares/Third_Party/LwIP/src/apps/mqtt/mqtt.c ****  * @ingroup apps
   7:Middlewares/Third_Party/LwIP/src/apps/mqtt/mqtt.c ****  * @verbinclude mqtt_client.txt
   8:Middlewares/Third_Party/LwIP/src/apps/mqtt/mqtt.c ****  */
   9:Middlewares/Third_Party/LwIP/src/apps/mqtt/mqtt.c **** 
  10:Middlewares/Third_Party/LwIP/src/apps/mqtt/mqtt.c **** /*
  11:Middlewares/Third_Party/LwIP/src/apps/mqtt/mqtt.c ****  * Copyright (c) 2016 Erik Andersson <erian747@gmail.com>
  12:Middlewares/Third_Party/LwIP/src/apps/mqtt/mqtt.c ****  * All rights reserved.
  13:Middlewares/Third_Party/LwIP/src/apps/mqtt/mqtt.c ****  *
  14:Middlewares/Third_Party/LwIP/src/apps/mqtt/mqtt.c ****  * Redistribution and use in source and binary forms, with or without modification,
  15:Middlewares/Third_Party/LwIP/src/apps/mqtt/mqtt.c ****  * are permitted provided that the following conditions are met:
  16:Middlewares/Third_Party/LwIP/src/apps/mqtt/mqtt.c ****  *
  17:Middlewares/Third_Party/LwIP/src/apps/mqtt/mqtt.c ****  * 1. Redistributions of source code must retain the above copyright notice,
  18:Middlewares/Third_Party/LwIP/src/apps/mqtt/mqtt.c ****  *    this list of conditions and the following disclaimer.
  19:Middlewares/Third_Party/LwIP/src/apps/mqtt/mqtt.c ****  * 2. Redistributions in binary form must reproduce the above copyright notice,
  20:Middlewares/Third_Party/LwIP/src/apps/mqtt/mqtt.c ****  *    this list of conditions and the following disclaimer in the documentation
  21:Middlewares/Third_Party/LwIP/src/apps/mqtt/mqtt.c ****  *    and/or other materials provided with the distribution.
  22:Middlewares/Third_Party/LwIP/src/apps/mqtt/mqtt.c ****  * 3. The name of the author may not be used to endorse or promote products
  23:Middlewares/Third_Party/LwIP/src/apps/mqtt/mqtt.c ****  *    derived from this software without specific prior written permission.
  24:Middlewares/Third_Party/LwIP/src/apps/mqtt/mqtt.c ****  *
  25:Middlewares/Third_Party/LwIP/src/apps/mqtt/mqtt.c ****  * THIS SOFTWARE IS PROVIDED BY THE AUTHOR ``AS IS'' AND ANY EXPRESS OR IMPLIED
  26:Middlewares/Third_Party/LwIP/src/apps/mqtt/mqtt.c ****  * WARRANTIES, INCLUDING, BUT NOT LIMITED TO, THE IMPLIED WARRANTIES OF
  27:Middlewares/Third_Party/LwIP/src/apps/mqtt/mqtt.c ****  * MERCHANTABILITY AND FITNESS FOR A PARTICULAR PURPOSE ARE DISCLAIMED. IN NO EVENT
  28:Middlewares/Third_Party/LwIP/src/apps/mqtt/mqtt.c ****  * SHALL THE AUTHOR BE LIABLE FOR ANY DIRECT, INDIRECT, INCIDENTAL, SPECIAL,
  29:Middlewares/Third_Party/LwIP/src/apps/mqtt/mqtt.c ****  * EXEMPLARY, OR CONSEQUENTIAL DAMAGES (INCLUDING, BUT NOT LIMITED TO, PROCUREMENT
  30:Middlewares/Third_Party/LwIP/src/apps/mqtt/mqtt.c ****  * OF SUBSTITUTE GOODS OR SERVICES; LOSS OF USE, DATA, OR PROFITS; OR BUSINESS
  31:Middlewares/Third_Party/LwIP/src/apps/mqtt/mqtt.c ****  * INTERRUPTION) HOWEVER CAUSED AND ON ANY THEORY OF LIABILITY, WHETHER IN
ARM GAS  /tmp/ccVfyJBo.s 			page 2


  32:Middlewares/Third_Party/LwIP/src/apps/mqtt/mqtt.c ****  * CONTRACT, STRICT LIABILITY, OR TORT (INCLUDING NEGLIGENCE OR OTHERWISE) ARISING
  33:Middlewares/Third_Party/LwIP/src/apps/mqtt/mqtt.c ****  * IN ANY WAY OUT OF THE USE OF THIS SOFTWARE, EVEN IF ADVISED OF THE POSSIBILITY
  34:Middlewares/Third_Party/LwIP/src/apps/mqtt/mqtt.c ****  * OF SUCH DAMAGE.
  35:Middlewares/Third_Party/LwIP/src/apps/mqtt/mqtt.c ****  *
  36:Middlewares/Third_Party/LwIP/src/apps/mqtt/mqtt.c ****  * This file is part of the lwIP TCP/IP stack
  37:Middlewares/Third_Party/LwIP/src/apps/mqtt/mqtt.c ****  *
  38:Middlewares/Third_Party/LwIP/src/apps/mqtt/mqtt.c ****  * Author: Erik Andersson <erian747@gmail.com>
  39:Middlewares/Third_Party/LwIP/src/apps/mqtt/mqtt.c ****  *
  40:Middlewares/Third_Party/LwIP/src/apps/mqtt/mqtt.c ****  *
  41:Middlewares/Third_Party/LwIP/src/apps/mqtt/mqtt.c ****  * @todo:
  42:Middlewares/Third_Party/LwIP/src/apps/mqtt/mqtt.c ****  * - Handle large outgoing payloads for PUBLISH messages
  43:Middlewares/Third_Party/LwIP/src/apps/mqtt/mqtt.c ****  * - Fix restriction of a single topic in each (UN)SUBSCRIBE message (protocol has support for mult
  44:Middlewares/Third_Party/LwIP/src/apps/mqtt/mqtt.c ****  * - Add support for legacy MQTT protocol version
  45:Middlewares/Third_Party/LwIP/src/apps/mqtt/mqtt.c ****  *
  46:Middlewares/Third_Party/LwIP/src/apps/mqtt/mqtt.c ****  * Please coordinate changes and requests with Erik Andersson
  47:Middlewares/Third_Party/LwIP/src/apps/mqtt/mqtt.c ****  * Erik Andersson <erian747@gmail.com>
  48:Middlewares/Third_Party/LwIP/src/apps/mqtt/mqtt.c ****  *
  49:Middlewares/Third_Party/LwIP/src/apps/mqtt/mqtt.c ****  */
  50:Middlewares/Third_Party/LwIP/src/apps/mqtt/mqtt.c **** #include "lwip/apps/mqtt.h"
  51:Middlewares/Third_Party/LwIP/src/apps/mqtt/mqtt.c **** #include "lwip/apps/mqtt_priv.h"
  52:Middlewares/Third_Party/LwIP/src/apps/mqtt/mqtt.c **** #include "lwip/timeouts.h"
  53:Middlewares/Third_Party/LwIP/src/apps/mqtt/mqtt.c **** #include "lwip/ip_addr.h"
  54:Middlewares/Third_Party/LwIP/src/apps/mqtt/mqtt.c **** #include "lwip/mem.h"
  55:Middlewares/Third_Party/LwIP/src/apps/mqtt/mqtt.c **** #include "lwip/err.h"
  56:Middlewares/Third_Party/LwIP/src/apps/mqtt/mqtt.c **** #include "lwip/pbuf.h"
  57:Middlewares/Third_Party/LwIP/src/apps/mqtt/mqtt.c **** #include "lwip/altcp.h"
  58:Middlewares/Third_Party/LwIP/src/apps/mqtt/mqtt.c **** #include "lwip/altcp_tcp.h"
  59:Middlewares/Third_Party/LwIP/src/apps/mqtt/mqtt.c **** #include "lwip/altcp_tls.h"
  60:Middlewares/Third_Party/LwIP/src/apps/mqtt/mqtt.c **** #include <string.h>
  61:Middlewares/Third_Party/LwIP/src/apps/mqtt/mqtt.c **** 
  62:Middlewares/Third_Party/LwIP/src/apps/mqtt/mqtt.c **** #if LWIP_TCP && LWIP_CALLBACK_API
  63:Middlewares/Third_Party/LwIP/src/apps/mqtt/mqtt.c **** 
  64:Middlewares/Third_Party/LwIP/src/apps/mqtt/mqtt.c **** /**
  65:Middlewares/Third_Party/LwIP/src/apps/mqtt/mqtt.c ****  * MQTT_DEBUG: Default is off.
  66:Middlewares/Third_Party/LwIP/src/apps/mqtt/mqtt.c ****  */
  67:Middlewares/Third_Party/LwIP/src/apps/mqtt/mqtt.c **** #if !defined MQTT_DEBUG || defined __DOXYGEN__
  68:Middlewares/Third_Party/LwIP/src/apps/mqtt/mqtt.c **** #define MQTT_DEBUG                  LWIP_DBG_OFF
  69:Middlewares/Third_Party/LwIP/src/apps/mqtt/mqtt.c **** #endif
  70:Middlewares/Third_Party/LwIP/src/apps/mqtt/mqtt.c **** 
  71:Middlewares/Third_Party/LwIP/src/apps/mqtt/mqtt.c **** #define MQTT_DEBUG_TRACE        (MQTT_DEBUG | LWIP_DBG_TRACE)
  72:Middlewares/Third_Party/LwIP/src/apps/mqtt/mqtt.c **** #define MQTT_DEBUG_STATE        (MQTT_DEBUG | LWIP_DBG_STATE)
  73:Middlewares/Third_Party/LwIP/src/apps/mqtt/mqtt.c **** #define MQTT_DEBUG_WARN         (MQTT_DEBUG | LWIP_DBG_LEVEL_WARNING)
  74:Middlewares/Third_Party/LwIP/src/apps/mqtt/mqtt.c **** #define MQTT_DEBUG_WARN_STATE   (MQTT_DEBUG | LWIP_DBG_LEVEL_WARNING | LWIP_DBG_STATE)
  75:Middlewares/Third_Party/LwIP/src/apps/mqtt/mqtt.c **** #define MQTT_DEBUG_SERIOUS      (MQTT_DEBUG | LWIP_DBG_LEVEL_SERIOUS)
  76:Middlewares/Third_Party/LwIP/src/apps/mqtt/mqtt.c **** 
  77:Middlewares/Third_Party/LwIP/src/apps/mqtt/mqtt.c **** 
  78:Middlewares/Third_Party/LwIP/src/apps/mqtt/mqtt.c **** 
  79:Middlewares/Third_Party/LwIP/src/apps/mqtt/mqtt.c **** /**
  80:Middlewares/Third_Party/LwIP/src/apps/mqtt/mqtt.c ****  * MQTT client connection states
  81:Middlewares/Third_Party/LwIP/src/apps/mqtt/mqtt.c ****  */
  82:Middlewares/Third_Party/LwIP/src/apps/mqtt/mqtt.c **** enum {
  83:Middlewares/Third_Party/LwIP/src/apps/mqtt/mqtt.c ****   TCP_DISCONNECTED,
  84:Middlewares/Third_Party/LwIP/src/apps/mqtt/mqtt.c ****   TCP_CONNECTING,
  85:Middlewares/Third_Party/LwIP/src/apps/mqtt/mqtt.c ****   MQTT_CONNECTING,
  86:Middlewares/Third_Party/LwIP/src/apps/mqtt/mqtt.c ****   MQTT_CONNECTED
  87:Middlewares/Third_Party/LwIP/src/apps/mqtt/mqtt.c **** };
  88:Middlewares/Third_Party/LwIP/src/apps/mqtt/mqtt.c **** 
ARM GAS  /tmp/ccVfyJBo.s 			page 3


  89:Middlewares/Third_Party/LwIP/src/apps/mqtt/mqtt.c **** /**
  90:Middlewares/Third_Party/LwIP/src/apps/mqtt/mqtt.c ****  * MQTT control message types
  91:Middlewares/Third_Party/LwIP/src/apps/mqtt/mqtt.c ****  */
  92:Middlewares/Third_Party/LwIP/src/apps/mqtt/mqtt.c **** enum mqtt_message_type {
  93:Middlewares/Third_Party/LwIP/src/apps/mqtt/mqtt.c ****   MQTT_MSG_TYPE_CONNECT = 1,
  94:Middlewares/Third_Party/LwIP/src/apps/mqtt/mqtt.c ****   MQTT_MSG_TYPE_CONNACK = 2,
  95:Middlewares/Third_Party/LwIP/src/apps/mqtt/mqtt.c ****   MQTT_MSG_TYPE_PUBLISH = 3,
  96:Middlewares/Third_Party/LwIP/src/apps/mqtt/mqtt.c ****   MQTT_MSG_TYPE_PUBACK = 4,
  97:Middlewares/Third_Party/LwIP/src/apps/mqtt/mqtt.c ****   MQTT_MSG_TYPE_PUBREC = 5,
  98:Middlewares/Third_Party/LwIP/src/apps/mqtt/mqtt.c ****   MQTT_MSG_TYPE_PUBREL = 6,
  99:Middlewares/Third_Party/LwIP/src/apps/mqtt/mqtt.c ****   MQTT_MSG_TYPE_PUBCOMP = 7,
 100:Middlewares/Third_Party/LwIP/src/apps/mqtt/mqtt.c ****   MQTT_MSG_TYPE_SUBSCRIBE = 8,
 101:Middlewares/Third_Party/LwIP/src/apps/mqtt/mqtt.c ****   MQTT_MSG_TYPE_SUBACK = 9,
 102:Middlewares/Third_Party/LwIP/src/apps/mqtt/mqtt.c ****   MQTT_MSG_TYPE_UNSUBSCRIBE = 10,
 103:Middlewares/Third_Party/LwIP/src/apps/mqtt/mqtt.c ****   MQTT_MSG_TYPE_UNSUBACK = 11,
 104:Middlewares/Third_Party/LwIP/src/apps/mqtt/mqtt.c ****   MQTT_MSG_TYPE_PINGREQ = 12,
 105:Middlewares/Third_Party/LwIP/src/apps/mqtt/mqtt.c ****   MQTT_MSG_TYPE_PINGRESP = 13,
 106:Middlewares/Third_Party/LwIP/src/apps/mqtt/mqtt.c ****   MQTT_MSG_TYPE_DISCONNECT = 14
 107:Middlewares/Third_Party/LwIP/src/apps/mqtt/mqtt.c **** };
 108:Middlewares/Third_Party/LwIP/src/apps/mqtt/mqtt.c **** 
 109:Middlewares/Third_Party/LwIP/src/apps/mqtt/mqtt.c **** /** Helpers to extract control packet type and qos from first byte in fixed header */
 110:Middlewares/Third_Party/LwIP/src/apps/mqtt/mqtt.c **** #define MQTT_CTL_PACKET_TYPE(fixed_hdr_byte0) ((fixed_hdr_byte0 & 0xf0) >> 4)
 111:Middlewares/Third_Party/LwIP/src/apps/mqtt/mqtt.c **** #define MQTT_CTL_PACKET_QOS(fixed_hdr_byte0) ((fixed_hdr_byte0 & 0x6) >> 1)
 112:Middlewares/Third_Party/LwIP/src/apps/mqtt/mqtt.c **** 
 113:Middlewares/Third_Party/LwIP/src/apps/mqtt/mqtt.c **** /**
 114:Middlewares/Third_Party/LwIP/src/apps/mqtt/mqtt.c ****  * MQTT connect flags, only used in CONNECT message
 115:Middlewares/Third_Party/LwIP/src/apps/mqtt/mqtt.c ****  */
 116:Middlewares/Third_Party/LwIP/src/apps/mqtt/mqtt.c **** enum mqtt_connect_flag {
 117:Middlewares/Third_Party/LwIP/src/apps/mqtt/mqtt.c ****   MQTT_CONNECT_FLAG_USERNAME = 1 << 7,
 118:Middlewares/Third_Party/LwIP/src/apps/mqtt/mqtt.c ****   MQTT_CONNECT_FLAG_PASSWORD = 1 << 6,
 119:Middlewares/Third_Party/LwIP/src/apps/mqtt/mqtt.c ****   MQTT_CONNECT_FLAG_WILL_RETAIN = 1 << 5,
 120:Middlewares/Third_Party/LwIP/src/apps/mqtt/mqtt.c ****   MQTT_CONNECT_FLAG_WILL = 1 << 2,
 121:Middlewares/Third_Party/LwIP/src/apps/mqtt/mqtt.c ****   MQTT_CONNECT_FLAG_CLEAN_SESSION = 1 << 1
 122:Middlewares/Third_Party/LwIP/src/apps/mqtt/mqtt.c **** };
 123:Middlewares/Third_Party/LwIP/src/apps/mqtt/mqtt.c **** 
 124:Middlewares/Third_Party/LwIP/src/apps/mqtt/mqtt.c **** 
 125:Middlewares/Third_Party/LwIP/src/apps/mqtt/mqtt.c **** static void mqtt_cyclic_timer(void *arg);
 126:Middlewares/Third_Party/LwIP/src/apps/mqtt/mqtt.c **** 
 127:Middlewares/Third_Party/LwIP/src/apps/mqtt/mqtt.c **** #if defined(LWIP_DEBUG)
 128:Middlewares/Third_Party/LwIP/src/apps/mqtt/mqtt.c **** static const char *const mqtt_message_type_str[15] = {
 129:Middlewares/Third_Party/LwIP/src/apps/mqtt/mqtt.c ****   "UNDEFINED",
 130:Middlewares/Third_Party/LwIP/src/apps/mqtt/mqtt.c ****   "CONNECT",
 131:Middlewares/Third_Party/LwIP/src/apps/mqtt/mqtt.c ****   "CONNACK",
 132:Middlewares/Third_Party/LwIP/src/apps/mqtt/mqtt.c ****   "PUBLISH",
 133:Middlewares/Third_Party/LwIP/src/apps/mqtt/mqtt.c ****   "PUBACK",
 134:Middlewares/Third_Party/LwIP/src/apps/mqtt/mqtt.c ****   "PUBREC",
 135:Middlewares/Third_Party/LwIP/src/apps/mqtt/mqtt.c ****   "PUBREL",
 136:Middlewares/Third_Party/LwIP/src/apps/mqtt/mqtt.c ****   "PUBCOMP",
 137:Middlewares/Third_Party/LwIP/src/apps/mqtt/mqtt.c ****   "SUBSCRIBE",
 138:Middlewares/Third_Party/LwIP/src/apps/mqtt/mqtt.c ****   "SUBACK",
 139:Middlewares/Third_Party/LwIP/src/apps/mqtt/mqtt.c ****   "UNSUBSCRIBE",
 140:Middlewares/Third_Party/LwIP/src/apps/mqtt/mqtt.c ****   "UNSUBACK",
 141:Middlewares/Third_Party/LwIP/src/apps/mqtt/mqtt.c ****   "PINGREQ",
 142:Middlewares/Third_Party/LwIP/src/apps/mqtt/mqtt.c ****   "PINGRESP",
 143:Middlewares/Third_Party/LwIP/src/apps/mqtt/mqtt.c ****   "DISCONNECT"
 144:Middlewares/Third_Party/LwIP/src/apps/mqtt/mqtt.c **** };
 145:Middlewares/Third_Party/LwIP/src/apps/mqtt/mqtt.c **** 
ARM GAS  /tmp/ccVfyJBo.s 			page 4


 146:Middlewares/Third_Party/LwIP/src/apps/mqtt/mqtt.c **** /**
 147:Middlewares/Third_Party/LwIP/src/apps/mqtt/mqtt.c ****  * Message type value to string
 148:Middlewares/Third_Party/LwIP/src/apps/mqtt/mqtt.c ****  * @param msg_type see enum mqtt_message_type
 149:Middlewares/Third_Party/LwIP/src/apps/mqtt/mqtt.c ****  *
 150:Middlewares/Third_Party/LwIP/src/apps/mqtt/mqtt.c ****  * @return Control message type text string
 151:Middlewares/Third_Party/LwIP/src/apps/mqtt/mqtt.c ****  */
 152:Middlewares/Third_Party/LwIP/src/apps/mqtt/mqtt.c **** static const char *
 153:Middlewares/Third_Party/LwIP/src/apps/mqtt/mqtt.c **** mqtt_msg_type_to_str(u8_t msg_type)
 154:Middlewares/Third_Party/LwIP/src/apps/mqtt/mqtt.c **** {
 155:Middlewares/Third_Party/LwIP/src/apps/mqtt/mqtt.c ****   if (msg_type >= LWIP_ARRAYSIZE(mqtt_message_type_str)) {
 156:Middlewares/Third_Party/LwIP/src/apps/mqtt/mqtt.c ****     msg_type = 0;
 157:Middlewares/Third_Party/LwIP/src/apps/mqtt/mqtt.c ****   }
 158:Middlewares/Third_Party/LwIP/src/apps/mqtt/mqtt.c ****   return mqtt_message_type_str[msg_type];
 159:Middlewares/Third_Party/LwIP/src/apps/mqtt/mqtt.c **** }
 160:Middlewares/Third_Party/LwIP/src/apps/mqtt/mqtt.c **** 
 161:Middlewares/Third_Party/LwIP/src/apps/mqtt/mqtt.c **** #endif
 162:Middlewares/Third_Party/LwIP/src/apps/mqtt/mqtt.c **** 
 163:Middlewares/Third_Party/LwIP/src/apps/mqtt/mqtt.c **** 
 164:Middlewares/Third_Party/LwIP/src/apps/mqtt/mqtt.c **** /**
 165:Middlewares/Third_Party/LwIP/src/apps/mqtt/mqtt.c ****  * Generate MQTT packet identifier
 166:Middlewares/Third_Party/LwIP/src/apps/mqtt/mqtt.c ****  * @param client MQTT client
 167:Middlewares/Third_Party/LwIP/src/apps/mqtt/mqtt.c ****  * @return New packet identifier, range 1 to 65535
 168:Middlewares/Third_Party/LwIP/src/apps/mqtt/mqtt.c ****  */
 169:Middlewares/Third_Party/LwIP/src/apps/mqtt/mqtt.c **** static u16_t
 170:Middlewares/Third_Party/LwIP/src/apps/mqtt/mqtt.c **** msg_generate_packet_id(mqtt_client_t *client)
 171:Middlewares/Third_Party/LwIP/src/apps/mqtt/mqtt.c **** {
  28              		.loc 1 171 1 view -0
  29              		.cfi_startproc
  30              		@ args = 0, pretend = 0, frame = 0
  31              		@ frame_needed = 0, uses_anonymous_args = 0
  32              		@ link register save eliminated.
 172:Middlewares/Third_Party/LwIP/src/apps/mqtt/mqtt.c ****   client->pkt_id_seq++;
  33              		.loc 1 172 3 view .LVU1
  34              		.loc 1 172 9 is_stmt 0 view .LVU2
  35 0000 C388     		ldrh	r3, [r0, #6]
  36              		.loc 1 172 21 view .LVU3
  37 0002 0133     		adds	r3, r3, #1
  38 0004 9BB2     		uxth	r3, r3
  39 0006 C380     		strh	r3, [r0, #6]	@ movhi
 173:Middlewares/Third_Party/LwIP/src/apps/mqtt/mqtt.c ****   if (client->pkt_id_seq == 0) {
  40              		.loc 1 173 3 is_stmt 1 view .LVU4
  41              		.loc 1 173 6 is_stmt 0 view .LVU5
  42 0008 0BB9     		cbnz	r3, .L2
 174:Middlewares/Third_Party/LwIP/src/apps/mqtt/mqtt.c ****     client->pkt_id_seq++;
  43              		.loc 1 174 5 is_stmt 1 view .LVU6
  44              		.loc 1 174 23 is_stmt 0 view .LVU7
  45 000a 0133     		adds	r3, r3, #1
  46 000c C380     		strh	r3, [r0, #6]	@ movhi
  47              	.L2:
 175:Middlewares/Third_Party/LwIP/src/apps/mqtt/mqtt.c ****   }
 176:Middlewares/Third_Party/LwIP/src/apps/mqtt/mqtt.c ****   return client->pkt_id_seq;
  48              		.loc 1 176 3 is_stmt 1 view .LVU8
 177:Middlewares/Third_Party/LwIP/src/apps/mqtt/mqtt.c **** }
  49              		.loc 1 177 1 is_stmt 0 view .LVU9
  50 000e C088     		ldrh	r0, [r0, #6]
  51              	.LVL1:
  52              		.loc 1 177 1 view .LVU10
ARM GAS  /tmp/ccVfyJBo.s 			page 5


  53 0010 7047     		bx	lr
  54              		.cfi_endproc
  55              	.LFE167:
  57              		.section	.text.mqtt_ringbuf_put,"ax",%progbits
  58              		.align	1
  59              		.syntax unified
  60              		.thumb
  61              		.thumb_func
  63              	mqtt_ringbuf_put:
  64              	.LVL2:
  65              	.LFB168:
 178:Middlewares/Third_Party/LwIP/src/apps/mqtt/mqtt.c **** 
 179:Middlewares/Third_Party/LwIP/src/apps/mqtt/mqtt.c **** /*-------------------------------------------------------------------------------------------------
 180:Middlewares/Third_Party/LwIP/src/apps/mqtt/mqtt.c **** /* Output ring buffer */
 181:Middlewares/Third_Party/LwIP/src/apps/mqtt/mqtt.c **** 
 182:Middlewares/Third_Party/LwIP/src/apps/mqtt/mqtt.c **** /** Add single item to ring buffer */
 183:Middlewares/Third_Party/LwIP/src/apps/mqtt/mqtt.c **** static void
 184:Middlewares/Third_Party/LwIP/src/apps/mqtt/mqtt.c **** mqtt_ringbuf_put(struct mqtt_ringbuf_t *rb, u8_t item)
 185:Middlewares/Third_Party/LwIP/src/apps/mqtt/mqtt.c **** {
  66              		.loc 1 185 1 is_stmt 1 view -0
  67              		.cfi_startproc
  68              		@ args = 0, pretend = 0, frame = 0
  69              		@ frame_needed = 0, uses_anonymous_args = 0
  70              		@ link register save eliminated.
 186:Middlewares/Third_Party/LwIP/src/apps/mqtt/mqtt.c ****   rb->buf[rb->put] = item;
  71              		.loc 1 186 3 view .LVU12
  72              		.loc 1 186 13 is_stmt 0 view .LVU13
  73 0000 0388     		ldrh	r3, [r0]
  74              		.loc 1 186 20 view .LVU14
  75 0002 C218     		adds	r2, r0, r3
  76 0004 1171     		strb	r1, [r2, #4]
 187:Middlewares/Third_Party/LwIP/src/apps/mqtt/mqtt.c ****   rb->put++;
  77              		.loc 1 187 3 is_stmt 1 view .LVU15
  78              		.loc 1 187 10 is_stmt 0 view .LVU16
  79 0006 0133     		adds	r3, r3, #1
  80 0008 9BB2     		uxth	r3, r3
  81 000a 0380     		strh	r3, [r0]	@ movhi
 188:Middlewares/Third_Party/LwIP/src/apps/mqtt/mqtt.c ****   if (rb->put >= MQTT_OUTPUT_RINGBUF_SIZE) {
  82              		.loc 1 188 3 is_stmt 1 view .LVU17
  83              		.loc 1 188 6 is_stmt 0 view .LVU18
  84 000c FF2B     		cmp	r3, #255
  85 000e 01D9     		bls	.L3
 189:Middlewares/Third_Party/LwIP/src/apps/mqtt/mqtt.c ****     rb->put = 0;
  86              		.loc 1 189 5 is_stmt 1 view .LVU19
  87              		.loc 1 189 13 is_stmt 0 view .LVU20
  88 0010 0023     		movs	r3, #0
  89 0012 0380     		strh	r3, [r0]	@ movhi
  90              	.L3:
 190:Middlewares/Third_Party/LwIP/src/apps/mqtt/mqtt.c ****   }
 191:Middlewares/Third_Party/LwIP/src/apps/mqtt/mqtt.c **** }
  91              		.loc 1 191 1 view .LVU21
  92 0014 7047     		bx	lr
  93              		.cfi_endproc
  94              	.LFE168:
  96              		.section	.text.mqtt_ringbuf_get_ptr,"ax",%progbits
  97              		.align	1
  98              		.syntax unified
ARM GAS  /tmp/ccVfyJBo.s 			page 6


  99              		.thumb
 100              		.thumb_func
 102              	mqtt_ringbuf_get_ptr:
 103              	.LVL3:
 104              	.LFB169:
 192:Middlewares/Third_Party/LwIP/src/apps/mqtt/mqtt.c **** 
 193:Middlewares/Third_Party/LwIP/src/apps/mqtt/mqtt.c **** /** Return pointer to ring buffer get position */
 194:Middlewares/Third_Party/LwIP/src/apps/mqtt/mqtt.c **** static u8_t *
 195:Middlewares/Third_Party/LwIP/src/apps/mqtt/mqtt.c **** mqtt_ringbuf_get_ptr(struct mqtt_ringbuf_t *rb)
 196:Middlewares/Third_Party/LwIP/src/apps/mqtt/mqtt.c **** {
 105              		.loc 1 196 1 is_stmt 1 view -0
 106              		.cfi_startproc
 107              		@ args = 0, pretend = 0, frame = 0
 108              		@ frame_needed = 0, uses_anonymous_args = 0
 109              		@ link register save eliminated.
 197:Middlewares/Third_Party/LwIP/src/apps/mqtt/mqtt.c ****   return &rb->buf[rb->get];
 110              		.loc 1 197 3 view .LVU23
 111              		.loc 1 197 21 is_stmt 0 view .LVU24
 112 0000 4388     		ldrh	r3, [r0, #2]
 113              		.loc 1 197 10 view .LVU25
 114 0002 1844     		add	r0, r0, r3
 115              	.LVL4:
 198:Middlewares/Third_Party/LwIP/src/apps/mqtt/mqtt.c **** }
 116              		.loc 1 198 1 view .LVU26
 117 0004 0430     		adds	r0, r0, #4
 118 0006 7047     		bx	lr
 119              		.cfi_endproc
 120              	.LFE169:
 122              		.section	.text.mqtt_ringbuf_len,"ax",%progbits
 123              		.align	1
 124              		.syntax unified
 125              		.thumb
 126              		.thumb_func
 128              	mqtt_ringbuf_len:
 129              	.LVL5:
 130              	.LFB171:
 199:Middlewares/Third_Party/LwIP/src/apps/mqtt/mqtt.c **** 
 200:Middlewares/Third_Party/LwIP/src/apps/mqtt/mqtt.c **** static void
 201:Middlewares/Third_Party/LwIP/src/apps/mqtt/mqtt.c **** mqtt_ringbuf_advance_get_idx(struct mqtt_ringbuf_t *rb, u16_t len)
 202:Middlewares/Third_Party/LwIP/src/apps/mqtt/mqtt.c **** {
 203:Middlewares/Third_Party/LwIP/src/apps/mqtt/mqtt.c ****   LWIP_ASSERT("mqtt_ringbuf_advance_get_idx: len < MQTT_OUTPUT_RINGBUF_SIZE", len < MQTT_OUTPUT_RIN
 204:Middlewares/Third_Party/LwIP/src/apps/mqtt/mqtt.c **** 
 205:Middlewares/Third_Party/LwIP/src/apps/mqtt/mqtt.c ****   rb->get += len;
 206:Middlewares/Third_Party/LwIP/src/apps/mqtt/mqtt.c ****   if (rb->get >= MQTT_OUTPUT_RINGBUF_SIZE) {
 207:Middlewares/Third_Party/LwIP/src/apps/mqtt/mqtt.c ****     rb->get = rb->get - MQTT_OUTPUT_RINGBUF_SIZE;
 208:Middlewares/Third_Party/LwIP/src/apps/mqtt/mqtt.c ****   }
 209:Middlewares/Third_Party/LwIP/src/apps/mqtt/mqtt.c **** }
 210:Middlewares/Third_Party/LwIP/src/apps/mqtt/mqtt.c **** 
 211:Middlewares/Third_Party/LwIP/src/apps/mqtt/mqtt.c **** /** Return number of bytes in ring buffer */
 212:Middlewares/Third_Party/LwIP/src/apps/mqtt/mqtt.c **** static u16_t
 213:Middlewares/Third_Party/LwIP/src/apps/mqtt/mqtt.c **** mqtt_ringbuf_len(struct mqtt_ringbuf_t *rb)
 214:Middlewares/Third_Party/LwIP/src/apps/mqtt/mqtt.c **** {
 131              		.loc 1 214 1 is_stmt 1 view -0
 132              		.cfi_startproc
 133              		@ args = 0, pretend = 0, frame = 0
 134              		@ frame_needed = 0, uses_anonymous_args = 0
 135              		@ link register save eliminated.
ARM GAS  /tmp/ccVfyJBo.s 			page 7


 215:Middlewares/Third_Party/LwIP/src/apps/mqtt/mqtt.c ****   u32_t len = rb->put - rb->get;
 136              		.loc 1 215 3 view .LVU28
 137              		.loc 1 215 17 is_stmt 0 view .LVU29
 138 0000 0388     		ldrh	r3, [r0]
 139              		.loc 1 215 27 view .LVU30
 140 0002 4088     		ldrh	r0, [r0, #2]
 141              	.LVL6:
 142              		.loc 1 215 23 view .LVU31
 143 0004 181A     		subs	r0, r3, r0
 144              	.LVL7:
 216:Middlewares/Third_Party/LwIP/src/apps/mqtt/mqtt.c ****   if (len > 0xFFFF) {
 145              		.loc 1 216 3 is_stmt 1 view .LVU32
 146              		.loc 1 216 6 is_stmt 0 view .LVU33
 147 0006 B0F5803F 		cmp	r0, #65536
 148 000a 01D3     		bcc	.L7
 217:Middlewares/Third_Party/LwIP/src/apps/mqtt/mqtt.c ****     len += MQTT_OUTPUT_RINGBUF_SIZE;
 149              		.loc 1 217 5 is_stmt 1 view .LVU34
 150              		.loc 1 217 9 is_stmt 0 view .LVU35
 151 000c 00F58070 		add	r0, r0, #256
 152              	.LVL8:
 153              	.L7:
 218:Middlewares/Third_Party/LwIP/src/apps/mqtt/mqtt.c ****   }
 219:Middlewares/Third_Party/LwIP/src/apps/mqtt/mqtt.c ****   return (u16_t)len;
 154              		.loc 1 219 3 is_stmt 1 view .LVU36
 220:Middlewares/Third_Party/LwIP/src/apps/mqtt/mqtt.c **** }
 155              		.loc 1 220 1 is_stmt 0 view .LVU37
 156 0010 80B2     		uxth	r0, r0
 157              	.LVL9:
 158              		.loc 1 220 1 view .LVU38
 159 0012 7047     		bx	lr
 160              		.cfi_endproc
 161              	.LFE171:
 163              		.section	.text.mqtt_delete_request,"ax",%progbits
 164              		.align	1
 165              		.syntax unified
 166              		.thumb
 167              		.thumb_func
 169              	mqtt_delete_request:
 170              	.LVL10:
 171              	.LFB175:
 221:Middlewares/Third_Party/LwIP/src/apps/mqtt/mqtt.c **** 
 222:Middlewares/Third_Party/LwIP/src/apps/mqtt/mqtt.c **** /** Return number of bytes free in ring buffer */
 223:Middlewares/Third_Party/LwIP/src/apps/mqtt/mqtt.c **** #define mqtt_ringbuf_free(rb) (MQTT_OUTPUT_RINGBUF_SIZE - mqtt_ringbuf_len(rb))
 224:Middlewares/Third_Party/LwIP/src/apps/mqtt/mqtt.c **** 
 225:Middlewares/Third_Party/LwIP/src/apps/mqtt/mqtt.c **** /** Return number of bytes possible to read without wrapping around */
 226:Middlewares/Third_Party/LwIP/src/apps/mqtt/mqtt.c **** #define mqtt_ringbuf_linear_read_length(rb) LWIP_MIN(mqtt_ringbuf_len(rb), (MQTT_OUTPUT_RINGBUF_SIZ
 227:Middlewares/Third_Party/LwIP/src/apps/mqtt/mqtt.c **** 
 228:Middlewares/Third_Party/LwIP/src/apps/mqtt/mqtt.c **** /**
 229:Middlewares/Third_Party/LwIP/src/apps/mqtt/mqtt.c ****  * Try send as many bytes as possible from output ring buffer
 230:Middlewares/Third_Party/LwIP/src/apps/mqtt/mqtt.c ****  * @param rb Output ring buffer
 231:Middlewares/Third_Party/LwIP/src/apps/mqtt/mqtt.c ****  * @param tpcb TCP connection handle
 232:Middlewares/Third_Party/LwIP/src/apps/mqtt/mqtt.c ****  */
 233:Middlewares/Third_Party/LwIP/src/apps/mqtt/mqtt.c **** static void
 234:Middlewares/Third_Party/LwIP/src/apps/mqtt/mqtt.c **** mqtt_output_send(struct mqtt_ringbuf_t *rb, struct altcp_pcb *tpcb)
 235:Middlewares/Third_Party/LwIP/src/apps/mqtt/mqtt.c **** {
 236:Middlewares/Third_Party/LwIP/src/apps/mqtt/mqtt.c ****   err_t err;
 237:Middlewares/Third_Party/LwIP/src/apps/mqtt/mqtt.c ****   u8_t wrap = 0;
ARM GAS  /tmp/ccVfyJBo.s 			page 8


 238:Middlewares/Third_Party/LwIP/src/apps/mqtt/mqtt.c ****   u16_t ringbuf_lin_len = mqtt_ringbuf_linear_read_length(rb);
 239:Middlewares/Third_Party/LwIP/src/apps/mqtt/mqtt.c ****   u16_t send_len = altcp_sndbuf(tpcb);
 240:Middlewares/Third_Party/LwIP/src/apps/mqtt/mqtt.c ****   LWIP_ASSERT("mqtt_output_send: tpcb != NULL", tpcb != NULL);
 241:Middlewares/Third_Party/LwIP/src/apps/mqtt/mqtt.c **** 
 242:Middlewares/Third_Party/LwIP/src/apps/mqtt/mqtt.c ****   if (send_len == 0 || ringbuf_lin_len == 0) {
 243:Middlewares/Third_Party/LwIP/src/apps/mqtt/mqtt.c ****     return;
 244:Middlewares/Third_Party/LwIP/src/apps/mqtt/mqtt.c ****   }
 245:Middlewares/Third_Party/LwIP/src/apps/mqtt/mqtt.c **** 
 246:Middlewares/Third_Party/LwIP/src/apps/mqtt/mqtt.c ****   LWIP_DEBUGF(MQTT_DEBUG_TRACE, ("mqtt_output_send: tcp_sndbuf: %d bytes, ringbuf_linear_available:
 247:Middlewares/Third_Party/LwIP/src/apps/mqtt/mqtt.c ****                                  send_len, ringbuf_lin_len, rb->get, rb->put));
 248:Middlewares/Third_Party/LwIP/src/apps/mqtt/mqtt.c **** 
 249:Middlewares/Third_Party/LwIP/src/apps/mqtt/mqtt.c ****   if (send_len > ringbuf_lin_len) {
 250:Middlewares/Third_Party/LwIP/src/apps/mqtt/mqtt.c ****     /* Space in TCP output buffer is larger than available in ring buffer linear portion */
 251:Middlewares/Third_Party/LwIP/src/apps/mqtt/mqtt.c ****     send_len = ringbuf_lin_len;
 252:Middlewares/Third_Party/LwIP/src/apps/mqtt/mqtt.c ****     /* Wrap around if more data in ring buffer after linear portion */
 253:Middlewares/Third_Party/LwIP/src/apps/mqtt/mqtt.c ****     wrap = (mqtt_ringbuf_len(rb) > ringbuf_lin_len);
 254:Middlewares/Third_Party/LwIP/src/apps/mqtt/mqtt.c ****   }
 255:Middlewares/Third_Party/LwIP/src/apps/mqtt/mqtt.c ****   err = altcp_write(tpcb, mqtt_ringbuf_get_ptr(rb), send_len, TCP_WRITE_FLAG_COPY | (wrap ? TCP_WRI
 256:Middlewares/Third_Party/LwIP/src/apps/mqtt/mqtt.c ****   if ((err == ERR_OK) && wrap) {
 257:Middlewares/Third_Party/LwIP/src/apps/mqtt/mqtt.c ****     mqtt_ringbuf_advance_get_idx(rb, send_len);
 258:Middlewares/Third_Party/LwIP/src/apps/mqtt/mqtt.c ****     /* Use the lesser one of ring buffer linear length and TCP send buffer size */
 259:Middlewares/Third_Party/LwIP/src/apps/mqtt/mqtt.c ****     send_len = LWIP_MIN(altcp_sndbuf(tpcb), mqtt_ringbuf_linear_read_length(rb));
 260:Middlewares/Third_Party/LwIP/src/apps/mqtt/mqtt.c ****     err = altcp_write(tpcb, mqtt_ringbuf_get_ptr(rb), send_len, TCP_WRITE_FLAG_COPY);
 261:Middlewares/Third_Party/LwIP/src/apps/mqtt/mqtt.c ****   }
 262:Middlewares/Third_Party/LwIP/src/apps/mqtt/mqtt.c **** 
 263:Middlewares/Third_Party/LwIP/src/apps/mqtt/mqtt.c ****   if (err == ERR_OK) {
 264:Middlewares/Third_Party/LwIP/src/apps/mqtt/mqtt.c ****     mqtt_ringbuf_advance_get_idx(rb, send_len);
 265:Middlewares/Third_Party/LwIP/src/apps/mqtt/mqtt.c ****     /* Flush */
 266:Middlewares/Third_Party/LwIP/src/apps/mqtt/mqtt.c ****     altcp_output(tpcb);
 267:Middlewares/Third_Party/LwIP/src/apps/mqtt/mqtt.c ****   } else {
 268:Middlewares/Third_Party/LwIP/src/apps/mqtt/mqtt.c ****     LWIP_DEBUGF(MQTT_DEBUG_WARN, ("mqtt_output_send: Send failed with err %d (\"%s\")\n", err, lwip
 269:Middlewares/Third_Party/LwIP/src/apps/mqtt/mqtt.c ****   }
 270:Middlewares/Third_Party/LwIP/src/apps/mqtt/mqtt.c **** }
 271:Middlewares/Third_Party/LwIP/src/apps/mqtt/mqtt.c **** 
 272:Middlewares/Third_Party/LwIP/src/apps/mqtt/mqtt.c **** 
 273:Middlewares/Third_Party/LwIP/src/apps/mqtt/mqtt.c **** 
 274:Middlewares/Third_Party/LwIP/src/apps/mqtt/mqtt.c **** /*-------------------------------------------------------------------------------------------------
 275:Middlewares/Third_Party/LwIP/src/apps/mqtt/mqtt.c **** /* Request queue */
 276:Middlewares/Third_Party/LwIP/src/apps/mqtt/mqtt.c **** 
 277:Middlewares/Third_Party/LwIP/src/apps/mqtt/mqtt.c **** /**
 278:Middlewares/Third_Party/LwIP/src/apps/mqtt/mqtt.c ****  * Create request item
 279:Middlewares/Third_Party/LwIP/src/apps/mqtt/mqtt.c ****  * @param r_objs Pointer to request objects
 280:Middlewares/Third_Party/LwIP/src/apps/mqtt/mqtt.c ****  * @param r_objs_len Number of array entries
 281:Middlewares/Third_Party/LwIP/src/apps/mqtt/mqtt.c ****  * @param pkt_id Packet identifier of request
 282:Middlewares/Third_Party/LwIP/src/apps/mqtt/mqtt.c ****  * @param cb Packet callback to call when requests lifetime ends
 283:Middlewares/Third_Party/LwIP/src/apps/mqtt/mqtt.c ****  * @param arg Parameter following callback
 284:Middlewares/Third_Party/LwIP/src/apps/mqtt/mqtt.c ****  * @return Request or NULL if failed to create
 285:Middlewares/Third_Party/LwIP/src/apps/mqtt/mqtt.c ****  */
 286:Middlewares/Third_Party/LwIP/src/apps/mqtt/mqtt.c **** static struct mqtt_request_t *
 287:Middlewares/Third_Party/LwIP/src/apps/mqtt/mqtt.c **** mqtt_create_request(struct mqtt_request_t *r_objs, size_t r_objs_len, u16_t pkt_id, mqtt_request_cb
 288:Middlewares/Third_Party/LwIP/src/apps/mqtt/mqtt.c **** {
 289:Middlewares/Third_Party/LwIP/src/apps/mqtt/mqtt.c ****   struct mqtt_request_t *r = NULL;
 290:Middlewares/Third_Party/LwIP/src/apps/mqtt/mqtt.c ****   u8_t n;
 291:Middlewares/Third_Party/LwIP/src/apps/mqtt/mqtt.c ****   LWIP_ASSERT("mqtt_create_request: r_objs != NULL", r_objs != NULL);
 292:Middlewares/Third_Party/LwIP/src/apps/mqtt/mqtt.c ****   for (n = 0; n < r_objs_len; n++) {
 293:Middlewares/Third_Party/LwIP/src/apps/mqtt/mqtt.c ****     /* Item point to itself if not in use */
 294:Middlewares/Third_Party/LwIP/src/apps/mqtt/mqtt.c ****     if (r_objs[n].next == &r_objs[n]) {
ARM GAS  /tmp/ccVfyJBo.s 			page 9


 295:Middlewares/Third_Party/LwIP/src/apps/mqtt/mqtt.c ****       r = &r_objs[n];
 296:Middlewares/Third_Party/LwIP/src/apps/mqtt/mqtt.c ****       r->next = NULL;
 297:Middlewares/Third_Party/LwIP/src/apps/mqtt/mqtt.c ****       r->cb = cb;
 298:Middlewares/Third_Party/LwIP/src/apps/mqtt/mqtt.c ****       r->arg = arg;
 299:Middlewares/Third_Party/LwIP/src/apps/mqtt/mqtt.c ****       r->pkt_id = pkt_id;
 300:Middlewares/Third_Party/LwIP/src/apps/mqtt/mqtt.c ****       break;
 301:Middlewares/Third_Party/LwIP/src/apps/mqtt/mqtt.c ****     }
 302:Middlewares/Third_Party/LwIP/src/apps/mqtt/mqtt.c ****   }
 303:Middlewares/Third_Party/LwIP/src/apps/mqtt/mqtt.c ****   return r;
 304:Middlewares/Third_Party/LwIP/src/apps/mqtt/mqtt.c **** }
 305:Middlewares/Third_Party/LwIP/src/apps/mqtt/mqtt.c **** 
 306:Middlewares/Third_Party/LwIP/src/apps/mqtt/mqtt.c **** 
 307:Middlewares/Third_Party/LwIP/src/apps/mqtt/mqtt.c **** /**
 308:Middlewares/Third_Party/LwIP/src/apps/mqtt/mqtt.c ****  * Append request to pending request queue
 309:Middlewares/Third_Party/LwIP/src/apps/mqtt/mqtt.c ****  * @param tail Pointer to request queue tail pointer
 310:Middlewares/Third_Party/LwIP/src/apps/mqtt/mqtt.c ****  * @param r Request to append
 311:Middlewares/Third_Party/LwIP/src/apps/mqtt/mqtt.c ****  */
 312:Middlewares/Third_Party/LwIP/src/apps/mqtt/mqtt.c **** static void
 313:Middlewares/Third_Party/LwIP/src/apps/mqtt/mqtt.c **** mqtt_append_request(struct mqtt_request_t **tail, struct mqtt_request_t *r)
 314:Middlewares/Third_Party/LwIP/src/apps/mqtt/mqtt.c **** {
 315:Middlewares/Third_Party/LwIP/src/apps/mqtt/mqtt.c ****   struct mqtt_request_t *head = NULL;
 316:Middlewares/Third_Party/LwIP/src/apps/mqtt/mqtt.c ****   s16_t time_before = 0;
 317:Middlewares/Third_Party/LwIP/src/apps/mqtt/mqtt.c ****   struct mqtt_request_t *iter;
 318:Middlewares/Third_Party/LwIP/src/apps/mqtt/mqtt.c **** 
 319:Middlewares/Third_Party/LwIP/src/apps/mqtt/mqtt.c ****   LWIP_ASSERT("mqtt_append_request: tail != NULL", tail != NULL);
 320:Middlewares/Third_Party/LwIP/src/apps/mqtt/mqtt.c **** 
 321:Middlewares/Third_Party/LwIP/src/apps/mqtt/mqtt.c ****   /* Iterate trough queue to find head, and count total timeout time */
 322:Middlewares/Third_Party/LwIP/src/apps/mqtt/mqtt.c ****   for (iter = *tail; iter != NULL; iter = iter->next) {
 323:Middlewares/Third_Party/LwIP/src/apps/mqtt/mqtt.c ****     time_before += iter->timeout_diff;
 324:Middlewares/Third_Party/LwIP/src/apps/mqtt/mqtt.c ****     head = iter;
 325:Middlewares/Third_Party/LwIP/src/apps/mqtt/mqtt.c ****   }
 326:Middlewares/Third_Party/LwIP/src/apps/mqtt/mqtt.c **** 
 327:Middlewares/Third_Party/LwIP/src/apps/mqtt/mqtt.c ****   LWIP_ASSERT("mqtt_append_request: time_before <= MQTT_REQ_TIMEOUT", time_before <= MQTT_REQ_TIMEO
 328:Middlewares/Third_Party/LwIP/src/apps/mqtt/mqtt.c ****   r->timeout_diff = MQTT_REQ_TIMEOUT - time_before;
 329:Middlewares/Third_Party/LwIP/src/apps/mqtt/mqtt.c ****   if (head == NULL) {
 330:Middlewares/Third_Party/LwIP/src/apps/mqtt/mqtt.c ****     *tail = r;
 331:Middlewares/Third_Party/LwIP/src/apps/mqtt/mqtt.c ****   } else {
 332:Middlewares/Third_Party/LwIP/src/apps/mqtt/mqtt.c ****     head->next = r;
 333:Middlewares/Third_Party/LwIP/src/apps/mqtt/mqtt.c ****   }
 334:Middlewares/Third_Party/LwIP/src/apps/mqtt/mqtt.c **** }
 335:Middlewares/Third_Party/LwIP/src/apps/mqtt/mqtt.c **** 
 336:Middlewares/Third_Party/LwIP/src/apps/mqtt/mqtt.c **** 
 337:Middlewares/Third_Party/LwIP/src/apps/mqtt/mqtt.c **** /**
 338:Middlewares/Third_Party/LwIP/src/apps/mqtt/mqtt.c ****  * Delete request item
 339:Middlewares/Third_Party/LwIP/src/apps/mqtt/mqtt.c ****  * @param r Request item to delete
 340:Middlewares/Third_Party/LwIP/src/apps/mqtt/mqtt.c ****  */
 341:Middlewares/Third_Party/LwIP/src/apps/mqtt/mqtt.c **** static void
 342:Middlewares/Third_Party/LwIP/src/apps/mqtt/mqtt.c **** mqtt_delete_request(struct mqtt_request_t *r)
 343:Middlewares/Third_Party/LwIP/src/apps/mqtt/mqtt.c **** {
 172              		.loc 1 343 1 is_stmt 1 view -0
 173              		.cfi_startproc
 174              		@ args = 0, pretend = 0, frame = 0
 175              		@ frame_needed = 0, uses_anonymous_args = 0
 176              		@ link register save eliminated.
 344:Middlewares/Third_Party/LwIP/src/apps/mqtt/mqtt.c ****   if (r != NULL) {
 177              		.loc 1 344 3 view .LVU40
 178              		.loc 1 344 6 is_stmt 0 view .LVU41
ARM GAS  /tmp/ccVfyJBo.s 			page 10


 179 0000 0346     		mov	r3, r0
 180 0002 00B1     		cbz	r0, .L8
 345:Middlewares/Third_Party/LwIP/src/apps/mqtt/mqtt.c ****     r->next = r;
 181              		.loc 1 345 5 is_stmt 1 view .LVU42
 182              		.loc 1 345 13 is_stmt 0 view .LVU43
 183 0004 1860     		str	r0, [r3]
 184              	.L8:
 346:Middlewares/Third_Party/LwIP/src/apps/mqtt/mqtt.c ****   }
 347:Middlewares/Third_Party/LwIP/src/apps/mqtt/mqtt.c **** }
 185              		.loc 1 347 1 view .LVU44
 186 0006 7047     		bx	lr
 187              		.cfi_endproc
 188              	.LFE175:
 190              		.section	.text.mqtt_output_append_u8,"ax",%progbits
 191              		.align	1
 192              		.syntax unified
 193              		.thumb
 194              		.thumb_func
 196              	mqtt_output_append_u8:
 197              	.LVL11:
 198              	.LFB180:
 348:Middlewares/Third_Party/LwIP/src/apps/mqtt/mqtt.c **** 
 349:Middlewares/Third_Party/LwIP/src/apps/mqtt/mqtt.c **** /**
 350:Middlewares/Third_Party/LwIP/src/apps/mqtt/mqtt.c ****  * Remove a request item with a specific packet identifier from request queue
 351:Middlewares/Third_Party/LwIP/src/apps/mqtt/mqtt.c ****  * @param tail Pointer to request queue tail pointer
 352:Middlewares/Third_Party/LwIP/src/apps/mqtt/mqtt.c ****  * @param pkt_id Packet identifier of request to take
 353:Middlewares/Third_Party/LwIP/src/apps/mqtt/mqtt.c ****  * @return Request item if found, NULL if not
 354:Middlewares/Third_Party/LwIP/src/apps/mqtt/mqtt.c ****  */
 355:Middlewares/Third_Party/LwIP/src/apps/mqtt/mqtt.c **** static struct mqtt_request_t *
 356:Middlewares/Third_Party/LwIP/src/apps/mqtt/mqtt.c **** mqtt_take_request(struct mqtt_request_t **tail, u16_t pkt_id)
 357:Middlewares/Third_Party/LwIP/src/apps/mqtt/mqtt.c **** {
 358:Middlewares/Third_Party/LwIP/src/apps/mqtt/mqtt.c ****   struct mqtt_request_t *iter = NULL, *prev = NULL;
 359:Middlewares/Third_Party/LwIP/src/apps/mqtt/mqtt.c ****   LWIP_ASSERT("mqtt_take_request: tail != NULL", tail != NULL);
 360:Middlewares/Third_Party/LwIP/src/apps/mqtt/mqtt.c ****   /* Search all request for pkt_id */
 361:Middlewares/Third_Party/LwIP/src/apps/mqtt/mqtt.c ****   for (iter = *tail; iter != NULL; iter = iter->next) {
 362:Middlewares/Third_Party/LwIP/src/apps/mqtt/mqtt.c ****     if (iter->pkt_id == pkt_id) {
 363:Middlewares/Third_Party/LwIP/src/apps/mqtt/mqtt.c ****       break;
 364:Middlewares/Third_Party/LwIP/src/apps/mqtt/mqtt.c ****     }
 365:Middlewares/Third_Party/LwIP/src/apps/mqtt/mqtt.c ****     prev = iter;
 366:Middlewares/Third_Party/LwIP/src/apps/mqtt/mqtt.c ****   }
 367:Middlewares/Third_Party/LwIP/src/apps/mqtt/mqtt.c **** 
 368:Middlewares/Third_Party/LwIP/src/apps/mqtt/mqtt.c ****   /* If request was found */
 369:Middlewares/Third_Party/LwIP/src/apps/mqtt/mqtt.c ****   if (iter != NULL) {
 370:Middlewares/Third_Party/LwIP/src/apps/mqtt/mqtt.c ****     /* unchain */
 371:Middlewares/Third_Party/LwIP/src/apps/mqtt/mqtt.c ****     if (prev == NULL) {
 372:Middlewares/Third_Party/LwIP/src/apps/mqtt/mqtt.c ****       *tail = iter->next;
 373:Middlewares/Third_Party/LwIP/src/apps/mqtt/mqtt.c ****     } else {
 374:Middlewares/Third_Party/LwIP/src/apps/mqtt/mqtt.c ****       prev->next = iter->next;
 375:Middlewares/Third_Party/LwIP/src/apps/mqtt/mqtt.c ****     }
 376:Middlewares/Third_Party/LwIP/src/apps/mqtt/mqtt.c ****     /* If exists, add remaining timeout time for the request to next */
 377:Middlewares/Third_Party/LwIP/src/apps/mqtt/mqtt.c ****     if (iter->next != NULL) {
 378:Middlewares/Third_Party/LwIP/src/apps/mqtt/mqtt.c ****       iter->next->timeout_diff += iter->timeout_diff;
 379:Middlewares/Third_Party/LwIP/src/apps/mqtt/mqtt.c ****     }
 380:Middlewares/Third_Party/LwIP/src/apps/mqtt/mqtt.c ****     iter->next = NULL;
 381:Middlewares/Third_Party/LwIP/src/apps/mqtt/mqtt.c ****   }
 382:Middlewares/Third_Party/LwIP/src/apps/mqtt/mqtt.c ****   return iter;
 383:Middlewares/Third_Party/LwIP/src/apps/mqtt/mqtt.c **** }
ARM GAS  /tmp/ccVfyJBo.s 			page 11


 384:Middlewares/Third_Party/LwIP/src/apps/mqtt/mqtt.c **** 
 385:Middlewares/Third_Party/LwIP/src/apps/mqtt/mqtt.c **** /**
 386:Middlewares/Third_Party/LwIP/src/apps/mqtt/mqtt.c ****  * Handle requests timeout
 387:Middlewares/Third_Party/LwIP/src/apps/mqtt/mqtt.c ****  * @param tail Pointer to request queue tail pointer
 388:Middlewares/Third_Party/LwIP/src/apps/mqtt/mqtt.c ****  * @param t Time since last call in seconds
 389:Middlewares/Third_Party/LwIP/src/apps/mqtt/mqtt.c ****  */
 390:Middlewares/Third_Party/LwIP/src/apps/mqtt/mqtt.c **** static void
 391:Middlewares/Third_Party/LwIP/src/apps/mqtt/mqtt.c **** mqtt_request_time_elapsed(struct mqtt_request_t **tail, u8_t t)
 392:Middlewares/Third_Party/LwIP/src/apps/mqtt/mqtt.c **** {
 393:Middlewares/Third_Party/LwIP/src/apps/mqtt/mqtt.c ****   struct mqtt_request_t *r;
 394:Middlewares/Third_Party/LwIP/src/apps/mqtt/mqtt.c ****   LWIP_ASSERT("mqtt_request_time_elapsed: tail != NULL", tail != NULL);
 395:Middlewares/Third_Party/LwIP/src/apps/mqtt/mqtt.c ****   r = *tail;
 396:Middlewares/Third_Party/LwIP/src/apps/mqtt/mqtt.c ****   while (t > 0 && r != NULL) {
 397:Middlewares/Third_Party/LwIP/src/apps/mqtt/mqtt.c ****     if (t >= r->timeout_diff) {
 398:Middlewares/Third_Party/LwIP/src/apps/mqtt/mqtt.c ****       t -= (u8_t)r->timeout_diff;
 399:Middlewares/Third_Party/LwIP/src/apps/mqtt/mqtt.c ****       /* Unchain */
 400:Middlewares/Third_Party/LwIP/src/apps/mqtt/mqtt.c ****       *tail = r->next;
 401:Middlewares/Third_Party/LwIP/src/apps/mqtt/mqtt.c ****       /* Notify upper layer about timeout */
 402:Middlewares/Third_Party/LwIP/src/apps/mqtt/mqtt.c ****       if (r->cb != NULL) {
 403:Middlewares/Third_Party/LwIP/src/apps/mqtt/mqtt.c ****         r->cb(r->arg, ERR_TIMEOUT);
 404:Middlewares/Third_Party/LwIP/src/apps/mqtt/mqtt.c ****       }
 405:Middlewares/Third_Party/LwIP/src/apps/mqtt/mqtt.c ****       mqtt_delete_request(r);
 406:Middlewares/Third_Party/LwIP/src/apps/mqtt/mqtt.c ****       /* Tail might be be modified in callback, so re-read it in every iteration */
 407:Middlewares/Third_Party/LwIP/src/apps/mqtt/mqtt.c ****       r = *(struct mqtt_request_t *const volatile *)tail;
 408:Middlewares/Third_Party/LwIP/src/apps/mqtt/mqtt.c ****     } else {
 409:Middlewares/Third_Party/LwIP/src/apps/mqtt/mqtt.c ****       r->timeout_diff -= t;
 410:Middlewares/Third_Party/LwIP/src/apps/mqtt/mqtt.c ****       t = 0;
 411:Middlewares/Third_Party/LwIP/src/apps/mqtt/mqtt.c ****     }
 412:Middlewares/Third_Party/LwIP/src/apps/mqtt/mqtt.c ****   }
 413:Middlewares/Third_Party/LwIP/src/apps/mqtt/mqtt.c **** }
 414:Middlewares/Third_Party/LwIP/src/apps/mqtt/mqtt.c **** 
 415:Middlewares/Third_Party/LwIP/src/apps/mqtt/mqtt.c **** /**
 416:Middlewares/Third_Party/LwIP/src/apps/mqtt/mqtt.c ****  * Free all request items
 417:Middlewares/Third_Party/LwIP/src/apps/mqtt/mqtt.c ****  * @param tail Pointer to request queue tail pointer
 418:Middlewares/Third_Party/LwIP/src/apps/mqtt/mqtt.c ****  */
 419:Middlewares/Third_Party/LwIP/src/apps/mqtt/mqtt.c **** static void
 420:Middlewares/Third_Party/LwIP/src/apps/mqtt/mqtt.c **** mqtt_clear_requests(struct mqtt_request_t **tail)
 421:Middlewares/Third_Party/LwIP/src/apps/mqtt/mqtt.c **** {
 422:Middlewares/Third_Party/LwIP/src/apps/mqtt/mqtt.c ****   struct mqtt_request_t *iter, *next;
 423:Middlewares/Third_Party/LwIP/src/apps/mqtt/mqtt.c ****   LWIP_ASSERT("mqtt_clear_requests: tail != NULL", tail != NULL);
 424:Middlewares/Third_Party/LwIP/src/apps/mqtt/mqtt.c ****   for (iter = *tail; iter != NULL; iter = next) {
 425:Middlewares/Third_Party/LwIP/src/apps/mqtt/mqtt.c ****     next = iter->next;
 426:Middlewares/Third_Party/LwIP/src/apps/mqtt/mqtt.c ****     mqtt_delete_request(iter);
 427:Middlewares/Third_Party/LwIP/src/apps/mqtt/mqtt.c ****   }
 428:Middlewares/Third_Party/LwIP/src/apps/mqtt/mqtt.c ****   *tail = NULL;
 429:Middlewares/Third_Party/LwIP/src/apps/mqtt/mqtt.c **** }
 430:Middlewares/Third_Party/LwIP/src/apps/mqtt/mqtt.c **** /**
 431:Middlewares/Third_Party/LwIP/src/apps/mqtt/mqtt.c ****  * Initialize all request items
 432:Middlewares/Third_Party/LwIP/src/apps/mqtt/mqtt.c ****  * @param r_objs Pointer to request objects
 433:Middlewares/Third_Party/LwIP/src/apps/mqtt/mqtt.c ****  * @param r_objs_len Number of array entries
 434:Middlewares/Third_Party/LwIP/src/apps/mqtt/mqtt.c ****  */
 435:Middlewares/Third_Party/LwIP/src/apps/mqtt/mqtt.c **** static void
 436:Middlewares/Third_Party/LwIP/src/apps/mqtt/mqtt.c **** mqtt_init_requests(struct mqtt_request_t *r_objs, size_t r_objs_len)
 437:Middlewares/Third_Party/LwIP/src/apps/mqtt/mqtt.c **** {
 438:Middlewares/Third_Party/LwIP/src/apps/mqtt/mqtt.c ****   u8_t n;
 439:Middlewares/Third_Party/LwIP/src/apps/mqtt/mqtt.c ****   LWIP_ASSERT("mqtt_init_requests: r_objs != NULL", r_objs != NULL);
 440:Middlewares/Third_Party/LwIP/src/apps/mqtt/mqtt.c ****   for (n = 0; n < r_objs_len; n++) {
ARM GAS  /tmp/ccVfyJBo.s 			page 12


 441:Middlewares/Third_Party/LwIP/src/apps/mqtt/mqtt.c ****     /* Item pointing to itself indicates unused */
 442:Middlewares/Third_Party/LwIP/src/apps/mqtt/mqtt.c ****     r_objs[n].next = &r_objs[n];
 443:Middlewares/Third_Party/LwIP/src/apps/mqtt/mqtt.c ****   }
 444:Middlewares/Third_Party/LwIP/src/apps/mqtt/mqtt.c **** }
 445:Middlewares/Third_Party/LwIP/src/apps/mqtt/mqtt.c **** 
 446:Middlewares/Third_Party/LwIP/src/apps/mqtt/mqtt.c **** /*-------------------------------------------------------------------------------------------------
 447:Middlewares/Third_Party/LwIP/src/apps/mqtt/mqtt.c **** /* Output message build helpers */
 448:Middlewares/Third_Party/LwIP/src/apps/mqtt/mqtt.c **** 
 449:Middlewares/Third_Party/LwIP/src/apps/mqtt/mqtt.c **** 
 450:Middlewares/Third_Party/LwIP/src/apps/mqtt/mqtt.c **** static void
 451:Middlewares/Third_Party/LwIP/src/apps/mqtt/mqtt.c **** mqtt_output_append_u8(struct mqtt_ringbuf_t *rb, u8_t value)
 452:Middlewares/Third_Party/LwIP/src/apps/mqtt/mqtt.c **** {
 199              		.loc 1 452 1 is_stmt 1 view -0
 200              		.cfi_startproc
 201              		@ args = 0, pretend = 0, frame = 0
 202              		@ frame_needed = 0, uses_anonymous_args = 0
 203              		.loc 1 452 1 is_stmt 0 view .LVU46
 204 0000 08B5     		push	{r3, lr}
 205              	.LCFI0:
 206              		.cfi_def_cfa_offset 8
 207              		.cfi_offset 3, -8
 208              		.cfi_offset 14, -4
 453:Middlewares/Third_Party/LwIP/src/apps/mqtt/mqtt.c ****   mqtt_ringbuf_put(rb, value);
 209              		.loc 1 453 3 is_stmt 1 view .LVU47
 210 0002 FFF7FEFF 		bl	mqtt_ringbuf_put
 211              	.LVL12:
 454:Middlewares/Third_Party/LwIP/src/apps/mqtt/mqtt.c **** }
 212              		.loc 1 454 1 is_stmt 0 view .LVU48
 213 0006 08BD     		pop	{r3, pc}
 214              		.cfi_endproc
 215              	.LFE180:
 217              		.section	.text.mqtt_output_append_u16,"ax",%progbits
 218              		.align	1
 219              		.syntax unified
 220              		.thumb
 221              		.thumb_func
 223              	mqtt_output_append_u16:
 224              	.LVL13:
 225              	.LFB181:
 455:Middlewares/Third_Party/LwIP/src/apps/mqtt/mqtt.c **** 
 456:Middlewares/Third_Party/LwIP/src/apps/mqtt/mqtt.c **** static
 457:Middlewares/Third_Party/LwIP/src/apps/mqtt/mqtt.c **** void mqtt_output_append_u16(struct mqtt_ringbuf_t *rb, u16_t value)
 458:Middlewares/Third_Party/LwIP/src/apps/mqtt/mqtt.c **** {
 226              		.loc 1 458 1 is_stmt 1 view -0
 227              		.cfi_startproc
 228              		@ args = 0, pretend = 0, frame = 0
 229              		@ frame_needed = 0, uses_anonymous_args = 0
 230              		.loc 1 458 1 is_stmt 0 view .LVU50
 231 0000 38B5     		push	{r3, r4, r5, lr}
 232              	.LCFI1:
 233              		.cfi_def_cfa_offset 16
 234              		.cfi_offset 3, -16
 235              		.cfi_offset 4, -12
 236              		.cfi_offset 5, -8
 237              		.cfi_offset 14, -4
 238 0002 0546     		mov	r5, r0
 239 0004 0C46     		mov	r4, r1
ARM GAS  /tmp/ccVfyJBo.s 			page 13


 459:Middlewares/Third_Party/LwIP/src/apps/mqtt/mqtt.c ****   mqtt_ringbuf_put(rb, value >> 8);
 240              		.loc 1 459 3 is_stmt 1 view .LVU51
 241 0006 090A     		lsrs	r1, r1, #8
 242              	.LVL14:
 243              		.loc 1 459 3 is_stmt 0 view .LVU52
 244 0008 FFF7FEFF 		bl	mqtt_ringbuf_put
 245              	.LVL15:
 460:Middlewares/Third_Party/LwIP/src/apps/mqtt/mqtt.c ****   mqtt_ringbuf_put(rb, value & 0xff);
 246              		.loc 1 460 3 is_stmt 1 view .LVU53
 247 000c E1B2     		uxtb	r1, r4
 248 000e 2846     		mov	r0, r5
 249 0010 FFF7FEFF 		bl	mqtt_ringbuf_put
 250              	.LVL16:
 461:Middlewares/Third_Party/LwIP/src/apps/mqtt/mqtt.c **** }
 251              		.loc 1 461 1 is_stmt 0 view .LVU54
 252 0014 38BD     		pop	{r3, r4, r5, pc}
 253              		.loc 1 461 1 view .LVU55
 254              		.cfi_endproc
 255              	.LFE181:
 257              		.section	.text.mqtt_output_append_buf,"ax",%progbits
 258              		.align	1
 259              		.syntax unified
 260              		.thumb
 261              		.thumb_func
 263              	mqtt_output_append_buf:
 264              	.LVL17:
 265              	.LFB182:
 462:Middlewares/Third_Party/LwIP/src/apps/mqtt/mqtt.c **** 
 463:Middlewares/Third_Party/LwIP/src/apps/mqtt/mqtt.c **** static void
 464:Middlewares/Third_Party/LwIP/src/apps/mqtt/mqtt.c **** mqtt_output_append_buf(struct mqtt_ringbuf_t *rb, const void *data, u16_t length)
 465:Middlewares/Third_Party/LwIP/src/apps/mqtt/mqtt.c **** {
 266              		.loc 1 465 1 is_stmt 1 view -0
 267              		.cfi_startproc
 268              		@ args = 0, pretend = 0, frame = 0
 269              		@ frame_needed = 0, uses_anonymous_args = 0
 270              		.loc 1 465 1 is_stmt 0 view .LVU57
 271 0000 F8B5     		push	{r3, r4, r5, r6, r7, lr}
 272              	.LCFI2:
 273              		.cfi_def_cfa_offset 24
 274              		.cfi_offset 3, -24
 275              		.cfi_offset 4, -20
 276              		.cfi_offset 5, -16
 277              		.cfi_offset 6, -12
 278              		.cfi_offset 7, -8
 279              		.cfi_offset 14, -4
 280 0002 0746     		mov	r7, r0
 281 0004 0E46     		mov	r6, r1
 282 0006 1546     		mov	r5, r2
 466:Middlewares/Third_Party/LwIP/src/apps/mqtt/mqtt.c ****   u16_t n;
 283              		.loc 1 466 3 is_stmt 1 view .LVU58
 467:Middlewares/Third_Party/LwIP/src/apps/mqtt/mqtt.c ****   for (n = 0; n < length; n++) {
 284              		.loc 1 467 3 view .LVU59
 285              	.LVL18:
 286              		.loc 1 467 10 is_stmt 0 view .LVU60
 287 0008 0024     		movs	r4, #0
 288              		.loc 1 467 3 view .LVU61
 289 000a 05E0     		b	.L15
ARM GAS  /tmp/ccVfyJBo.s 			page 14


 290              	.LVL19:
 291              	.L16:
 468:Middlewares/Third_Party/LwIP/src/apps/mqtt/mqtt.c ****     mqtt_ringbuf_put(rb, ((const u8_t *)data)[n]);
 292              		.loc 1 468 5 is_stmt 1 discriminator 3 view .LVU62
 293 000c 315D     		ldrb	r1, [r6, r4]	@ zero_extendqisi2
 294 000e 3846     		mov	r0, r7
 295 0010 FFF7FEFF 		bl	mqtt_ringbuf_put
 296              	.LVL20:
 467:Middlewares/Third_Party/LwIP/src/apps/mqtt/mqtt.c ****   for (n = 0; n < length; n++) {
 297              		.loc 1 467 27 discriminator 3 view .LVU63
 467:Middlewares/Third_Party/LwIP/src/apps/mqtt/mqtt.c ****   for (n = 0; n < length; n++) {
 298              		.loc 1 467 28 is_stmt 0 discriminator 3 view .LVU64
 299 0014 0134     		adds	r4, r4, #1
 300              	.LVL21:
 467:Middlewares/Third_Party/LwIP/src/apps/mqtt/mqtt.c ****   for (n = 0; n < length; n++) {
 301              		.loc 1 467 28 discriminator 3 view .LVU65
 302 0016 A4B2     		uxth	r4, r4
 303              	.LVL22:
 304              	.L15:
 467:Middlewares/Third_Party/LwIP/src/apps/mqtt/mqtt.c ****   for (n = 0; n < length; n++) {
 305              		.loc 1 467 15 is_stmt 1 discriminator 1 view .LVU66
 467:Middlewares/Third_Party/LwIP/src/apps/mqtt/mqtt.c ****   for (n = 0; n < length; n++) {
 306              		.loc 1 467 3 is_stmt 0 discriminator 1 view .LVU67
 307 0018 AC42     		cmp	r4, r5
 308 001a F7D3     		bcc	.L16
 469:Middlewares/Third_Party/LwIP/src/apps/mqtt/mqtt.c ****   }
 470:Middlewares/Third_Party/LwIP/src/apps/mqtt/mqtt.c **** }
 309              		.loc 1 470 1 view .LVU68
 310 001c F8BD     		pop	{r3, r4, r5, r6, r7, pc}
 311              		.loc 1 470 1 view .LVU69
 312              		.cfi_endproc
 313              	.LFE182:
 315              		.section	.text.mqtt_output_append_string,"ax",%progbits
 316              		.align	1
 317              		.syntax unified
 318              		.thumb
 319              		.thumb_func
 321              	mqtt_output_append_string:
 322              	.LVL23:
 323              	.LFB183:
 471:Middlewares/Third_Party/LwIP/src/apps/mqtt/mqtt.c **** 
 472:Middlewares/Third_Party/LwIP/src/apps/mqtt/mqtt.c **** static void
 473:Middlewares/Third_Party/LwIP/src/apps/mqtt/mqtt.c **** mqtt_output_append_string(struct mqtt_ringbuf_t *rb, const char *str, u16_t length)
 474:Middlewares/Third_Party/LwIP/src/apps/mqtt/mqtt.c **** {
 324              		.loc 1 474 1 is_stmt 1 view -0
 325              		.cfi_startproc
 326              		@ args = 0, pretend = 0, frame = 0
 327              		@ frame_needed = 0, uses_anonymous_args = 0
 328              		.loc 1 474 1 is_stmt 0 view .LVU71
 329 0000 F8B5     		push	{r3, r4, r5, r6, r7, lr}
 330              	.LCFI3:
 331              		.cfi_def_cfa_offset 24
 332              		.cfi_offset 3, -24
 333              		.cfi_offset 4, -20
 334              		.cfi_offset 5, -16
 335              		.cfi_offset 6, -12
 336              		.cfi_offset 7, -8
ARM GAS  /tmp/ccVfyJBo.s 			page 15


 337              		.cfi_offset 14, -4
 338 0002 0646     		mov	r6, r0
 339 0004 0F46     		mov	r7, r1
 340 0006 1546     		mov	r5, r2
 475:Middlewares/Third_Party/LwIP/src/apps/mqtt/mqtt.c ****   u16_t n;
 341              		.loc 1 475 3 is_stmt 1 view .LVU72
 476:Middlewares/Third_Party/LwIP/src/apps/mqtt/mqtt.c ****   mqtt_ringbuf_put(rb, length >> 8);
 342              		.loc 1 476 3 view .LVU73
 343 0008 110A     		lsrs	r1, r2, #8
 344              	.LVL24:
 345              		.loc 1 476 3 is_stmt 0 view .LVU74
 346 000a FFF7FEFF 		bl	mqtt_ringbuf_put
 347              	.LVL25:
 477:Middlewares/Third_Party/LwIP/src/apps/mqtt/mqtt.c ****   mqtt_ringbuf_put(rb, length & 0xff);
 348              		.loc 1 477 3 is_stmt 1 view .LVU75
 349 000e E9B2     		uxtb	r1, r5
 350 0010 3046     		mov	r0, r6
 351 0012 FFF7FEFF 		bl	mqtt_ringbuf_put
 352              	.LVL26:
 478:Middlewares/Third_Party/LwIP/src/apps/mqtt/mqtt.c ****   for (n = 0; n < length; n++) {
 353              		.loc 1 478 3 view .LVU76
 354              		.loc 1 478 10 is_stmt 0 view .LVU77
 355 0016 0024     		movs	r4, #0
 356              		.loc 1 478 3 view .LVU78
 357 0018 05E0     		b	.L19
 358              	.LVL27:
 359              	.L20:
 479:Middlewares/Third_Party/LwIP/src/apps/mqtt/mqtt.c ****     mqtt_ringbuf_put(rb, str[n]);
 360              		.loc 1 479 5 is_stmt 1 discriminator 3 view .LVU79
 361 001a 395D     		ldrb	r1, [r7, r4]	@ zero_extendqisi2
 362 001c 3046     		mov	r0, r6
 363 001e FFF7FEFF 		bl	mqtt_ringbuf_put
 364              	.LVL28:
 478:Middlewares/Third_Party/LwIP/src/apps/mqtt/mqtt.c ****   for (n = 0; n < length; n++) {
 365              		.loc 1 478 27 discriminator 3 view .LVU80
 478:Middlewares/Third_Party/LwIP/src/apps/mqtt/mqtt.c ****   for (n = 0; n < length; n++) {
 366              		.loc 1 478 28 is_stmt 0 discriminator 3 view .LVU81
 367 0022 0134     		adds	r4, r4, #1
 368              	.LVL29:
 478:Middlewares/Third_Party/LwIP/src/apps/mqtt/mqtt.c ****   for (n = 0; n < length; n++) {
 369              		.loc 1 478 28 discriminator 3 view .LVU82
 370 0024 A4B2     		uxth	r4, r4
 371              	.LVL30:
 372              	.L19:
 478:Middlewares/Third_Party/LwIP/src/apps/mqtt/mqtt.c ****   for (n = 0; n < length; n++) {
 373              		.loc 1 478 15 is_stmt 1 discriminator 1 view .LVU83
 478:Middlewares/Third_Party/LwIP/src/apps/mqtt/mqtt.c ****   for (n = 0; n < length; n++) {
 374              		.loc 1 478 3 is_stmt 0 discriminator 1 view .LVU84
 375 0026 AC42     		cmp	r4, r5
 376 0028 F7D3     		bcc	.L20
 480:Middlewares/Third_Party/LwIP/src/apps/mqtt/mqtt.c ****   }
 481:Middlewares/Third_Party/LwIP/src/apps/mqtt/mqtt.c **** }
 377              		.loc 1 481 1 view .LVU85
 378 002a F8BD     		pop	{r3, r4, r5, r6, r7, pc}
 379              		.loc 1 481 1 view .LVU86
 380              		.cfi_endproc
 381              	.LFE183:
ARM GAS  /tmp/ccVfyJBo.s 			page 16


 383              		.section	.text.mqtt_output_append_fixed_header,"ax",%progbits
 384              		.align	1
 385              		.syntax unified
 386              		.thumb
 387              		.thumb_func
 389              	mqtt_output_append_fixed_header:
 390              	.LVL31:
 391              	.LFB184:
 482:Middlewares/Third_Party/LwIP/src/apps/mqtt/mqtt.c **** 
 483:Middlewares/Third_Party/LwIP/src/apps/mqtt/mqtt.c **** /**
 484:Middlewares/Third_Party/LwIP/src/apps/mqtt/mqtt.c ****  * Append fixed header
 485:Middlewares/Third_Party/LwIP/src/apps/mqtt/mqtt.c ****  * @param rb Output ring buffer
 486:Middlewares/Third_Party/LwIP/src/apps/mqtt/mqtt.c ****  * @param msg_type see enum mqtt_message_type
 487:Middlewares/Third_Party/LwIP/src/apps/mqtt/mqtt.c ****  * @param fdup MQTT DUP flag
 488:Middlewares/Third_Party/LwIP/src/apps/mqtt/mqtt.c ****  * @param fqos MQTT QoS field
 489:Middlewares/Third_Party/LwIP/src/apps/mqtt/mqtt.c ****  * @param fretain MQTT retain flag
 490:Middlewares/Third_Party/LwIP/src/apps/mqtt/mqtt.c ****  * @param r_length Remaining length after fixed header
 491:Middlewares/Third_Party/LwIP/src/apps/mqtt/mqtt.c ****  */
 492:Middlewares/Third_Party/LwIP/src/apps/mqtt/mqtt.c **** 
 493:Middlewares/Third_Party/LwIP/src/apps/mqtt/mqtt.c **** static void
 494:Middlewares/Third_Party/LwIP/src/apps/mqtt/mqtt.c **** mqtt_output_append_fixed_header(struct mqtt_ringbuf_t *rb, u8_t msg_type, u8_t fdup,
 495:Middlewares/Third_Party/LwIP/src/apps/mqtt/mqtt.c ****                                 u8_t fqos, u8_t fretain, u16_t r_length)
 496:Middlewares/Third_Party/LwIP/src/apps/mqtt/mqtt.c **** {
 392              		.loc 1 496 1 is_stmt 1 view -0
 393              		.cfi_startproc
 394              		@ args = 8, pretend = 0, frame = 0
 395              		@ frame_needed = 0, uses_anonymous_args = 0
 396              		.loc 1 496 1 is_stmt 0 view .LVU88
 397 0000 38B5     		push	{r3, r4, r5, lr}
 398              	.LCFI4:
 399              		.cfi_def_cfa_offset 16
 400              		.cfi_offset 3, -16
 401              		.cfi_offset 4, -12
 402              		.cfi_offset 5, -8
 403              		.cfi_offset 14, -4
 404 0002 0546     		mov	r5, r0
 405 0004 BDF81440 		ldrh	r4, [sp, #20]
 497:Middlewares/Third_Party/LwIP/src/apps/mqtt/mqtt.c ****   /* Start with control byte */
 498:Middlewares/Third_Party/LwIP/src/apps/mqtt/mqtt.c ****   mqtt_output_append_u8(rb, (((msg_type & 0x0f) << 4) | ((fdup & 1) << 3) | ((fqos & 3) << 1) | (fr
 406              		.loc 1 498 3 is_stmt 1 view .LVU89
 407              		.loc 1 498 69 is_stmt 0 view .LVU90
 408 0008 D200     		lsls	r2, r2, #3
 409              	.LVL32:
 410              		.loc 1 498 69 view .LVU91
 411 000a 02F00802 		and	r2, r2, #8
 412              		.loc 1 498 55 view .LVU92
 413 000e 42EA0112 		orr	r2, r2, r1, lsl #4
 414 0012 52B2     		sxtb	r2, r2
 415              		.loc 1 498 89 view .LVU93
 416 0014 5900     		lsls	r1, r3, #1
 417              	.LVL33:
 418              		.loc 1 498 89 view .LVU94
 419 0016 01F00601 		and	r1, r1, #6
 420              		.loc 1 498 75 view .LVU95
 421 001a 0A43     		orrs	r2, r2, r1
 422              		.loc 1 498 106 view .LVU96
 423 001c 9DF81010 		ldrb	r1, [sp, #16]	@ zero_extendqisi2
ARM GAS  /tmp/ccVfyJBo.s 			page 17


 424 0020 01F00101 		and	r1, r1, #1
 425              		.loc 1 498 95 view .LVU97
 426 0024 1143     		orrs	r1, r1, r2
 427              		.loc 1 498 3 view .LVU98
 428 0026 C9B2     		uxtb	r1, r1
 429 0028 FFF7FEFF 		bl	mqtt_output_append_u8
 430              	.LVL34:
 431              		.loc 1 498 3 view .LVU99
 432 002c 07E0     		b	.L24
 433              	.LVL35:
 434              	.L25:
 499:Middlewares/Third_Party/LwIP/src/apps/mqtt/mqtt.c ****   /* Encode remaining length field */
 500:Middlewares/Third_Party/LwIP/src/apps/mqtt/mqtt.c ****   do {
 501:Middlewares/Third_Party/LwIP/src/apps/mqtt/mqtt.c ****     mqtt_output_append_u8(rb, (r_length & 0x7f) | (r_length >= 128 ? 0x80 : 0));
 435              		.loc 1 501 49 view .LVU100
 436 002e 0023     		movs	r3, #0
 437              	.L23:
 438              		.loc 1 501 49 discriminator 4 view .LVU101
 439 0030 1943     		orrs	r1, r1, r3
 440              		.loc 1 501 5 discriminator 4 view .LVU102
 441 0032 C9B2     		uxtb	r1, r1
 442 0034 2846     		mov	r0, r5
 443 0036 FFF7FEFF 		bl	mqtt_output_append_u8
 444              	.LVL36:
 502:Middlewares/Third_Party/LwIP/src/apps/mqtt/mqtt.c ****     r_length >>= 7;
 445              		.loc 1 502 5 is_stmt 1 discriminator 4 view .LVU103
 503:Middlewares/Third_Party/LwIP/src/apps/mqtt/mqtt.c ****   } while (r_length > 0);
 446              		.loc 1 503 11 discriminator 4 view .LVU104
 447              		.loc 1 503 3 is_stmt 0 discriminator 4 view .LVU105
 448 003a E409     		lsrs	r4, r4, #7
 449              	.LVL37:
 450              		.loc 1 503 3 discriminator 4 view .LVU106
 451 003c 06D0     		beq	.L27
 452              	.L24:
 453              	.LVL38:
 500:Middlewares/Third_Party/LwIP/src/apps/mqtt/mqtt.c ****     mqtt_output_append_u8(rb, (r_length & 0x7f) | (r_length >= 128 ? 0x80 : 0));
 454              		.loc 1 500 3 is_stmt 1 view .LVU107
 501:Middlewares/Third_Party/LwIP/src/apps/mqtt/mqtt.c ****     r_length >>= 7;
 455              		.loc 1 501 5 view .LVU108
 501:Middlewares/Third_Party/LwIP/src/apps/mqtt/mqtt.c ****     r_length >>= 7;
 456              		.loc 1 501 41 is_stmt 0 view .LVU109
 457 003e 04F07F01 		and	r1, r4, #127
 501:Middlewares/Third_Party/LwIP/src/apps/mqtt/mqtt.c ****     r_length >>= 7;
 458              		.loc 1 501 49 view .LVU110
 459 0042 7F2C     		cmp	r4, #127
 460 0044 F3D9     		bls	.L25
 461 0046 6FF07F03 		mvn	r3, #127
 462 004a F1E7     		b	.L23
 463              	.LVL39:
 464              	.L27:
 504:Middlewares/Third_Party/LwIP/src/apps/mqtt/mqtt.c **** }
 465              		.loc 1 504 1 view .LVU111
 466 004c 38BD     		pop	{r3, r4, r5, pc}
 467              		.loc 1 504 1 view .LVU112
 468              		.cfi_endproc
 469              	.LFE184:
 471              		.section	.text.mqtt_incomming_suback,"ax",%progbits
ARM GAS  /tmp/ccVfyJBo.s 			page 18


 472              		.align	1
 473              		.syntax unified
 474              		.thumb
 475              		.thumb_func
 477              	mqtt_incomming_suback:
 478              	.LVL40:
 479              	.LFB189:
 505:Middlewares/Third_Party/LwIP/src/apps/mqtt/mqtt.c **** 
 506:Middlewares/Third_Party/LwIP/src/apps/mqtt/mqtt.c **** 
 507:Middlewares/Third_Party/LwIP/src/apps/mqtt/mqtt.c **** /**
 508:Middlewares/Third_Party/LwIP/src/apps/mqtt/mqtt.c ****  * Check output buffer space
 509:Middlewares/Third_Party/LwIP/src/apps/mqtt/mqtt.c ****  * @param rb Output ring buffer
 510:Middlewares/Third_Party/LwIP/src/apps/mqtt/mqtt.c ****  * @param r_length Remaining length after fixed header
 511:Middlewares/Third_Party/LwIP/src/apps/mqtt/mqtt.c ****  * @return 1 if message will fit, 0 if not enough buffer space
 512:Middlewares/Third_Party/LwIP/src/apps/mqtt/mqtt.c ****  */
 513:Middlewares/Third_Party/LwIP/src/apps/mqtt/mqtt.c **** static u8_t
 514:Middlewares/Third_Party/LwIP/src/apps/mqtt/mqtt.c **** mqtt_output_check_space(struct mqtt_ringbuf_t *rb, u16_t r_length)
 515:Middlewares/Third_Party/LwIP/src/apps/mqtt/mqtt.c **** {
 516:Middlewares/Third_Party/LwIP/src/apps/mqtt/mqtt.c ****   /* Start with length of type byte + remaining length */
 517:Middlewares/Third_Party/LwIP/src/apps/mqtt/mqtt.c ****   u16_t total_len = 1 + r_length;
 518:Middlewares/Third_Party/LwIP/src/apps/mqtt/mqtt.c **** 
 519:Middlewares/Third_Party/LwIP/src/apps/mqtt/mqtt.c ****   LWIP_ASSERT("mqtt_output_check_space: rb != NULL", rb != NULL);
 520:Middlewares/Third_Party/LwIP/src/apps/mqtt/mqtt.c **** 
 521:Middlewares/Third_Party/LwIP/src/apps/mqtt/mqtt.c ****   /* Calculate number of required bytes to contain the remaining bytes field and add to total*/
 522:Middlewares/Third_Party/LwIP/src/apps/mqtt/mqtt.c ****   do {
 523:Middlewares/Third_Party/LwIP/src/apps/mqtt/mqtt.c ****     total_len++;
 524:Middlewares/Third_Party/LwIP/src/apps/mqtt/mqtt.c ****     r_length >>= 7;
 525:Middlewares/Third_Party/LwIP/src/apps/mqtt/mqtt.c ****   } while (r_length > 0);
 526:Middlewares/Third_Party/LwIP/src/apps/mqtt/mqtt.c **** 
 527:Middlewares/Third_Party/LwIP/src/apps/mqtt/mqtt.c ****   return (total_len <= mqtt_ringbuf_free(rb));
 528:Middlewares/Third_Party/LwIP/src/apps/mqtt/mqtt.c **** }
 529:Middlewares/Third_Party/LwIP/src/apps/mqtt/mqtt.c **** 
 530:Middlewares/Third_Party/LwIP/src/apps/mqtt/mqtt.c **** 
 531:Middlewares/Third_Party/LwIP/src/apps/mqtt/mqtt.c **** /**
 532:Middlewares/Third_Party/LwIP/src/apps/mqtt/mqtt.c ****  * Close connection to server
 533:Middlewares/Third_Party/LwIP/src/apps/mqtt/mqtt.c ****  * @param client MQTT client
 534:Middlewares/Third_Party/LwIP/src/apps/mqtt/mqtt.c ****  * @param reason Reason for disconnection
 535:Middlewares/Third_Party/LwIP/src/apps/mqtt/mqtt.c ****  */
 536:Middlewares/Third_Party/LwIP/src/apps/mqtt/mqtt.c **** static void
 537:Middlewares/Third_Party/LwIP/src/apps/mqtt/mqtt.c **** mqtt_close(mqtt_client_t *client, mqtt_connection_status_t reason)
 538:Middlewares/Third_Party/LwIP/src/apps/mqtt/mqtt.c **** {
 539:Middlewares/Third_Party/LwIP/src/apps/mqtt/mqtt.c ****   LWIP_ASSERT("mqtt_close: client != NULL", client != NULL);
 540:Middlewares/Third_Party/LwIP/src/apps/mqtt/mqtt.c **** 
 541:Middlewares/Third_Party/LwIP/src/apps/mqtt/mqtt.c ****   /* Bring down TCP connection if not already done */
 542:Middlewares/Third_Party/LwIP/src/apps/mqtt/mqtt.c ****   if (client->conn != NULL) {
 543:Middlewares/Third_Party/LwIP/src/apps/mqtt/mqtt.c ****     err_t res;
 544:Middlewares/Third_Party/LwIP/src/apps/mqtt/mqtt.c ****     altcp_recv(client->conn, NULL);
 545:Middlewares/Third_Party/LwIP/src/apps/mqtt/mqtt.c ****     altcp_err(client->conn,  NULL);
 546:Middlewares/Third_Party/LwIP/src/apps/mqtt/mqtt.c ****     altcp_sent(client->conn, NULL);
 547:Middlewares/Third_Party/LwIP/src/apps/mqtt/mqtt.c ****     res = altcp_close(client->conn);
 548:Middlewares/Third_Party/LwIP/src/apps/mqtt/mqtt.c ****     if (res != ERR_OK) {
 549:Middlewares/Third_Party/LwIP/src/apps/mqtt/mqtt.c ****       altcp_abort(client->conn);
 550:Middlewares/Third_Party/LwIP/src/apps/mqtt/mqtt.c ****       LWIP_DEBUGF(MQTT_DEBUG_TRACE, ("mqtt_close: Close err=%s\n", lwip_strerr(res)));
 551:Middlewares/Third_Party/LwIP/src/apps/mqtt/mqtt.c ****     }
 552:Middlewares/Third_Party/LwIP/src/apps/mqtt/mqtt.c ****     client->conn = NULL;
 553:Middlewares/Third_Party/LwIP/src/apps/mqtt/mqtt.c ****   }
 554:Middlewares/Third_Party/LwIP/src/apps/mqtt/mqtt.c **** 
ARM GAS  /tmp/ccVfyJBo.s 			page 19


 555:Middlewares/Third_Party/LwIP/src/apps/mqtt/mqtt.c ****   /* Remove all pending requests */
 556:Middlewares/Third_Party/LwIP/src/apps/mqtt/mqtt.c ****   mqtt_clear_requests(&client->pend_req_queue);
 557:Middlewares/Third_Party/LwIP/src/apps/mqtt/mqtt.c ****   /* Stop cyclic timer */
 558:Middlewares/Third_Party/LwIP/src/apps/mqtt/mqtt.c ****   sys_untimeout(mqtt_cyclic_timer, client);
 559:Middlewares/Third_Party/LwIP/src/apps/mqtt/mqtt.c **** 
 560:Middlewares/Third_Party/LwIP/src/apps/mqtt/mqtt.c ****   /* Notify upper layer of disconnection if changed state */
 561:Middlewares/Third_Party/LwIP/src/apps/mqtt/mqtt.c ****   if (client->conn_state != TCP_DISCONNECTED) {
 562:Middlewares/Third_Party/LwIP/src/apps/mqtt/mqtt.c **** 
 563:Middlewares/Third_Party/LwIP/src/apps/mqtt/mqtt.c ****     client->conn_state = TCP_DISCONNECTED;
 564:Middlewares/Third_Party/LwIP/src/apps/mqtt/mqtt.c ****     if (client->connect_cb != NULL) {
 565:Middlewares/Third_Party/LwIP/src/apps/mqtt/mqtt.c ****       client->connect_cb(client, client->connect_arg, reason);
 566:Middlewares/Third_Party/LwIP/src/apps/mqtt/mqtt.c ****     }
 567:Middlewares/Third_Party/LwIP/src/apps/mqtt/mqtt.c ****   }
 568:Middlewares/Third_Party/LwIP/src/apps/mqtt/mqtt.c **** }
 569:Middlewares/Third_Party/LwIP/src/apps/mqtt/mqtt.c **** 
 570:Middlewares/Third_Party/LwIP/src/apps/mqtt/mqtt.c **** 
 571:Middlewares/Third_Party/LwIP/src/apps/mqtt/mqtt.c **** /**
 572:Middlewares/Third_Party/LwIP/src/apps/mqtt/mqtt.c ****  * Interval timer, called every MQTT_CYCLIC_TIMER_INTERVAL seconds in MQTT_CONNECTING and MQTT_CONN
 573:Middlewares/Third_Party/LwIP/src/apps/mqtt/mqtt.c ****  * @param arg MQTT client
 574:Middlewares/Third_Party/LwIP/src/apps/mqtt/mqtt.c ****  */
 575:Middlewares/Third_Party/LwIP/src/apps/mqtt/mqtt.c **** static void
 576:Middlewares/Third_Party/LwIP/src/apps/mqtt/mqtt.c **** mqtt_cyclic_timer(void *arg)
 577:Middlewares/Third_Party/LwIP/src/apps/mqtt/mqtt.c **** {
 578:Middlewares/Third_Party/LwIP/src/apps/mqtt/mqtt.c ****   u8_t restart_timer = 1;
 579:Middlewares/Third_Party/LwIP/src/apps/mqtt/mqtt.c ****   mqtt_client_t *client = (mqtt_client_t *)arg;
 580:Middlewares/Third_Party/LwIP/src/apps/mqtt/mqtt.c ****   LWIP_ASSERT("mqtt_cyclic_timer: client != NULL", client != NULL);
 581:Middlewares/Third_Party/LwIP/src/apps/mqtt/mqtt.c **** 
 582:Middlewares/Third_Party/LwIP/src/apps/mqtt/mqtt.c ****   if (client->conn_state == MQTT_CONNECTING) {
 583:Middlewares/Third_Party/LwIP/src/apps/mqtt/mqtt.c ****     client->cyclic_tick++;
 584:Middlewares/Third_Party/LwIP/src/apps/mqtt/mqtt.c ****     if ((client->cyclic_tick * MQTT_CYCLIC_TIMER_INTERVAL) >= MQTT_CONNECT_TIMOUT) {
 585:Middlewares/Third_Party/LwIP/src/apps/mqtt/mqtt.c ****       LWIP_DEBUGF(MQTT_DEBUG_TRACE, ("mqtt_cyclic_timer: CONNECT attempt to server timed out\n"));
 586:Middlewares/Third_Party/LwIP/src/apps/mqtt/mqtt.c ****       /* Disconnect TCP */
 587:Middlewares/Third_Party/LwIP/src/apps/mqtt/mqtt.c ****       mqtt_close(client, MQTT_CONNECT_TIMEOUT);
 588:Middlewares/Third_Party/LwIP/src/apps/mqtt/mqtt.c ****       restart_timer = 0;
 589:Middlewares/Third_Party/LwIP/src/apps/mqtt/mqtt.c ****     }
 590:Middlewares/Third_Party/LwIP/src/apps/mqtt/mqtt.c ****   } else if (client->conn_state == MQTT_CONNECTED) {
 591:Middlewares/Third_Party/LwIP/src/apps/mqtt/mqtt.c ****     /* Handle timeout for pending requests */
 592:Middlewares/Third_Party/LwIP/src/apps/mqtt/mqtt.c ****     mqtt_request_time_elapsed(&client->pend_req_queue, MQTT_CYCLIC_TIMER_INTERVAL);
 593:Middlewares/Third_Party/LwIP/src/apps/mqtt/mqtt.c **** 
 594:Middlewares/Third_Party/LwIP/src/apps/mqtt/mqtt.c ****     /* keep_alive > 0 means keep alive functionality shall be used */
 595:Middlewares/Third_Party/LwIP/src/apps/mqtt/mqtt.c ****     if (client->keep_alive > 0) {
 596:Middlewares/Third_Party/LwIP/src/apps/mqtt/mqtt.c **** 
 597:Middlewares/Third_Party/LwIP/src/apps/mqtt/mqtt.c ****       client->server_watchdog++;
 598:Middlewares/Third_Party/LwIP/src/apps/mqtt/mqtt.c ****       /* If reception from server has been idle for 1.5*keep_alive time, server is considered unres
 599:Middlewares/Third_Party/LwIP/src/apps/mqtt/mqtt.c ****       if ((client->server_watchdog * MQTT_CYCLIC_TIMER_INTERVAL) > (client->keep_alive + client->ke
 600:Middlewares/Third_Party/LwIP/src/apps/mqtt/mqtt.c ****         LWIP_DEBUGF(MQTT_DEBUG_WARN, ("mqtt_cyclic_timer: Server incoming keep-alive timeout\n"));
 601:Middlewares/Third_Party/LwIP/src/apps/mqtt/mqtt.c ****         mqtt_close(client, MQTT_CONNECT_TIMEOUT);
 602:Middlewares/Third_Party/LwIP/src/apps/mqtt/mqtt.c ****         restart_timer = 0;
 603:Middlewares/Third_Party/LwIP/src/apps/mqtt/mqtt.c ****       }
 604:Middlewares/Third_Party/LwIP/src/apps/mqtt/mqtt.c **** 
 605:Middlewares/Third_Party/LwIP/src/apps/mqtt/mqtt.c ****       /* If time for a keep alive message to be sent, transmission has been idle for keep_alive tim
 606:Middlewares/Third_Party/LwIP/src/apps/mqtt/mqtt.c ****       if ((client->cyclic_tick * MQTT_CYCLIC_TIMER_INTERVAL) >= client->keep_alive) {
 607:Middlewares/Third_Party/LwIP/src/apps/mqtt/mqtt.c ****         LWIP_DEBUGF(MQTT_DEBUG_TRACE, ("mqtt_cyclic_timer: Sending keep-alive message to server\n")
 608:Middlewares/Third_Party/LwIP/src/apps/mqtt/mqtt.c ****         if (mqtt_output_check_space(&client->output, 0) != 0) {
 609:Middlewares/Third_Party/LwIP/src/apps/mqtt/mqtt.c ****           mqtt_output_append_fixed_header(&client->output, MQTT_MSG_TYPE_PINGREQ, 0, 0, 0, 0);
 610:Middlewares/Third_Party/LwIP/src/apps/mqtt/mqtt.c ****           client->cyclic_tick = 0;
 611:Middlewares/Third_Party/LwIP/src/apps/mqtt/mqtt.c ****         }
ARM GAS  /tmp/ccVfyJBo.s 			page 20


 612:Middlewares/Third_Party/LwIP/src/apps/mqtt/mqtt.c ****       } else {
 613:Middlewares/Third_Party/LwIP/src/apps/mqtt/mqtt.c ****         client->cyclic_tick++;
 614:Middlewares/Third_Party/LwIP/src/apps/mqtt/mqtt.c ****       }
 615:Middlewares/Third_Party/LwIP/src/apps/mqtt/mqtt.c ****     }
 616:Middlewares/Third_Party/LwIP/src/apps/mqtt/mqtt.c ****   } else {
 617:Middlewares/Third_Party/LwIP/src/apps/mqtt/mqtt.c ****     LWIP_DEBUGF(MQTT_DEBUG_WARN, ("mqtt_cyclic_timer: Timer should not be running in state %d\n", c
 618:Middlewares/Third_Party/LwIP/src/apps/mqtt/mqtt.c ****     restart_timer = 0;
 619:Middlewares/Third_Party/LwIP/src/apps/mqtt/mqtt.c ****   }
 620:Middlewares/Third_Party/LwIP/src/apps/mqtt/mqtt.c ****   if (restart_timer) {
 621:Middlewares/Third_Party/LwIP/src/apps/mqtt/mqtt.c ****     sys_timeout(MQTT_CYCLIC_TIMER_INTERVAL * 1000, mqtt_cyclic_timer, arg);
 622:Middlewares/Third_Party/LwIP/src/apps/mqtt/mqtt.c ****   }
 623:Middlewares/Third_Party/LwIP/src/apps/mqtt/mqtt.c **** }
 624:Middlewares/Third_Party/LwIP/src/apps/mqtt/mqtt.c **** 
 625:Middlewares/Third_Party/LwIP/src/apps/mqtt/mqtt.c **** 
 626:Middlewares/Third_Party/LwIP/src/apps/mqtt/mqtt.c **** /**
 627:Middlewares/Third_Party/LwIP/src/apps/mqtt/mqtt.c ****  * Send PUBACK, PUBREC or PUBREL response message
 628:Middlewares/Third_Party/LwIP/src/apps/mqtt/mqtt.c ****  * @param client MQTT client
 629:Middlewares/Third_Party/LwIP/src/apps/mqtt/mqtt.c ****  * @param msg PUBACK, PUBREC or PUBREL
 630:Middlewares/Third_Party/LwIP/src/apps/mqtt/mqtt.c ****  * @param pkt_id Packet identifier
 631:Middlewares/Third_Party/LwIP/src/apps/mqtt/mqtt.c ****  * @param qos QoS value
 632:Middlewares/Third_Party/LwIP/src/apps/mqtt/mqtt.c ****  * @return ERR_OK if successful, ERR_MEM if out of memory
 633:Middlewares/Third_Party/LwIP/src/apps/mqtt/mqtt.c ****  */
 634:Middlewares/Third_Party/LwIP/src/apps/mqtt/mqtt.c **** static err_t
 635:Middlewares/Third_Party/LwIP/src/apps/mqtt/mqtt.c **** pub_ack_rec_rel_response(mqtt_client_t *client, u8_t msg, u16_t pkt_id, u8_t qos)
 636:Middlewares/Third_Party/LwIP/src/apps/mqtt/mqtt.c **** {
 637:Middlewares/Third_Party/LwIP/src/apps/mqtt/mqtt.c ****   err_t err = ERR_OK;
 638:Middlewares/Third_Party/LwIP/src/apps/mqtt/mqtt.c ****   if (mqtt_output_check_space(&client->output, 2)) {
 639:Middlewares/Third_Party/LwIP/src/apps/mqtt/mqtt.c ****     mqtt_output_append_fixed_header(&client->output, msg, 0, qos, 0, 2);
 640:Middlewares/Third_Party/LwIP/src/apps/mqtt/mqtt.c ****     mqtt_output_append_u16(&client->output, pkt_id);
 641:Middlewares/Third_Party/LwIP/src/apps/mqtt/mqtt.c ****     mqtt_output_send(&client->output, client->conn);
 642:Middlewares/Third_Party/LwIP/src/apps/mqtt/mqtt.c ****   } else {
 643:Middlewares/Third_Party/LwIP/src/apps/mqtt/mqtt.c ****     LWIP_DEBUGF(MQTT_DEBUG_TRACE, ("pub_ack_rec_rel_response: OOM creating response: %s with pkt_id
 644:Middlewares/Third_Party/LwIP/src/apps/mqtt/mqtt.c ****                                    mqtt_msg_type_to_str(msg), pkt_id));
 645:Middlewares/Third_Party/LwIP/src/apps/mqtt/mqtt.c ****     err = ERR_MEM;
 646:Middlewares/Third_Party/LwIP/src/apps/mqtt/mqtt.c ****   }
 647:Middlewares/Third_Party/LwIP/src/apps/mqtt/mqtt.c ****   return err;
 648:Middlewares/Third_Party/LwIP/src/apps/mqtt/mqtt.c **** }
 649:Middlewares/Third_Party/LwIP/src/apps/mqtt/mqtt.c **** 
 650:Middlewares/Third_Party/LwIP/src/apps/mqtt/mqtt.c **** /**
 651:Middlewares/Third_Party/LwIP/src/apps/mqtt/mqtt.c ****  * Subscribe response from server
 652:Middlewares/Third_Party/LwIP/src/apps/mqtt/mqtt.c ****  * @param r Matching request
 653:Middlewares/Third_Party/LwIP/src/apps/mqtt/mqtt.c ****  * @param result Result code from server
 654:Middlewares/Third_Party/LwIP/src/apps/mqtt/mqtt.c ****  */
 655:Middlewares/Third_Party/LwIP/src/apps/mqtt/mqtt.c **** static void
 656:Middlewares/Third_Party/LwIP/src/apps/mqtt/mqtt.c **** mqtt_incomming_suback(struct mqtt_request_t *r, u8_t result)
 657:Middlewares/Third_Party/LwIP/src/apps/mqtt/mqtt.c **** {
 480              		.loc 1 657 1 is_stmt 1 view -0
 481              		.cfi_startproc
 482              		@ args = 0, pretend = 0, frame = 0
 483              		@ frame_needed = 0, uses_anonymous_args = 0
 484              		.loc 1 657 1 is_stmt 0 view .LVU114
 485 0000 08B5     		push	{r3, lr}
 486              	.LCFI5:
 487              		.cfi_def_cfa_offset 8
 488              		.cfi_offset 3, -8
 489              		.cfi_offset 14, -4
 658:Middlewares/Third_Party/LwIP/src/apps/mqtt/mqtt.c ****   if (r->cb != NULL) {
ARM GAS  /tmp/ccVfyJBo.s 			page 21


 490              		.loc 1 658 3 is_stmt 1 view .LVU115
 491              		.loc 1 658 8 is_stmt 0 view .LVU116
 492 0002 4368     		ldr	r3, [r0, #4]
 493              		.loc 1 658 6 view .LVU117
 494 0004 23B1     		cbz	r3, .L28
 659:Middlewares/Third_Party/LwIP/src/apps/mqtt/mqtt.c ****     r->cb(r->arg, result < 3 ? ERR_OK : ERR_ABRT);
 495              		.loc 1 659 5 is_stmt 1 view .LVU118
 496 0006 8068     		ldr	r0, [r0, #8]
 497              	.LVL41:
 498              		.loc 1 659 5 is_stmt 0 view .LVU119
 499 0008 0229     		cmp	r1, #2
 500 000a 02D8     		bhi	.L31
 501 000c 0021     		movs	r1, #0
 502              	.LVL42:
 503              	.L30:
 504              		.loc 1 659 5 discriminator 4 view .LVU120
 505 000e 9847     		blx	r3
 506              	.LVL43:
 507              	.L28:
 660:Middlewares/Third_Party/LwIP/src/apps/mqtt/mqtt.c ****   }
 661:Middlewares/Third_Party/LwIP/src/apps/mqtt/mqtt.c **** }
 508              		.loc 1 661 1 view .LVU121
 509 0010 08BD     		pop	{r3, pc}
 510              	.LVL44:
 511              	.L31:
 659:Middlewares/Third_Party/LwIP/src/apps/mqtt/mqtt.c ****     r->cb(r->arg, result < 3 ? ERR_OK : ERR_ABRT);
 512              		.loc 1 659 5 view .LVU122
 513 0012 6FF00C01 		mvn	r1, #12
 514              	.LVL45:
 659:Middlewares/Third_Party/LwIP/src/apps/mqtt/mqtt.c ****     r->cb(r->arg, result < 3 ? ERR_OK : ERR_ABRT);
 515              		.loc 1 659 5 view .LVU123
 516 0016 FAE7     		b	.L30
 517              		.cfi_endproc
 518              	.LFE189:
 520              		.section	.rodata.mqtt_create_request.str1.4,"aMS",%progbits,1
 521              		.align	2
 522              	.LC0:
 523 0000 4D696464 		.ascii	"Middlewares/Third_Party/LwIP/src/apps/mqtt/mqtt.c\000"
 523      6C657761 
 523      7265732F 
 523      54686972 
 523      645F5061 
 524 0032 0000     		.align	2
 525              	.LC1:
 526 0034 6D717474 		.ascii	"mqtt_create_request: r_objs != NULL\000"
 526      5F637265 
 526      6174655F 
 526      72657175 
 526      6573743A 
 527              		.align	2
 528              	.LC2:
 529 0058 41737365 		.ascii	"Assertion \"%s\" failed at line %d in %s\012\000"
 529      7274696F 
 529      6E202225 
 529      73222066 
 529      61696C65 
 530              		.section	.text.mqtt_create_request,"ax",%progbits
ARM GAS  /tmp/ccVfyJBo.s 			page 22


 531              		.align	1
 532              		.syntax unified
 533              		.thumb
 534              		.thumb_func
 536              	mqtt_create_request:
 537              	.LVL46:
 538              	.LFB173:
 288:Middlewares/Third_Party/LwIP/src/apps/mqtt/mqtt.c ****   struct mqtt_request_t *r = NULL;
 539              		.loc 1 288 1 is_stmt 1 view -0
 540              		.cfi_startproc
 541              		@ args = 4, pretend = 0, frame = 0
 542              		@ frame_needed = 0, uses_anonymous_args = 0
 288:Middlewares/Third_Party/LwIP/src/apps/mqtt/mqtt.c ****   struct mqtt_request_t *r = NULL;
 543              		.loc 1 288 1 is_stmt 0 view .LVU125
 544 0000 F8B5     		push	{r3, r4, r5, r6, r7, lr}
 545              	.LCFI6:
 546              		.cfi_def_cfa_offset 24
 547              		.cfi_offset 3, -24
 548              		.cfi_offset 4, -20
 549              		.cfi_offset 5, -16
 550              		.cfi_offset 6, -12
 551              		.cfi_offset 7, -8
 552              		.cfi_offset 14, -4
 553 0002 0D46     		mov	r5, r1
 554 0004 1646     		mov	r6, r2
 555 0006 1F46     		mov	r7, r3
 289:Middlewares/Third_Party/LwIP/src/apps/mqtt/mqtt.c ****   u8_t n;
 556              		.loc 1 289 3 is_stmt 1 view .LVU126
 557              	.LVL47:
 290:Middlewares/Third_Party/LwIP/src/apps/mqtt/mqtt.c ****   LWIP_ASSERT("mqtt_create_request: r_objs != NULL", r_objs != NULL);
 558              		.loc 1 290 3 view .LVU127
 291:Middlewares/Third_Party/LwIP/src/apps/mqtt/mqtt.c ****   for (n = 0; n < r_objs_len; n++) {
 559              		.loc 1 291 3 view .LVU128
 291:Middlewares/Third_Party/LwIP/src/apps/mqtt/mqtt.c ****   for (n = 0; n < r_objs_len; n++) {
 560              		.loc 1 291 3 view .LVU129
 561 0008 0446     		mov	r4, r0
 562 000a 10B1     		cbz	r0, .L40
 563              	.LVL48:
 564              	.L34:
 291:Middlewares/Third_Party/LwIP/src/apps/mqtt/mqtt.c ****   for (n = 0; n < r_objs_len; n++) {
 565              		.loc 1 291 3 discriminator 3 view .LVU130
 291:Middlewares/Third_Party/LwIP/src/apps/mqtt/mqtt.c ****   for (n = 0; n < r_objs_len; n++) {
 566              		.loc 1 291 3 discriminator 3 view .LVU131
 292:Middlewares/Third_Party/LwIP/src/apps/mqtt/mqtt.c ****     /* Item point to itself if not in use */
 567              		.loc 1 292 3 discriminator 3 view .LVU132
 292:Middlewares/Third_Party/LwIP/src/apps/mqtt/mqtt.c ****     /* Item point to itself if not in use */
 568              		.loc 1 292 10 is_stmt 0 discriminator 3 view .LVU133
 569 000c 4FF0000C 		mov	ip, #0
 292:Middlewares/Third_Party/LwIP/src/apps/mqtt/mqtt.c ****     /* Item point to itself if not in use */
 570              		.loc 1 292 3 discriminator 3 view .LVU134
 571 0010 0BE0     		b	.L35
 572              	.LVL49:
 573              	.L40:
 291:Middlewares/Third_Party/LwIP/src/apps/mqtt/mqtt.c ****   for (n = 0; n < r_objs_len; n++) {
 574              		.loc 1 291 3 is_stmt 1 discriminator 1 view .LVU135
 291:Middlewares/Third_Party/LwIP/src/apps/mqtt/mqtt.c ****   for (n = 0; n < r_objs_len; n++) {
 575              		.loc 1 291 3 discriminator 1 view .LVU136
ARM GAS  /tmp/ccVfyJBo.s 			page 23


 576 0012 0F4B     		ldr	r3, .L42
 577              	.LVL50:
 291:Middlewares/Third_Party/LwIP/src/apps/mqtt/mqtt.c ****   for (n = 0; n < r_objs_len; n++) {
 578              		.loc 1 291 3 is_stmt 0 discriminator 1 view .LVU137
 579 0014 40F22312 		movw	r2, #291
 580              	.LVL51:
 291:Middlewares/Third_Party/LwIP/src/apps/mqtt/mqtt.c ****   for (n = 0; n < r_objs_len; n++) {
 581              		.loc 1 291 3 discriminator 1 view .LVU138
 582 0018 0E49     		ldr	r1, .L42+4
 583              	.LVL52:
 291:Middlewares/Third_Party/LwIP/src/apps/mqtt/mqtt.c ****   for (n = 0; n < r_objs_len; n++) {
 584              		.loc 1 291 3 discriminator 1 view .LVU139
 585 001a 0F48     		ldr	r0, .L42+8
 586              	.LVL53:
 291:Middlewares/Third_Party/LwIP/src/apps/mqtt/mqtt.c ****   for (n = 0; n < r_objs_len; n++) {
 587              		.loc 1 291 3 discriminator 1 view .LVU140
 588 001c FFF7FEFF 		bl	printf
 589              	.LVL54:
 590 0020 F4E7     		b	.L34
 591              	.LVL55:
 592              	.L36:
 292:Middlewares/Third_Party/LwIP/src/apps/mqtt/mqtt.c ****     /* Item point to itself if not in use */
 593              		.loc 1 292 31 is_stmt 1 discriminator 2 view .LVU141
 292:Middlewares/Third_Party/LwIP/src/apps/mqtt/mqtt.c ****     /* Item point to itself if not in use */
 594              		.loc 1 292 32 is_stmt 0 discriminator 2 view .LVU142
 595 0022 0CF1010C 		add	ip, ip, #1
 596              	.LVL56:
 292:Middlewares/Third_Party/LwIP/src/apps/mqtt/mqtt.c ****     /* Item point to itself if not in use */
 597              		.loc 1 292 32 discriminator 2 view .LVU143
 598 0026 5FFA8CFC 		uxtb	ip, ip
 599              	.LVL57:
 600              	.L35:
 292:Middlewares/Third_Party/LwIP/src/apps/mqtt/mqtt.c ****     /* Item point to itself if not in use */
 601              		.loc 1 292 15 is_stmt 1 discriminator 1 view .LVU144
 292:Middlewares/Third_Party/LwIP/src/apps/mqtt/mqtt.c ****     /* Item point to itself if not in use */
 602              		.loc 1 292 3 is_stmt 0 discriminator 1 view .LVU145
 603 002a AC45     		cmp	ip, r5
 604 002c 0ED2     		bcs	.L41
 294:Middlewares/Third_Party/LwIP/src/apps/mqtt/mqtt.c ****       r = &r_objs[n];
 605              		.loc 1 294 5 is_stmt 1 view .LVU146
 294:Middlewares/Third_Party/LwIP/src/apps/mqtt/mqtt.c ****       r = &r_objs[n];
 606              		.loc 1 294 15 is_stmt 0 view .LVU147
 607 002e 4FEA0C1E 		lsl	lr, ip, #4
 608 0032 04EB0C10 		add	r0, r4, ip, lsl #4
 294:Middlewares/Third_Party/LwIP/src/apps/mqtt/mqtt.c ****       r = &r_objs[n];
 609              		.loc 1 294 18 view .LVU148
 610 0036 54F80E30 		ldr	r3, [r4, lr]
 294:Middlewares/Third_Party/LwIP/src/apps/mqtt/mqtt.c ****       r = &r_objs[n];
 611              		.loc 1 294 8 view .LVU149
 612 003a 9842     		cmp	r0, r3
 613 003c F1D1     		bne	.L36
 295:Middlewares/Third_Party/LwIP/src/apps/mqtt/mqtt.c ****       r->next = NULL;
 614              		.loc 1 295 7 is_stmt 1 view .LVU150
 615              	.LVL58:
 296:Middlewares/Third_Party/LwIP/src/apps/mqtt/mqtt.c ****       r->cb = cb;
 616              		.loc 1 296 7 view .LVU151
 296:Middlewares/Third_Party/LwIP/src/apps/mqtt/mqtt.c ****       r->cb = cb;
ARM GAS  /tmp/ccVfyJBo.s 			page 24


 617              		.loc 1 296 15 is_stmt 0 view .LVU152
 618 003e 0023     		movs	r3, #0
 619 0040 0360     		str	r3, [r0]
 297:Middlewares/Third_Party/LwIP/src/apps/mqtt/mqtt.c ****       r->arg = arg;
 620              		.loc 1 297 7 is_stmt 1 view .LVU153
 297:Middlewares/Third_Party/LwIP/src/apps/mqtt/mqtt.c ****       r->arg = arg;
 621              		.loc 1 297 13 is_stmt 0 view .LVU154
 622 0042 4760     		str	r7, [r0, #4]
 298:Middlewares/Third_Party/LwIP/src/apps/mqtt/mqtt.c ****       r->pkt_id = pkt_id;
 623              		.loc 1 298 7 is_stmt 1 view .LVU155
 298:Middlewares/Third_Party/LwIP/src/apps/mqtt/mqtt.c ****       r->pkt_id = pkt_id;
 624              		.loc 1 298 14 is_stmt 0 view .LVU156
 625 0044 069B     		ldr	r3, [sp, #24]
 626 0046 8360     		str	r3, [r0, #8]
 299:Middlewares/Third_Party/LwIP/src/apps/mqtt/mqtt.c ****       break;
 627              		.loc 1 299 7 is_stmt 1 view .LVU157
 299:Middlewares/Third_Party/LwIP/src/apps/mqtt/mqtt.c ****       break;
 628              		.loc 1 299 17 is_stmt 0 view .LVU158
 629 0048 8681     		strh	r6, [r0, #12]	@ movhi
 300:Middlewares/Third_Party/LwIP/src/apps/mqtt/mqtt.c ****     }
 630              		.loc 1 300 7 is_stmt 1 view .LVU159
 631 004a 00E0     		b	.L33
 632              	.LVL59:
 633              	.L41:
 289:Middlewares/Third_Party/LwIP/src/apps/mqtt/mqtt.c ****   u8_t n;
 634              		.loc 1 289 26 is_stmt 0 view .LVU160
 635 004c 0020     		movs	r0, #0
 303:Middlewares/Third_Party/LwIP/src/apps/mqtt/mqtt.c **** }
 636              		.loc 1 303 3 is_stmt 1 view .LVU161
 637              	.LVL60:
 638              	.L33:
 304:Middlewares/Third_Party/LwIP/src/apps/mqtt/mqtt.c **** 
 639              		.loc 1 304 1 is_stmt 0 view .LVU162
 640 004e F8BD     		pop	{r3, r4, r5, r6, r7, pc}
 641              	.LVL61:
 642              	.L43:
 304:Middlewares/Third_Party/LwIP/src/apps/mqtt/mqtt.c **** 
 643              		.loc 1 304 1 view .LVU163
 644              		.align	2
 645              	.L42:
 646 0050 00000000 		.word	.LC0
 647 0054 34000000 		.word	.LC1
 648 0058 58000000 		.word	.LC2
 649              		.cfi_endproc
 650              	.LFE173:
 652              		.section	.rodata.mqtt_output_check_space.str1.4,"aMS",%progbits,1
 653              		.align	2
 654              	.LC3:
 655 0000 6D717474 		.ascii	"mqtt_output_check_space: rb != NULL\000"
 655      5F6F7574 
 655      7075745F 
 655      63686563 
 655      6B5F7370 
 656              		.section	.text.mqtt_output_check_space,"ax",%progbits
 657              		.align	1
 658              		.syntax unified
 659              		.thumb
ARM GAS  /tmp/ccVfyJBo.s 			page 25


 660              		.thumb_func
 662              	mqtt_output_check_space:
 663              	.LVL62:
 664              	.LFB185:
 515:Middlewares/Third_Party/LwIP/src/apps/mqtt/mqtt.c ****   /* Start with length of type byte + remaining length */
 665              		.loc 1 515 1 is_stmt 1 view -0
 666              		.cfi_startproc
 667              		@ args = 0, pretend = 0, frame = 0
 668              		@ frame_needed = 0, uses_anonymous_args = 0
 515:Middlewares/Third_Party/LwIP/src/apps/mqtt/mqtt.c ****   /* Start with length of type byte + remaining length */
 669              		.loc 1 515 1 is_stmt 0 view .LVU165
 670 0000 70B5     		push	{r4, r5, r6, lr}
 671              	.LCFI7:
 672              		.cfi_def_cfa_offset 16
 673              		.cfi_offset 4, -16
 674              		.cfi_offset 5, -12
 675              		.cfi_offset 6, -8
 676              		.cfi_offset 14, -4
 677 0002 0D46     		mov	r5, r1
 517:Middlewares/Third_Party/LwIP/src/apps/mqtt/mqtt.c **** 
 678              		.loc 1 517 3 is_stmt 1 view .LVU166
 517:Middlewares/Third_Party/LwIP/src/apps/mqtt/mqtt.c **** 
 679              		.loc 1 517 9 is_stmt 0 view .LVU167
 680 0004 4C1C     		adds	r4, r1, #1
 681 0006 A4B2     		uxth	r4, r4
 682              	.LVL63:
 519:Middlewares/Third_Party/LwIP/src/apps/mqtt/mqtt.c **** 
 683              		.loc 1 519 3 is_stmt 1 view .LVU168
 519:Middlewares/Third_Party/LwIP/src/apps/mqtt/mqtt.c **** 
 684              		.loc 1 519 3 view .LVU169
 685 0008 0646     		mov	r6, r0
 686 000a 68B1     		cbz	r0, .L48
 687              	.LVL64:
 688              	.L46:
 519:Middlewares/Third_Party/LwIP/src/apps/mqtt/mqtt.c **** 
 689              		.loc 1 519 3 discriminator 1 view .LVU170
 519:Middlewares/Third_Party/LwIP/src/apps/mqtt/mqtt.c **** 
 690              		.loc 1 519 3 discriminator 1 view .LVU171
 522:Middlewares/Third_Party/LwIP/src/apps/mqtt/mqtt.c ****     total_len++;
 691              		.loc 1 522 3 discriminator 1 view .LVU172
 523:Middlewares/Third_Party/LwIP/src/apps/mqtt/mqtt.c ****     r_length >>= 7;
 692              		.loc 1 523 5 discriminator 1 view .LVU173
 523:Middlewares/Third_Party/LwIP/src/apps/mqtt/mqtt.c ****     r_length >>= 7;
 693              		.loc 1 523 14 is_stmt 0 discriminator 1 view .LVU174
 694 000c 0134     		adds	r4, r4, #1
 695              	.LVL65:
 523:Middlewares/Third_Party/LwIP/src/apps/mqtt/mqtt.c ****     r_length >>= 7;
 696              		.loc 1 523 14 discriminator 1 view .LVU175
 697 000e A4B2     		uxth	r4, r4
 698              	.LVL66:
 524:Middlewares/Third_Party/LwIP/src/apps/mqtt/mqtt.c ****   } while (r_length > 0);
 699              		.loc 1 524 5 is_stmt 1 discriminator 1 view .LVU176
 525:Middlewares/Third_Party/LwIP/src/apps/mqtt/mqtt.c **** 
 700              		.loc 1 525 11 discriminator 1 view .LVU177
 525:Middlewares/Third_Party/LwIP/src/apps/mqtt/mqtt.c **** 
 701              		.loc 1 525 3 is_stmt 0 discriminator 1 view .LVU178
 702 0010 ED09     		lsrs	r5, r5, #7
ARM GAS  /tmp/ccVfyJBo.s 			page 26


 703              	.LVL67:
 525:Middlewares/Third_Party/LwIP/src/apps/mqtt/mqtt.c **** 
 704              		.loc 1 525 3 discriminator 1 view .LVU179
 705 0012 FBD1     		bne	.L46
 527:Middlewares/Third_Party/LwIP/src/apps/mqtt/mqtt.c **** }
 706              		.loc 1 527 3 is_stmt 1 view .LVU180
 527:Middlewares/Third_Party/LwIP/src/apps/mqtt/mqtt.c **** }
 707              		.loc 1 527 24 is_stmt 0 view .LVU181
 708 0014 3046     		mov	r0, r6
 709 0016 FFF7FEFF 		bl	mqtt_ringbuf_len
 710              	.LVL68:
 711 001a C0F58070 		rsb	r0, r0, #256
 528:Middlewares/Third_Party/LwIP/src/apps/mqtt/mqtt.c **** 
 712              		.loc 1 528 1 view .LVU182
 713 001e 8442     		cmp	r4, r0
 714 0020 CCBF     		ite	gt
 715 0022 0020     		movgt	r0, #0
 716 0024 0120     		movle	r0, #1
 717 0026 70BD     		pop	{r4, r5, r6, pc}
 718              	.LVL69:
 719              	.L48:
 519:Middlewares/Third_Party/LwIP/src/apps/mqtt/mqtt.c **** 
 720              		.loc 1 519 3 is_stmt 1 discriminator 1 view .LVU183
 519:Middlewares/Third_Party/LwIP/src/apps/mqtt/mqtt.c **** 
 721              		.loc 1 519 3 discriminator 1 view .LVU184
 722 0028 034B     		ldr	r3, .L49
 723 002a 40F20722 		movw	r2, #519
 724 002e 0349     		ldr	r1, .L49+4
 725              	.LVL70:
 519:Middlewares/Third_Party/LwIP/src/apps/mqtt/mqtt.c **** 
 726              		.loc 1 519 3 is_stmt 0 discriminator 1 view .LVU185
 727 0030 0348     		ldr	r0, .L49+8
 728              	.LVL71:
 519:Middlewares/Third_Party/LwIP/src/apps/mqtt/mqtt.c **** 
 729              		.loc 1 519 3 discriminator 1 view .LVU186
 730 0032 FFF7FEFF 		bl	printf
 731              	.LVL72:
 732 0036 E9E7     		b	.L46
 733              	.L50:
 734              		.align	2
 735              	.L49:
 736 0038 00000000 		.word	.LC0
 737 003c 00000000 		.word	.LC3
 738 0040 58000000 		.word	.LC2
 739              		.cfi_endproc
 740              	.LFE185:
 742              		.section	.rodata.mqtt_append_request.str1.4,"aMS",%progbits,1
 743              		.align	2
 744              	.LC4:
 745 0000 6D717474 		.ascii	"mqtt_append_request: tail != NULL\000"
 745      5F617070 
 745      656E645F 
 745      72657175 
 745      6573743A 
 746 0022 0000     		.align	2
 747              	.LC5:
 748 0024 6D717474 		.ascii	"mqtt_append_request: time_before <= MQTT_REQ_TIMEOU"
ARM GAS  /tmp/ccVfyJBo.s 			page 27


 748      5F617070 
 748      656E645F 
 748      72657175 
 748      6573743A 
 749 0057 5400     		.ascii	"T\000"
 750              		.section	.text.mqtt_append_request,"ax",%progbits
 751              		.align	1
 752              		.syntax unified
 753              		.thumb
 754              		.thumb_func
 756              	mqtt_append_request:
 757              	.LVL73:
 758              	.LFB174:
 314:Middlewares/Third_Party/LwIP/src/apps/mqtt/mqtt.c ****   struct mqtt_request_t *head = NULL;
 759              		.loc 1 314 1 is_stmt 1 view -0
 760              		.cfi_startproc
 761              		@ args = 0, pretend = 0, frame = 0
 762              		@ frame_needed = 0, uses_anonymous_args = 0
 314:Middlewares/Third_Party/LwIP/src/apps/mqtt/mqtt.c ****   struct mqtt_request_t *head = NULL;
 763              		.loc 1 314 1 is_stmt 0 view .LVU188
 764 0000 F8B5     		push	{r3, r4, r5, r6, r7, lr}
 765              	.LCFI8:
 766              		.cfi_def_cfa_offset 24
 767              		.cfi_offset 3, -24
 768              		.cfi_offset 4, -20
 769              		.cfi_offset 5, -16
 770              		.cfi_offset 6, -12
 771              		.cfi_offset 7, -8
 772              		.cfi_offset 14, -4
 773 0002 0E46     		mov	r6, r1
 315:Middlewares/Third_Party/LwIP/src/apps/mqtt/mqtt.c ****   s16_t time_before = 0;
 774              		.loc 1 315 3 is_stmt 1 view .LVU189
 775              	.LVL74:
 316:Middlewares/Third_Party/LwIP/src/apps/mqtt/mqtt.c ****   struct mqtt_request_t *iter;
 776              		.loc 1 316 3 view .LVU190
 317:Middlewares/Third_Party/LwIP/src/apps/mqtt/mqtt.c **** 
 777              		.loc 1 317 3 view .LVU191
 319:Middlewares/Third_Party/LwIP/src/apps/mqtt/mqtt.c **** 
 778              		.loc 1 319 3 view .LVU192
 319:Middlewares/Third_Party/LwIP/src/apps/mqtt/mqtt.c **** 
 779              		.loc 1 319 3 view .LVU193
 780 0004 0746     		mov	r7, r0
 781 0006 18B1     		cbz	r0, .L59
 782              	.LVL75:
 783              	.L52:
 319:Middlewares/Third_Party/LwIP/src/apps/mqtt/mqtt.c **** 
 784              		.loc 1 319 3 discriminator 3 view .LVU194
 319:Middlewares/Third_Party/LwIP/src/apps/mqtt/mqtt.c **** 
 785              		.loc 1 319 3 discriminator 3 view .LVU195
 322:Middlewares/Third_Party/LwIP/src/apps/mqtt/mqtt.c ****     time_before += iter->timeout_diff;
 786              		.loc 1 322 3 discriminator 3 view .LVU196
 322:Middlewares/Third_Party/LwIP/src/apps/mqtt/mqtt.c ****     time_before += iter->timeout_diff;
 787              		.loc 1 322 13 is_stmt 0 discriminator 3 view .LVU197
 788 0008 3B68     		ldr	r3, [r7]
 789              	.LVL76:
 316:Middlewares/Third_Party/LwIP/src/apps/mqtt/mqtt.c ****   struct mqtt_request_t *iter;
 790              		.loc 1 316 9 discriminator 3 view .LVU198
ARM GAS  /tmp/ccVfyJBo.s 			page 28


 791 000a 0024     		movs	r4, #0
 315:Middlewares/Third_Party/LwIP/src/apps/mqtt/mqtt.c ****   s16_t time_before = 0;
 792              		.loc 1 315 26 discriminator 3 view .LVU199
 793 000c 2546     		mov	r5, r4
 322:Middlewares/Third_Party/LwIP/src/apps/mqtt/mqtt.c ****     time_before += iter->timeout_diff;
 794              		.loc 1 322 3 discriminator 3 view .LVU200
 795 000e 0CE0     		b	.L53
 796              	.LVL77:
 797              	.L59:
 319:Middlewares/Third_Party/LwIP/src/apps/mqtt/mqtt.c **** 
 798              		.loc 1 319 3 is_stmt 1 discriminator 1 view .LVU201
 319:Middlewares/Third_Party/LwIP/src/apps/mqtt/mqtt.c **** 
 799              		.loc 1 319 3 discriminator 1 view .LVU202
 800 0010 104B     		ldr	r3, .L62
 801 0012 40F23F12 		movw	r2, #319
 802 0016 1049     		ldr	r1, .L62+4
 803              	.LVL78:
 319:Middlewares/Third_Party/LwIP/src/apps/mqtt/mqtt.c **** 
 804              		.loc 1 319 3 is_stmt 0 discriminator 1 view .LVU203
 805 0018 1048     		ldr	r0, .L62+8
 806              	.LVL79:
 319:Middlewares/Third_Party/LwIP/src/apps/mqtt/mqtt.c **** 
 807              		.loc 1 319 3 discriminator 1 view .LVU204
 808 001a FFF7FEFF 		bl	printf
 809              	.LVL80:
 810 001e F3E7     		b	.L52
 811              	.LVL81:
 812              	.L54:
 323:Middlewares/Third_Party/LwIP/src/apps/mqtt/mqtt.c ****     head = iter;
 813              		.loc 1 323 5 is_stmt 1 discriminator 3 view .LVU205
 323:Middlewares/Third_Party/LwIP/src/apps/mqtt/mqtt.c ****     head = iter;
 814              		.loc 1 323 24 is_stmt 0 discriminator 3 view .LVU206
 815 0020 DA89     		ldrh	r2, [r3, #14]
 323:Middlewares/Third_Party/LwIP/src/apps/mqtt/mqtt.c ****     head = iter;
 816              		.loc 1 323 17 discriminator 3 view .LVU207
 817 0022 1444     		add	r4, r4, r2
 818              	.LVL82:
 323:Middlewares/Third_Party/LwIP/src/apps/mqtt/mqtt.c ****     head = iter;
 819              		.loc 1 323 17 discriminator 3 view .LVU208
 820 0024 24B2     		sxth	r4, r4
 821              	.LVL83:
 324:Middlewares/Third_Party/LwIP/src/apps/mqtt/mqtt.c ****   }
 822              		.loc 1 324 5 is_stmt 1 discriminator 3 view .LVU209
 322:Middlewares/Third_Party/LwIP/src/apps/mqtt/mqtt.c ****     time_before += iter->timeout_diff;
 823              		.loc 1 322 36 discriminator 3 view .LVU210
 324:Middlewares/Third_Party/LwIP/src/apps/mqtt/mqtt.c ****   }
 824              		.loc 1 324 10 is_stmt 0 discriminator 3 view .LVU211
 825 0026 1D46     		mov	r5, r3
 322:Middlewares/Third_Party/LwIP/src/apps/mqtt/mqtt.c ****     time_before += iter->timeout_diff;
 826              		.loc 1 322 41 discriminator 3 view .LVU212
 827 0028 1B68     		ldr	r3, [r3]
 828              	.LVL84:
 829              	.L53:
 322:Middlewares/Third_Party/LwIP/src/apps/mqtt/mqtt.c ****     time_before += iter->timeout_diff;
 830              		.loc 1 322 22 is_stmt 1 discriminator 1 view .LVU213
 322:Middlewares/Third_Party/LwIP/src/apps/mqtt/mqtt.c ****     time_before += iter->timeout_diff;
 831              		.loc 1 322 3 is_stmt 0 discriminator 1 view .LVU214
ARM GAS  /tmp/ccVfyJBo.s 			page 29


 832 002a 002B     		cmp	r3, #0
 833 002c F8D1     		bne	.L54
 327:Middlewares/Third_Party/LwIP/src/apps/mqtt/mqtt.c ****   r->timeout_diff = MQTT_REQ_TIMEOUT - time_before;
 834              		.loc 1 327 3 is_stmt 1 view .LVU215
 327:Middlewares/Third_Party/LwIP/src/apps/mqtt/mqtt.c ****   r->timeout_diff = MQTT_REQ_TIMEOUT - time_before;
 835              		.loc 1 327 3 view .LVU216
 836 002e 1E2C     		cmp	r4, #30
 837 0030 05DC     		bgt	.L60
 838              	.LVL85:
 839              	.L55:
 327:Middlewares/Third_Party/LwIP/src/apps/mqtt/mqtt.c ****   r->timeout_diff = MQTT_REQ_TIMEOUT - time_before;
 840              		.loc 1 327 3 discriminator 3 view .LVU217
 327:Middlewares/Third_Party/LwIP/src/apps/mqtt/mqtt.c ****   r->timeout_diff = MQTT_REQ_TIMEOUT - time_before;
 841              		.loc 1 327 3 discriminator 3 view .LVU218
 328:Middlewares/Third_Party/LwIP/src/apps/mqtt/mqtt.c ****   if (head == NULL) {
 842              		.loc 1 328 3 discriminator 3 view .LVU219
 328:Middlewares/Third_Party/LwIP/src/apps/mqtt/mqtt.c ****   if (head == NULL) {
 843              		.loc 1 328 38 is_stmt 0 discriminator 3 view .LVU220
 844 0032 C4F11E04 		rsb	r4, r4, #30
 845              	.LVL86:
 328:Middlewares/Third_Party/LwIP/src/apps/mqtt/mqtt.c ****   if (head == NULL) {
 846              		.loc 1 328 19 discriminator 3 view .LVU221
 847 0036 F481     		strh	r4, [r6, #14]	@ movhi
 329:Middlewares/Third_Party/LwIP/src/apps/mqtt/mqtt.c ****     *tail = r;
 848              		.loc 1 329 3 is_stmt 1 discriminator 3 view .LVU222
 329:Middlewares/Third_Party/LwIP/src/apps/mqtt/mqtt.c ****     *tail = r;
 849              		.loc 1 329 6 is_stmt 0 discriminator 3 view .LVU223
 850 0038 4DB1     		cbz	r5, .L61
 332:Middlewares/Third_Party/LwIP/src/apps/mqtt/mqtt.c ****   }
 851              		.loc 1 332 5 is_stmt 1 view .LVU224
 332:Middlewares/Third_Party/LwIP/src/apps/mqtt/mqtt.c ****   }
 852              		.loc 1 332 16 is_stmt 0 view .LVU225
 853 003a 2E60     		str	r6, [r5]
 854              	.L51:
 334:Middlewares/Third_Party/LwIP/src/apps/mqtt/mqtt.c **** 
 855              		.loc 1 334 1 view .LVU226
 856 003c F8BD     		pop	{r3, r4, r5, r6, r7, pc}
 857              	.LVL87:
 858              	.L60:
 327:Middlewares/Third_Party/LwIP/src/apps/mqtt/mqtt.c ****   r->timeout_diff = MQTT_REQ_TIMEOUT - time_before;
 859              		.loc 1 327 3 is_stmt 1 discriminator 1 view .LVU227
 327:Middlewares/Third_Party/LwIP/src/apps/mqtt/mqtt.c ****   r->timeout_diff = MQTT_REQ_TIMEOUT - time_before;
 860              		.loc 1 327 3 discriminator 1 view .LVU228
 861 003e 054B     		ldr	r3, .L62
 862              	.LVL88:
 327:Middlewares/Third_Party/LwIP/src/apps/mqtt/mqtt.c ****   r->timeout_diff = MQTT_REQ_TIMEOUT - time_before;
 863              		.loc 1 327 3 is_stmt 0 discriminator 1 view .LVU229
 864 0040 40F24712 		movw	r2, #327
 865 0044 0649     		ldr	r1, .L62+12
 866 0046 0548     		ldr	r0, .L62+8
 867 0048 FFF7FEFF 		bl	printf
 868              	.LVL89:
 869 004c F1E7     		b	.L55
 870              	.LVL90:
 871              	.L61:
 330:Middlewares/Third_Party/LwIP/src/apps/mqtt/mqtt.c ****   } else {
 872              		.loc 1 330 5 is_stmt 1 view .LVU230
ARM GAS  /tmp/ccVfyJBo.s 			page 30


 330:Middlewares/Third_Party/LwIP/src/apps/mqtt/mqtt.c ****   } else {
 873              		.loc 1 330 11 is_stmt 0 view .LVU231
 874 004e 3E60     		str	r6, [r7]
 875 0050 F4E7     		b	.L51
 876              	.L63:
 877 0052 00BF     		.align	2
 878              	.L62:
 879 0054 00000000 		.word	.LC0
 880 0058 00000000 		.word	.LC4
 881 005c 58000000 		.word	.LC2
 882 0060 24000000 		.word	.LC5
 883              		.cfi_endproc
 884              	.LFE174:
 886              		.section	.rodata.mqtt_ringbuf_advance_get_idx.str1.4,"aMS",%progbits,1
 887              		.align	2
 888              	.LC6:
 889 0000 6D717474 		.ascii	"mqtt_ringbuf_advance_get_idx: len < MQTT_OUTPUT_RIN"
 889      5F72696E 
 889      67627566 
 889      5F616476 
 889      616E6365 
 890 0033 47425546 		.ascii	"GBUF_SIZE\000"
 890      5F53495A 
 890      4500
 891              		.section	.text.mqtt_ringbuf_advance_get_idx,"ax",%progbits
 892              		.align	1
 893              		.syntax unified
 894              		.thumb
 895              		.thumb_func
 897              	mqtt_ringbuf_advance_get_idx:
 898              	.LVL91:
 899              	.LFB170:
 202:Middlewares/Third_Party/LwIP/src/apps/mqtt/mqtt.c ****   LWIP_ASSERT("mqtt_ringbuf_advance_get_idx: len < MQTT_OUTPUT_RINGBUF_SIZE", len < MQTT_OUTPUT_RIN
 900              		.loc 1 202 1 is_stmt 1 view -0
 901              		.cfi_startproc
 902              		@ args = 0, pretend = 0, frame = 0
 903              		@ frame_needed = 0, uses_anonymous_args = 0
 202:Middlewares/Third_Party/LwIP/src/apps/mqtt/mqtt.c ****   LWIP_ASSERT("mqtt_ringbuf_advance_get_idx: len < MQTT_OUTPUT_RINGBUF_SIZE", len < MQTT_OUTPUT_RIN
 904              		.loc 1 202 1 is_stmt 0 view .LVU233
 905 0000 38B5     		push	{r3, r4, r5, lr}
 906              	.LCFI9:
 907              		.cfi_def_cfa_offset 16
 908              		.cfi_offset 3, -16
 909              		.cfi_offset 4, -12
 910              		.cfi_offset 5, -8
 911              		.cfi_offset 14, -4
 912 0002 0546     		mov	r5, r0
 913 0004 0C46     		mov	r4, r1
 203:Middlewares/Third_Party/LwIP/src/apps/mqtt/mqtt.c **** 
 914              		.loc 1 203 3 is_stmt 1 view .LVU234
 203:Middlewares/Third_Party/LwIP/src/apps/mqtt/mqtt.c **** 
 915              		.loc 1 203 3 view .LVU235
 916 0006 FF29     		cmp	r1, #255
 917 0008 09D8     		bhi	.L68
 918              	.LVL92:
 919              	.L65:
 203:Middlewares/Third_Party/LwIP/src/apps/mqtt/mqtt.c **** 
ARM GAS  /tmp/ccVfyJBo.s 			page 31


 920              		.loc 1 203 3 discriminator 3 view .LVU236
 203:Middlewares/Third_Party/LwIP/src/apps/mqtt/mqtt.c **** 
 921              		.loc 1 203 3 discriminator 3 view .LVU237
 205:Middlewares/Third_Party/LwIP/src/apps/mqtt/mqtt.c ****   if (rb->get >= MQTT_OUTPUT_RINGBUF_SIZE) {
 922              		.loc 1 205 3 discriminator 3 view .LVU238
 205:Middlewares/Third_Party/LwIP/src/apps/mqtt/mqtt.c ****   if (rb->get >= MQTT_OUTPUT_RINGBUF_SIZE) {
 923              		.loc 1 205 11 is_stmt 0 discriminator 3 view .LVU239
 924 000a 6988     		ldrh	r1, [r5, #2]
 925 000c 2144     		add	r1, r1, r4
 926 000e 89B2     		uxth	r1, r1
 927 0010 6980     		strh	r1, [r5, #2]	@ movhi
 206:Middlewares/Third_Party/LwIP/src/apps/mqtt/mqtt.c ****     rb->get = rb->get - MQTT_OUTPUT_RINGBUF_SIZE;
 928              		.loc 1 206 3 is_stmt 1 discriminator 3 view .LVU240
 206:Middlewares/Third_Party/LwIP/src/apps/mqtt/mqtt.c ****     rb->get = rb->get - MQTT_OUTPUT_RINGBUF_SIZE;
 929              		.loc 1 206 6 is_stmt 0 discriminator 3 view .LVU241
 930 0012 FF29     		cmp	r1, #255
 931 0014 02D9     		bls	.L64
 207:Middlewares/Third_Party/LwIP/src/apps/mqtt/mqtt.c ****   }
 932              		.loc 1 207 5 is_stmt 1 view .LVU242
 207:Middlewares/Third_Party/LwIP/src/apps/mqtt/mqtt.c ****   }
 933              		.loc 1 207 23 is_stmt 0 view .LVU243
 934 0016 A1F58071 		sub	r1, r1, #256
 207:Middlewares/Third_Party/LwIP/src/apps/mqtt/mqtt.c ****   }
 935              		.loc 1 207 13 view .LVU244
 936 001a 6980     		strh	r1, [r5, #2]	@ movhi
 937              	.L64:
 209:Middlewares/Third_Party/LwIP/src/apps/mqtt/mqtt.c **** 
 938              		.loc 1 209 1 view .LVU245
 939 001c 38BD     		pop	{r3, r4, r5, pc}
 940              	.LVL93:
 941              	.L68:
 203:Middlewares/Third_Party/LwIP/src/apps/mqtt/mqtt.c **** 
 942              		.loc 1 203 3 is_stmt 1 discriminator 1 view .LVU246
 203:Middlewares/Third_Party/LwIP/src/apps/mqtt/mqtt.c **** 
 943              		.loc 1 203 3 discriminator 1 view .LVU247
 944 001e 034B     		ldr	r3, .L69
 945 0020 CB22     		movs	r2, #203
 946 0022 0349     		ldr	r1, .L69+4
 947              	.LVL94:
 203:Middlewares/Third_Party/LwIP/src/apps/mqtt/mqtt.c **** 
 948              		.loc 1 203 3 is_stmt 0 discriminator 1 view .LVU248
 949 0024 0348     		ldr	r0, .L69+8
 950              	.LVL95:
 203:Middlewares/Third_Party/LwIP/src/apps/mqtt/mqtt.c **** 
 951              		.loc 1 203 3 discriminator 1 view .LVU249
 952 0026 FFF7FEFF 		bl	printf
 953              	.LVL96:
 954 002a EEE7     		b	.L65
 955              	.L70:
 956              		.align	2
 957              	.L69:
 958 002c 00000000 		.word	.LC0
 959 0030 00000000 		.word	.LC6
 960 0034 58000000 		.word	.LC2
 961              		.cfi_endproc
 962              	.LFE170:
 964              		.section	.rodata.mqtt_request_time_elapsed.str1.4,"aMS",%progbits,1
ARM GAS  /tmp/ccVfyJBo.s 			page 32


 965              		.align	2
 966              	.LC7:
 967 0000 6D717474 		.ascii	"mqtt_request_time_elapsed: tail != NULL\000"
 967      5F726571 
 967      75657374 
 967      5F74696D 
 967      655F656C 
 968              		.section	.text.mqtt_request_time_elapsed,"ax",%progbits
 969              		.align	1
 970              		.syntax unified
 971              		.thumb
 972              		.thumb_func
 974              	mqtt_request_time_elapsed:
 975              	.LVL97:
 976              	.LFB177:
 392:Middlewares/Third_Party/LwIP/src/apps/mqtt/mqtt.c ****   struct mqtt_request_t *r;
 977              		.loc 1 392 1 is_stmt 1 view -0
 978              		.cfi_startproc
 979              		@ args = 0, pretend = 0, frame = 0
 980              		@ frame_needed = 0, uses_anonymous_args = 0
 392:Middlewares/Third_Party/LwIP/src/apps/mqtt/mqtt.c ****   struct mqtt_request_t *r;
 981              		.loc 1 392 1 is_stmt 0 view .LVU251
 982 0000 70B5     		push	{r4, r5, r6, lr}
 983              	.LCFI10:
 984              		.cfi_def_cfa_offset 16
 985              		.cfi_offset 4, -16
 986              		.cfi_offset 5, -12
 987              		.cfi_offset 6, -8
 988              		.cfi_offset 14, -4
 989 0002 0D46     		mov	r5, r1
 393:Middlewares/Third_Party/LwIP/src/apps/mqtt/mqtt.c ****   LWIP_ASSERT("mqtt_request_time_elapsed: tail != NULL", tail != NULL);
 990              		.loc 1 393 3 is_stmt 1 view .LVU252
 394:Middlewares/Third_Party/LwIP/src/apps/mqtt/mqtt.c ****   r = *tail;
 991              		.loc 1 394 3 view .LVU253
 394:Middlewares/Third_Party/LwIP/src/apps/mqtt/mqtt.c ****   r = *tail;
 992              		.loc 1 394 3 view .LVU254
 993 0004 0646     		mov	r6, r0
 994 0006 08B1     		cbz	r0, .L79
 995              	.LVL98:
 996              	.L72:
 394:Middlewares/Third_Party/LwIP/src/apps/mqtt/mqtt.c ****   r = *tail;
 997              		.loc 1 394 3 discriminator 3 view .LVU255
 394:Middlewares/Third_Party/LwIP/src/apps/mqtt/mqtt.c ****   r = *tail;
 998              		.loc 1 394 3 discriminator 3 view .LVU256
 395:Middlewares/Third_Party/LwIP/src/apps/mqtt/mqtt.c ****   while (t > 0 && r != NULL) {
 999              		.loc 1 395 3 discriminator 3 view .LVU257
 395:Middlewares/Third_Party/LwIP/src/apps/mqtt/mqtt.c ****   while (t > 0 && r != NULL) {
 1000              		.loc 1 395 5 is_stmt 0 discriminator 3 view .LVU258
 1001 0008 3468     		ldr	r4, [r6]
 1002              	.LVL99:
 396:Middlewares/Third_Party/LwIP/src/apps/mqtt/mqtt.c ****     if (t >= r->timeout_diff) {
 1003              		.loc 1 396 3 is_stmt 1 discriminator 3 view .LVU259
 396:Middlewares/Third_Party/LwIP/src/apps/mqtt/mqtt.c ****     if (t >= r->timeout_diff) {
 1004              		.loc 1 396 9 is_stmt 0 discriminator 3 view .LVU260
 1005 000a 0BE0     		b	.L73
 1006              	.LVL100:
 1007              	.L79:
ARM GAS  /tmp/ccVfyJBo.s 			page 33


 394:Middlewares/Third_Party/LwIP/src/apps/mqtt/mqtt.c ****   r = *tail;
 1008              		.loc 1 394 3 is_stmt 1 discriminator 1 view .LVU261
 394:Middlewares/Third_Party/LwIP/src/apps/mqtt/mqtt.c ****   r = *tail;
 1009              		.loc 1 394 3 discriminator 1 view .LVU262
 1010 000c 124B     		ldr	r3, .L81
 1011 000e 4FF4C572 		mov	r2, #394
 1012 0012 1249     		ldr	r1, .L81+4
 1013              	.LVL101:
 394:Middlewares/Third_Party/LwIP/src/apps/mqtt/mqtt.c ****   r = *tail;
 1014              		.loc 1 394 3 is_stmt 0 discriminator 1 view .LVU263
 1015 0014 1248     		ldr	r0, .L81+8
 1016              	.LVL102:
 394:Middlewares/Third_Party/LwIP/src/apps/mqtt/mqtt.c ****   r = *tail;
 1017              		.loc 1 394 3 discriminator 1 view .LVU264
 1018 0016 FFF7FEFF 		bl	printf
 1019              	.LVL103:
 1020 001a F5E7     		b	.L72
 1021              	.LVL104:
 1022              	.L75:
 405:Middlewares/Third_Party/LwIP/src/apps/mqtt/mqtt.c ****       /* Tail might be be modified in callback, so re-read it in every iteration */
 1023              		.loc 1 405 7 is_stmt 1 view .LVU265
 1024 001c 2046     		mov	r0, r4
 1025 001e FFF7FEFF 		bl	mqtt_delete_request
 1026              	.LVL105:
 407:Middlewares/Third_Party/LwIP/src/apps/mqtt/mqtt.c ****     } else {
 1027              		.loc 1 407 7 view .LVU266
 407:Middlewares/Third_Party/LwIP/src/apps/mqtt/mqtt.c ****     } else {
 1028              		.loc 1 407 9 is_stmt 0 view .LVU267
 1029 0022 3468     		ldr	r4, [r6]
 1030              	.LVL106:
 1031              	.L73:
 396:Middlewares/Third_Party/LwIP/src/apps/mqtt/mqtt.c ****     if (t >= r->timeout_diff) {
 1032              		.loc 1 396 9 is_stmt 1 view .LVU268
 1033 0024 002D     		cmp	r5, #0
 1034 0026 18BF     		it	ne
 1035 0028 002C     		cmpne	r4, #0
 1036 002a 14D0     		beq	.L80
 397:Middlewares/Third_Party/LwIP/src/apps/mqtt/mqtt.c ****       t -= (u8_t)r->timeout_diff;
 1037              		.loc 1 397 5 view .LVU269
 397:Middlewares/Third_Party/LwIP/src/apps/mqtt/mqtt.c ****       t -= (u8_t)r->timeout_diff;
 1038              		.loc 1 397 11 is_stmt 0 view .LVU270
 1039 002c AAB2     		uxth	r2, r5
 397:Middlewares/Third_Party/LwIP/src/apps/mqtt/mqtt.c ****       t -= (u8_t)r->timeout_diff;
 1040              		.loc 1 397 15 view .LVU271
 1041 002e E389     		ldrh	r3, [r4, #14]
 397:Middlewares/Third_Party/LwIP/src/apps/mqtt/mqtt.c ****       t -= (u8_t)r->timeout_diff;
 1042              		.loc 1 397 8 view .LVU272
 1043 0030 9A42     		cmp	r2, r3
 1044 0032 0CD3     		bcc	.L74
 398:Middlewares/Third_Party/LwIP/src/apps/mqtt/mqtt.c ****       /* Unchain */
 1045              		.loc 1 398 7 is_stmt 1 view .LVU273
 398:Middlewares/Third_Party/LwIP/src/apps/mqtt/mqtt.c ****       /* Unchain */
 1046              		.loc 1 398 12 is_stmt 0 view .LVU274
 1047 0034 DBB2     		uxtb	r3, r3
 398:Middlewares/Third_Party/LwIP/src/apps/mqtt/mqtt.c ****       /* Unchain */
 1048              		.loc 1 398 9 view .LVU275
 1049 0036 EB1A     		subs	r3, r5, r3
ARM GAS  /tmp/ccVfyJBo.s 			page 34


 1050 0038 DDB2     		uxtb	r5, r3
 1051              	.LVL107:
 400:Middlewares/Third_Party/LwIP/src/apps/mqtt/mqtt.c ****       /* Notify upper layer about timeout */
 1052              		.loc 1 400 7 is_stmt 1 view .LVU276
 400:Middlewares/Third_Party/LwIP/src/apps/mqtt/mqtt.c ****       /* Notify upper layer about timeout */
 1053              		.loc 1 400 16 is_stmt 0 view .LVU277
 1054 003a 2368     		ldr	r3, [r4]
 400:Middlewares/Third_Party/LwIP/src/apps/mqtt/mqtt.c ****       /* Notify upper layer about timeout */
 1055              		.loc 1 400 13 view .LVU278
 1056 003c 3360     		str	r3, [r6]
 402:Middlewares/Third_Party/LwIP/src/apps/mqtt/mqtt.c ****         r->cb(r->arg, ERR_TIMEOUT);
 1057              		.loc 1 402 7 is_stmt 1 view .LVU279
 402:Middlewares/Third_Party/LwIP/src/apps/mqtt/mqtt.c ****         r->cb(r->arg, ERR_TIMEOUT);
 1058              		.loc 1 402 12 is_stmt 0 view .LVU280
 1059 003e 6368     		ldr	r3, [r4, #4]
 402:Middlewares/Third_Party/LwIP/src/apps/mqtt/mqtt.c ****         r->cb(r->arg, ERR_TIMEOUT);
 1060              		.loc 1 402 10 view .LVU281
 1061 0040 002B     		cmp	r3, #0
 1062 0042 EBD0     		beq	.L75
 403:Middlewares/Third_Party/LwIP/src/apps/mqtt/mqtt.c ****       }
 1063              		.loc 1 403 9 is_stmt 1 view .LVU282
 1064 0044 6FF00201 		mvn	r1, #2
 1065 0048 A068     		ldr	r0, [r4, #8]
 1066 004a 9847     		blx	r3
 1067              	.LVL108:
 1068 004c E6E7     		b	.L75
 1069              	.L74:
 409:Middlewares/Third_Party/LwIP/src/apps/mqtt/mqtt.c ****       t = 0;
 1070              		.loc 1 409 7 view .LVU283
 409:Middlewares/Third_Party/LwIP/src/apps/mqtt/mqtt.c ****       t = 0;
 1071              		.loc 1 409 23 is_stmt 0 view .LVU284
 1072 004e 9B1A     		subs	r3, r3, r2
 1073 0050 E381     		strh	r3, [r4, #14]	@ movhi
 410:Middlewares/Third_Party/LwIP/src/apps/mqtt/mqtt.c ****     }
 1074              		.loc 1 410 7 is_stmt 1 view .LVU285
 1075              	.LVL109:
 410:Middlewares/Third_Party/LwIP/src/apps/mqtt/mqtt.c ****     }
 1076              		.loc 1 410 9 is_stmt 0 view .LVU286
 1077 0052 0025     		movs	r5, #0
 1078 0054 E6E7     		b	.L73
 1079              	.LVL110:
 1080              	.L80:
 413:Middlewares/Third_Party/LwIP/src/apps/mqtt/mqtt.c **** 
 1081              		.loc 1 413 1 view .LVU287
 1082 0056 70BD     		pop	{r4, r5, r6, pc}
 1083              	.LVL111:
 1084              	.L82:
 413:Middlewares/Third_Party/LwIP/src/apps/mqtt/mqtt.c **** 
 1085              		.loc 1 413 1 view .LVU288
 1086              		.align	2
 1087              	.L81:
 1088 0058 00000000 		.word	.LC0
 1089 005c 00000000 		.word	.LC7
 1090 0060 58000000 		.word	.LC2
 1091              		.cfi_endproc
 1092              	.LFE177:
 1094              		.section	.rodata.mqtt_clear_requests.str1.4,"aMS",%progbits,1
ARM GAS  /tmp/ccVfyJBo.s 			page 35


 1095              		.align	2
 1096              	.LC8:
 1097 0000 6D717474 		.ascii	"mqtt_clear_requests: tail != NULL\000"
 1097      5F636C65 
 1097      61725F72 
 1097      65717565 
 1097      7374733A 
 1098              		.section	.text.mqtt_clear_requests,"ax",%progbits
 1099              		.align	1
 1100              		.syntax unified
 1101              		.thumb
 1102              		.thumb_func
 1104              	mqtt_clear_requests:
 1105              	.LVL112:
 1106              	.LFB178:
 421:Middlewares/Third_Party/LwIP/src/apps/mqtt/mqtt.c ****   struct mqtt_request_t *iter, *next;
 1107              		.loc 1 421 1 is_stmt 1 view -0
 1108              		.cfi_startproc
 1109              		@ args = 0, pretend = 0, frame = 0
 1110              		@ frame_needed = 0, uses_anonymous_args = 0
 421:Middlewares/Third_Party/LwIP/src/apps/mqtt/mqtt.c ****   struct mqtt_request_t *iter, *next;
 1111              		.loc 1 421 1 is_stmt 0 view .LVU290
 1112 0000 38B5     		push	{r3, r4, r5, lr}
 1113              	.LCFI11:
 1114              		.cfi_def_cfa_offset 16
 1115              		.cfi_offset 3, -16
 1116              		.cfi_offset 4, -12
 1117              		.cfi_offset 5, -8
 1118              		.cfi_offset 14, -4
 422:Middlewares/Third_Party/LwIP/src/apps/mqtt/mqtt.c ****   LWIP_ASSERT("mqtt_clear_requests: tail != NULL", tail != NULL);
 1119              		.loc 1 422 3 is_stmt 1 view .LVU291
 423:Middlewares/Third_Party/LwIP/src/apps/mqtt/mqtt.c ****   for (iter = *tail; iter != NULL; iter = next) {
 1120              		.loc 1 423 3 view .LVU292
 423:Middlewares/Third_Party/LwIP/src/apps/mqtt/mqtt.c ****   for (iter = *tail; iter != NULL; iter = next) {
 1121              		.loc 1 423 3 view .LVU293
 1122 0002 0546     		mov	r5, r0
 1123 0004 08B1     		cbz	r0, .L88
 1124              	.LVL113:
 1125              	.L84:
 423:Middlewares/Third_Party/LwIP/src/apps/mqtt/mqtt.c ****   for (iter = *tail; iter != NULL; iter = next) {
 1126              		.loc 1 423 3 discriminator 3 view .LVU294
 423:Middlewares/Third_Party/LwIP/src/apps/mqtt/mqtt.c ****   for (iter = *tail; iter != NULL; iter = next) {
 1127              		.loc 1 423 3 discriminator 3 view .LVU295
 424:Middlewares/Third_Party/LwIP/src/apps/mqtt/mqtt.c ****     next = iter->next;
 1128              		.loc 1 424 3 discriminator 3 view .LVU296
 424:Middlewares/Third_Party/LwIP/src/apps/mqtt/mqtt.c ****     next = iter->next;
 1129              		.loc 1 424 13 is_stmt 0 discriminator 3 view .LVU297
 1130 0006 2868     		ldr	r0, [r5]
 1131              	.LVL114:
 424:Middlewares/Third_Party/LwIP/src/apps/mqtt/mqtt.c ****     next = iter->next;
 1132              		.loc 1 424 3 discriminator 3 view .LVU298
 1133 0008 0BE0     		b	.L85
 1134              	.LVL115:
 1135              	.L88:
 423:Middlewares/Third_Party/LwIP/src/apps/mqtt/mqtt.c ****   for (iter = *tail; iter != NULL; iter = next) {
 1136              		.loc 1 423 3 is_stmt 1 discriminator 1 view .LVU299
 423:Middlewares/Third_Party/LwIP/src/apps/mqtt/mqtt.c ****   for (iter = *tail; iter != NULL; iter = next) {
ARM GAS  /tmp/ccVfyJBo.s 			page 36


 1137              		.loc 1 423 3 discriminator 1 view .LVU300
 1138 000a 084B     		ldr	r3, .L89
 1139 000c 40F2A712 		movw	r2, #423
 1140 0010 0749     		ldr	r1, .L89+4
 1141 0012 0848     		ldr	r0, .L89+8
 1142              	.LVL116:
 423:Middlewares/Third_Party/LwIP/src/apps/mqtt/mqtt.c ****   for (iter = *tail; iter != NULL; iter = next) {
 1143              		.loc 1 423 3 is_stmt 0 discriminator 1 view .LVU301
 1144 0014 FFF7FEFF 		bl	printf
 1145              	.LVL117:
 1146 0018 F5E7     		b	.L84
 1147              	.LVL118:
 1148              	.L86:
 425:Middlewares/Third_Party/LwIP/src/apps/mqtt/mqtt.c ****     mqtt_delete_request(iter);
 1149              		.loc 1 425 5 is_stmt 1 discriminator 3 view .LVU302
 425:Middlewares/Third_Party/LwIP/src/apps/mqtt/mqtt.c ****     mqtt_delete_request(iter);
 1150              		.loc 1 425 10 is_stmt 0 discriminator 3 view .LVU303
 1151 001a 0468     		ldr	r4, [r0]
 1152              	.LVL119:
 426:Middlewares/Third_Party/LwIP/src/apps/mqtt/mqtt.c ****   }
 1153              		.loc 1 426 5 is_stmt 1 discriminator 3 view .LVU304
 1154 001c FFF7FEFF 		bl	mqtt_delete_request
 1155              	.LVL120:
 424:Middlewares/Third_Party/LwIP/src/apps/mqtt/mqtt.c ****     next = iter->next;
 1156              		.loc 1 424 36 discriminator 3 view .LVU305
 424:Middlewares/Third_Party/LwIP/src/apps/mqtt/mqtt.c ****     next = iter->next;
 1157              		.loc 1 424 41 is_stmt 0 discriminator 3 view .LVU306
 1158 0020 2046     		mov	r0, r4
 1159              	.LVL121:
 1160              	.L85:
 424:Middlewares/Third_Party/LwIP/src/apps/mqtt/mqtt.c ****     next = iter->next;
 1161              		.loc 1 424 22 is_stmt 1 discriminator 1 view .LVU307
 424:Middlewares/Third_Party/LwIP/src/apps/mqtt/mqtt.c ****     next = iter->next;
 1162              		.loc 1 424 3 is_stmt 0 discriminator 1 view .LVU308
 1163 0022 0028     		cmp	r0, #0
 1164 0024 F9D1     		bne	.L86
 428:Middlewares/Third_Party/LwIP/src/apps/mqtt/mqtt.c **** }
 1165              		.loc 1 428 3 is_stmt 1 view .LVU309
 428:Middlewares/Third_Party/LwIP/src/apps/mqtt/mqtt.c **** }
 1166              		.loc 1 428 9 is_stmt 0 view .LVU310
 1167 0026 0023     		movs	r3, #0
 1168 0028 2B60     		str	r3, [r5]
 429:Middlewares/Third_Party/LwIP/src/apps/mqtt/mqtt.c **** /**
 1169              		.loc 1 429 1 view .LVU311
 1170 002a 38BD     		pop	{r3, r4, r5, pc}
 1171              	.LVL122:
 1172              	.L90:
 429:Middlewares/Third_Party/LwIP/src/apps/mqtt/mqtt.c **** /**
 1173              		.loc 1 429 1 view .LVU312
 1174              		.align	2
 1175              	.L89:
 1176 002c 00000000 		.word	.LC0
 1177 0030 00000000 		.word	.LC8
 1178 0034 58000000 		.word	.LC2
 1179              		.cfi_endproc
 1180              	.LFE178:
 1182              		.section	.rodata.mqtt_take_request.str1.4,"aMS",%progbits,1
ARM GAS  /tmp/ccVfyJBo.s 			page 37


 1183              		.align	2
 1184              	.LC9:
 1185 0000 6D717474 		.ascii	"mqtt_take_request: tail != NULL\000"
 1185      5F74616B 
 1185      655F7265 
 1185      71756573 
 1185      743A2074 
 1186              		.section	.text.mqtt_take_request,"ax",%progbits
 1187              		.align	1
 1188              		.syntax unified
 1189              		.thumb
 1190              		.thumb_func
 1192              	mqtt_take_request:
 1193              	.LVL123:
 1194              	.LFB176:
 357:Middlewares/Third_Party/LwIP/src/apps/mqtt/mqtt.c ****   struct mqtt_request_t *iter = NULL, *prev = NULL;
 1195              		.loc 1 357 1 is_stmt 1 view -0
 1196              		.cfi_startproc
 1197              		@ args = 0, pretend = 0, frame = 0
 1198              		@ frame_needed = 0, uses_anonymous_args = 0
 357:Middlewares/Third_Party/LwIP/src/apps/mqtt/mqtt.c ****   struct mqtt_request_t *iter = NULL, *prev = NULL;
 1199              		.loc 1 357 1 is_stmt 0 view .LVU314
 1200 0000 38B5     		push	{r3, r4, r5, lr}
 1201              	.LCFI12:
 1202              		.cfi_def_cfa_offset 16
 1203              		.cfi_offset 3, -16
 1204              		.cfi_offset 4, -12
 1205              		.cfi_offset 5, -8
 1206              		.cfi_offset 14, -4
 1207 0002 0C46     		mov	r4, r1
 358:Middlewares/Third_Party/LwIP/src/apps/mqtt/mqtt.c ****   LWIP_ASSERT("mqtt_take_request: tail != NULL", tail != NULL);
 1208              		.loc 1 358 3 is_stmt 1 view .LVU315
 1209              	.LVL124:
 359:Middlewares/Third_Party/LwIP/src/apps/mqtt/mqtt.c ****   /* Search all request for pkt_id */
 1210              		.loc 1 359 3 view .LVU316
 359:Middlewares/Third_Party/LwIP/src/apps/mqtt/mqtt.c ****   /* Search all request for pkt_id */
 1211              		.loc 1 359 3 view .LVU317
 1212 0004 0546     		mov	r5, r0
 1213 0006 10B1     		cbz	r0, .L101
 1214              	.LVL125:
 1215              	.L92:
 359:Middlewares/Third_Party/LwIP/src/apps/mqtt/mqtt.c ****   /* Search all request for pkt_id */
 1216              		.loc 1 359 3 discriminator 3 view .LVU318
 359:Middlewares/Third_Party/LwIP/src/apps/mqtt/mqtt.c ****   /* Search all request for pkt_id */
 1217              		.loc 1 359 3 discriminator 3 view .LVU319
 361:Middlewares/Third_Party/LwIP/src/apps/mqtt/mqtt.c ****     if (iter->pkt_id == pkt_id) {
 1218              		.loc 1 361 3 discriminator 3 view .LVU320
 361:Middlewares/Third_Party/LwIP/src/apps/mqtt/mqtt.c ****     if (iter->pkt_id == pkt_id) {
 1219              		.loc 1 361 13 is_stmt 0 discriminator 3 view .LVU321
 1220 0008 2868     		ldr	r0, [r5]
 1221              	.LVL126:
 358:Middlewares/Third_Party/LwIP/src/apps/mqtt/mqtt.c ****   LWIP_ASSERT("mqtt_take_request: tail != NULL", tail != NULL);
 1222              		.loc 1 358 40 discriminator 3 view .LVU322
 1223 000a 0022     		movs	r2, #0
 361:Middlewares/Third_Party/LwIP/src/apps/mqtt/mqtt.c ****     if (iter->pkt_id == pkt_id) {
 1224              		.loc 1 361 3 discriminator 3 view .LVU323
 1225 000c 09E0     		b	.L93
ARM GAS  /tmp/ccVfyJBo.s 			page 38


 1226              	.LVL127:
 1227              	.L101:
 359:Middlewares/Third_Party/LwIP/src/apps/mqtt/mqtt.c ****   /* Search all request for pkt_id */
 1228              		.loc 1 359 3 is_stmt 1 discriminator 1 view .LVU324
 359:Middlewares/Third_Party/LwIP/src/apps/mqtt/mqtt.c ****   /* Search all request for pkt_id */
 1229              		.loc 1 359 3 discriminator 1 view .LVU325
 1230 000e 0F4B     		ldr	r3, .L104
 1231 0010 40F26712 		movw	r2, #359
 1232 0014 0E49     		ldr	r1, .L104+4
 1233              	.LVL128:
 359:Middlewares/Third_Party/LwIP/src/apps/mqtt/mqtt.c ****   /* Search all request for pkt_id */
 1234              		.loc 1 359 3 is_stmt 0 discriminator 1 view .LVU326
 1235 0016 0F48     		ldr	r0, .L104+8
 1236              	.LVL129:
 359:Middlewares/Third_Party/LwIP/src/apps/mqtt/mqtt.c ****   /* Search all request for pkt_id */
 1237              		.loc 1 359 3 discriminator 1 view .LVU327
 1238 0018 FFF7FEFF 		bl	printf
 1239              	.LVL130:
 1240 001c F4E7     		b	.L92
 1241              	.LVL131:
 1242              	.L102:
 365:Middlewares/Third_Party/LwIP/src/apps/mqtt/mqtt.c ****   }
 1243              		.loc 1 365 5 is_stmt 1 discriminator 2 view .LVU328
 361:Middlewares/Third_Party/LwIP/src/apps/mqtt/mqtt.c ****     if (iter->pkt_id == pkt_id) {
 1244              		.loc 1 361 36 discriminator 2 view .LVU329
 365:Middlewares/Third_Party/LwIP/src/apps/mqtt/mqtt.c ****   }
 1245              		.loc 1 365 10 is_stmt 0 discriminator 2 view .LVU330
 1246 001e 0246     		mov	r2, r0
 361:Middlewares/Third_Party/LwIP/src/apps/mqtt/mqtt.c ****     if (iter->pkt_id == pkt_id) {
 1247              		.loc 1 361 41 discriminator 2 view .LVU331
 1248 0020 0068     		ldr	r0, [r0]
 1249              	.LVL132:
 1250              	.L93:
 361:Middlewares/Third_Party/LwIP/src/apps/mqtt/mqtt.c ****     if (iter->pkt_id == pkt_id) {
 1251              		.loc 1 361 22 is_stmt 1 discriminator 1 view .LVU332
 361:Middlewares/Third_Party/LwIP/src/apps/mqtt/mqtt.c ****     if (iter->pkt_id == pkt_id) {
 1252              		.loc 1 361 3 is_stmt 0 discriminator 1 view .LVU333
 1253 0022 10B1     		cbz	r0, .L94
 362:Middlewares/Third_Party/LwIP/src/apps/mqtt/mqtt.c ****       break;
 1254              		.loc 1 362 5 is_stmt 1 view .LVU334
 362:Middlewares/Third_Party/LwIP/src/apps/mqtt/mqtt.c ****       break;
 1255              		.loc 1 362 13 is_stmt 0 view .LVU335
 1256 0024 8389     		ldrh	r3, [r0, #12]
 362:Middlewares/Third_Party/LwIP/src/apps/mqtt/mqtt.c ****       break;
 1257              		.loc 1 362 8 view .LVU336
 1258 0026 A342     		cmp	r3, r4
 1259 0028 F9D1     		bne	.L102
 1260              	.L94:
 369:Middlewares/Third_Party/LwIP/src/apps/mqtt/mqtt.c ****     /* unchain */
 1261              		.loc 1 369 3 is_stmt 1 view .LVU337
 369:Middlewares/Third_Party/LwIP/src/apps/mqtt/mqtt.c ****     /* unchain */
 1262              		.loc 1 369 6 is_stmt 0 view .LVU338
 1263 002a 50B1     		cbz	r0, .L91
 371:Middlewares/Third_Party/LwIP/src/apps/mqtt/mqtt.c ****       *tail = iter->next;
 1264              		.loc 1 371 5 is_stmt 1 view .LVU339
 371:Middlewares/Third_Party/LwIP/src/apps/mqtt/mqtt.c ****       *tail = iter->next;
 1265              		.loc 1 371 8 is_stmt 0 view .LVU340
ARM GAS  /tmp/ccVfyJBo.s 			page 39


 1266 002c 52B1     		cbz	r2, .L103
 374:Middlewares/Third_Party/LwIP/src/apps/mqtt/mqtt.c ****     }
 1267              		.loc 1 374 7 is_stmt 1 view .LVU341
 374:Middlewares/Third_Party/LwIP/src/apps/mqtt/mqtt.c ****     }
 1268              		.loc 1 374 24 is_stmt 0 view .LVU342
 1269 002e 0368     		ldr	r3, [r0]
 374:Middlewares/Third_Party/LwIP/src/apps/mqtt/mqtt.c ****     }
 1270              		.loc 1 374 18 view .LVU343
 1271 0030 1360     		str	r3, [r2]
 1272              	.L98:
 377:Middlewares/Third_Party/LwIP/src/apps/mqtt/mqtt.c ****       iter->next->timeout_diff += iter->timeout_diff;
 1273              		.loc 1 377 5 is_stmt 1 view .LVU344
 377:Middlewares/Third_Party/LwIP/src/apps/mqtt/mqtt.c ****       iter->next->timeout_diff += iter->timeout_diff;
 1274              		.loc 1 377 13 is_stmt 0 view .LVU345
 1275 0032 0368     		ldr	r3, [r0]
 377:Middlewares/Third_Party/LwIP/src/apps/mqtt/mqtt.c ****       iter->next->timeout_diff += iter->timeout_diff;
 1276              		.loc 1 377 8 view .LVU346
 1277 0034 1BB1     		cbz	r3, .L99
 378:Middlewares/Third_Party/LwIP/src/apps/mqtt/mqtt.c ****     }
 1278              		.loc 1 378 7 is_stmt 1 view .LVU347
 378:Middlewares/Third_Party/LwIP/src/apps/mqtt/mqtt.c ****     }
 1279              		.loc 1 378 39 is_stmt 0 view .LVU348
 1280 0036 C289     		ldrh	r2, [r0, #14]
 1281              	.LVL133:
 378:Middlewares/Third_Party/LwIP/src/apps/mqtt/mqtt.c ****     }
 1282              		.loc 1 378 32 view .LVU349
 1283 0038 D989     		ldrh	r1, [r3, #14]
 1284 003a 0A44     		add	r2, r2, r1
 1285 003c DA81     		strh	r2, [r3, #14]	@ movhi
 1286              	.L99:
 380:Middlewares/Third_Party/LwIP/src/apps/mqtt/mqtt.c ****   }
 1287              		.loc 1 380 5 is_stmt 1 view .LVU350
 380:Middlewares/Third_Party/LwIP/src/apps/mqtt/mqtt.c ****   }
 1288              		.loc 1 380 16 is_stmt 0 view .LVU351
 1289 003e 0023     		movs	r3, #0
 1290 0040 0360     		str	r3, [r0]
 382:Middlewares/Third_Party/LwIP/src/apps/mqtt/mqtt.c **** }
 1291              		.loc 1 382 3 is_stmt 1 view .LVU352
 1292              	.L91:
 383:Middlewares/Third_Party/LwIP/src/apps/mqtt/mqtt.c **** 
 1293              		.loc 1 383 1 is_stmt 0 view .LVU353
 1294 0042 38BD     		pop	{r3, r4, r5, pc}
 1295              	.LVL134:
 1296              	.L103:
 372:Middlewares/Third_Party/LwIP/src/apps/mqtt/mqtt.c ****     } else {
 1297              		.loc 1 372 7 is_stmt 1 view .LVU354
 372:Middlewares/Third_Party/LwIP/src/apps/mqtt/mqtt.c ****     } else {
 1298              		.loc 1 372 19 is_stmt 0 view .LVU355
 1299 0044 0368     		ldr	r3, [r0]
 372:Middlewares/Third_Party/LwIP/src/apps/mqtt/mqtt.c ****     } else {
 1300              		.loc 1 372 13 view .LVU356
 1301 0046 2B60     		str	r3, [r5]
 1302 0048 F3E7     		b	.L98
 1303              	.L105:
 1304 004a 00BF     		.align	2
 1305              	.L104:
 1306 004c 00000000 		.word	.LC0
ARM GAS  /tmp/ccVfyJBo.s 			page 40


 1307 0050 00000000 		.word	.LC9
 1308 0054 58000000 		.word	.LC2
 1309              		.cfi_endproc
 1310              	.LFE176:
 1312              		.section	.rodata.mqtt_init_requests.str1.4,"aMS",%progbits,1
 1313              		.align	2
 1314              	.LC10:
 1315 0000 6D717474 		.ascii	"mqtt_init_requests: r_objs != NULL\000"
 1315      5F696E69 
 1315      745F7265 
 1315      71756573 
 1315      74733A20 
 1316              		.section	.text.mqtt_init_requests,"ax",%progbits
 1317              		.align	1
 1318              		.syntax unified
 1319              		.thumb
 1320              		.thumb_func
 1322              	mqtt_init_requests:
 1323              	.LVL135:
 1324              	.LFB179:
 437:Middlewares/Third_Party/LwIP/src/apps/mqtt/mqtt.c ****   u8_t n;
 1325              		.loc 1 437 1 is_stmt 1 view -0
 1326              		.cfi_startproc
 1327              		@ args = 0, pretend = 0, frame = 0
 1328              		@ frame_needed = 0, uses_anonymous_args = 0
 437:Middlewares/Third_Party/LwIP/src/apps/mqtt/mqtt.c ****   u8_t n;
 1329              		.loc 1 437 1 is_stmt 0 view .LVU358
 1330 0000 38B5     		push	{r3, r4, r5, lr}
 1331              	.LCFI13:
 1332              		.cfi_def_cfa_offset 16
 1333              		.cfi_offset 3, -16
 1334              		.cfi_offset 4, -12
 1335              		.cfi_offset 5, -8
 1336              		.cfi_offset 14, -4
 1337 0002 0D46     		mov	r5, r1
 438:Middlewares/Third_Party/LwIP/src/apps/mqtt/mqtt.c ****   LWIP_ASSERT("mqtt_init_requests: r_objs != NULL", r_objs != NULL);
 1338              		.loc 1 438 3 is_stmt 1 view .LVU359
 439:Middlewares/Third_Party/LwIP/src/apps/mqtt/mqtt.c ****   for (n = 0; n < r_objs_len; n++) {
 1339              		.loc 1 439 3 view .LVU360
 439:Middlewares/Third_Party/LwIP/src/apps/mqtt/mqtt.c ****   for (n = 0; n < r_objs_len; n++) {
 1340              		.loc 1 439 3 view .LVU361
 1341 0004 0446     		mov	r4, r0
 1342 0006 08B1     		cbz	r0, .L111
 1343              	.LVL136:
 1344              	.L107:
 437:Middlewares/Third_Party/LwIP/src/apps/mqtt/mqtt.c ****   u8_t n;
 1345              		.loc 1 437 1 is_stmt 0 discriminator 1 view .LVU362
 1346 0008 0023     		movs	r3, #0
 1347 000a 0DE0     		b	.L108
 1348              	.LVL137:
 1349              	.L111:
 439:Middlewares/Third_Party/LwIP/src/apps/mqtt/mqtt.c ****   for (n = 0; n < r_objs_len; n++) {
 1350              		.loc 1 439 3 is_stmt 1 discriminator 1 view .LVU363
 439:Middlewares/Third_Party/LwIP/src/apps/mqtt/mqtt.c ****   for (n = 0; n < r_objs_len; n++) {
 1351              		.loc 1 439 3 discriminator 1 view .LVU364
 1352 000c 084B     		ldr	r3, .L112
 1353 000e 40F2B712 		movw	r2, #439
ARM GAS  /tmp/ccVfyJBo.s 			page 41


 1354 0012 0849     		ldr	r1, .L112+4
 1355              	.LVL138:
 439:Middlewares/Third_Party/LwIP/src/apps/mqtt/mqtt.c ****   for (n = 0; n < r_objs_len; n++) {
 1356              		.loc 1 439 3 is_stmt 0 discriminator 1 view .LVU365
 1357 0014 0848     		ldr	r0, .L112+8
 1358              	.LVL139:
 439:Middlewares/Third_Party/LwIP/src/apps/mqtt/mqtt.c ****   for (n = 0; n < r_objs_len; n++) {
 1359              		.loc 1 439 3 discriminator 1 view .LVU366
 1360 0016 FFF7FEFF 		bl	printf
 1361              	.LVL140:
 1362 001a F5E7     		b	.L107
 1363              	.LVL141:
 1364              	.L109:
 442:Middlewares/Third_Party/LwIP/src/apps/mqtt/mqtt.c ****   }
 1365              		.loc 1 442 5 is_stmt 1 discriminator 3 view .LVU367
 442:Middlewares/Third_Party/LwIP/src/apps/mqtt/mqtt.c ****   }
 1366              		.loc 1 442 29 is_stmt 0 discriminator 3 view .LVU368
 1367 001c 1A01     		lsls	r2, r3, #4
 442:Middlewares/Third_Party/LwIP/src/apps/mqtt/mqtt.c ****   }
 1368              		.loc 1 442 11 discriminator 3 view .LVU369
 1369 001e 04EB0310 		add	r0, r4, r3, lsl #4
 442:Middlewares/Third_Party/LwIP/src/apps/mqtt/mqtt.c ****   }
 1370              		.loc 1 442 20 discriminator 3 view .LVU370
 1371 0022 A050     		str	r0, [r4, r2]
 440:Middlewares/Third_Party/LwIP/src/apps/mqtt/mqtt.c ****     /* Item pointing to itself indicates unused */
 1372              		.loc 1 440 31 is_stmt 1 discriminator 3 view .LVU371
 440:Middlewares/Third_Party/LwIP/src/apps/mqtt/mqtt.c ****     /* Item pointing to itself indicates unused */
 1373              		.loc 1 440 32 is_stmt 0 discriminator 3 view .LVU372
 1374 0024 0133     		adds	r3, r3, #1
 1375              	.LVL142:
 440:Middlewares/Third_Party/LwIP/src/apps/mqtt/mqtt.c ****     /* Item pointing to itself indicates unused */
 1376              		.loc 1 440 32 discriminator 3 view .LVU373
 1377 0026 DBB2     		uxtb	r3, r3
 1378              	.LVL143:
 1379              	.L108:
 440:Middlewares/Third_Party/LwIP/src/apps/mqtt/mqtt.c ****     /* Item pointing to itself indicates unused */
 1380              		.loc 1 440 15 is_stmt 1 discriminator 1 view .LVU374
 440:Middlewares/Third_Party/LwIP/src/apps/mqtt/mqtt.c ****     /* Item pointing to itself indicates unused */
 1381              		.loc 1 440 3 is_stmt 0 discriminator 1 view .LVU375
 1382 0028 AB42     		cmp	r3, r5
 1383 002a F7D3     		bcc	.L109
 444:Middlewares/Third_Party/LwIP/src/apps/mqtt/mqtt.c **** 
 1384              		.loc 1 444 1 view .LVU376
 1385 002c 38BD     		pop	{r3, r4, r5, pc}
 1386              	.LVL144:
 1387              	.L113:
 444:Middlewares/Third_Party/LwIP/src/apps/mqtt/mqtt.c **** 
 1388              		.loc 1 444 1 view .LVU377
 1389 002e 00BF     		.align	2
 1390              	.L112:
 1391 0030 00000000 		.word	.LC0
 1392 0034 00000000 		.word	.LC10
 1393 0038 58000000 		.word	.LC2
 1394              		.cfi_endproc
 1395              	.LFE179:
 1397              		.section	.rodata.mqtt_output_send.str1.4,"aMS",%progbits,1
 1398              		.align	2
ARM GAS  /tmp/ccVfyJBo.s 			page 42


 1399              	.LC11:
 1400 0000 6D717474 		.ascii	"mqtt_output_send: tpcb != NULL\000"
 1400      5F6F7574 
 1400      7075745F 
 1400      73656E64 
 1400      3A207470 
 1401              		.section	.text.mqtt_output_send,"ax",%progbits
 1402              		.align	1
 1403              		.syntax unified
 1404              		.thumb
 1405              		.thumb_func
 1407              	mqtt_output_send:
 1408              	.LVL145:
 1409              	.LFB172:
 235:Middlewares/Third_Party/LwIP/src/apps/mqtt/mqtt.c ****   err_t err;
 1410              		.loc 1 235 1 is_stmt 1 view -0
 1411              		.cfi_startproc
 1412              		@ args = 0, pretend = 0, frame = 0
 1413              		@ frame_needed = 0, uses_anonymous_args = 0
 235:Middlewares/Third_Party/LwIP/src/apps/mqtt/mqtt.c ****   err_t err;
 1414              		.loc 1 235 1 is_stmt 0 view .LVU379
 1415 0000 2DE9F041 		push	{r4, r5, r6, r7, r8, lr}
 1416              	.LCFI14:
 1417              		.cfi_def_cfa_offset 24
 1418              		.cfi_offset 4, -24
 1419              		.cfi_offset 5, -20
 1420              		.cfi_offset 6, -16
 1421              		.cfi_offset 7, -12
 1422              		.cfi_offset 8, -8
 1423              		.cfi_offset 14, -4
 1424 0004 0646     		mov	r6, r0
 1425 0006 0D46     		mov	r5, r1
 236:Middlewares/Third_Party/LwIP/src/apps/mqtt/mqtt.c ****   u8_t wrap = 0;
 1426              		.loc 1 236 3 is_stmt 1 view .LVU380
 237:Middlewares/Third_Party/LwIP/src/apps/mqtt/mqtt.c ****   u16_t ringbuf_lin_len = mqtt_ringbuf_linear_read_length(rb);
 1427              		.loc 1 237 3 view .LVU381
 1428              	.LVL146:
 238:Middlewares/Third_Party/LwIP/src/apps/mqtt/mqtt.c ****   u16_t send_len = altcp_sndbuf(tpcb);
 1429              		.loc 1 238 3 view .LVU382
 238:Middlewares/Third_Party/LwIP/src/apps/mqtt/mqtt.c ****   u16_t send_len = altcp_sndbuf(tpcb);
 1430              		.loc 1 238 27 is_stmt 0 view .LVU383
 1431 0008 FFF7FEFF 		bl	mqtt_ringbuf_len
 1432              	.LVL147:
 238:Middlewares/Third_Party/LwIP/src/apps/mqtt/mqtt.c ****   u16_t send_len = altcp_sndbuf(tpcb);
 1433              		.loc 1 238 27 view .LVU384
 1434 000c 0446     		mov	r4, r0
 1435 000e 7088     		ldrh	r0, [r6, #2]
 1436 0010 C0F58073 		rsb	r3, r0, #256
 238:Middlewares/Third_Party/LwIP/src/apps/mqtt/mqtt.c ****   u16_t send_len = altcp_sndbuf(tpcb);
 1437              		.loc 1 238 9 view .LVU385
 1438 0014 9C42     		cmp	r4, r3
 1439 0016 00DB     		blt	.L115
 238:Middlewares/Third_Party/LwIP/src/apps/mqtt/mqtt.c ****   u16_t send_len = altcp_sndbuf(tpcb);
 1440              		.loc 1 238 9 discriminator 2 view .LVU386
 1441 0018 9CB2     		uxth	r4, r3
 1442              	.L115:
 1443              	.LVL148:
ARM GAS  /tmp/ccVfyJBo.s 			page 43


 239:Middlewares/Third_Party/LwIP/src/apps/mqtt/mqtt.c ****   LWIP_ASSERT("mqtt_output_send: tpcb != NULL", tpcb != NULL);
 1444              		.loc 1 239 3 is_stmt 1 discriminator 4 view .LVU387
 239:Middlewares/Third_Party/LwIP/src/apps/mqtt/mqtt.c ****   LWIP_ASSERT("mqtt_output_send: tpcb != NULL", tpcb != NULL);
 1445              		.loc 1 239 9 is_stmt 0 discriminator 4 view .LVU388
 1446 001a B5F86470 		ldrh	r7, [r5, #100]
 1447              	.LVL149:
 240:Middlewares/Third_Party/LwIP/src/apps/mqtt/mqtt.c **** 
 1448              		.loc 1 240 3 is_stmt 1 discriminator 4 view .LVU389
 240:Middlewares/Third_Party/LwIP/src/apps/mqtt/mqtt.c **** 
 1449              		.loc 1 240 3 discriminator 4 view .LVU390
 1450 001e 2DB3     		cbz	r5, .L128
 1451              	.L116:
 240:Middlewares/Third_Party/LwIP/src/apps/mqtt/mqtt.c **** 
 1452              		.loc 1 240 3 discriminator 3 view .LVU391
 240:Middlewares/Third_Party/LwIP/src/apps/mqtt/mqtt.c **** 
 1453              		.loc 1 240 3 discriminator 3 view .LVU392
 242:Middlewares/Third_Party/LwIP/src/apps/mqtt/mqtt.c ****     return;
 1454              		.loc 1 242 3 discriminator 3 view .LVU393
 242:Middlewares/Third_Party/LwIP/src/apps/mqtt/mqtt.c ****     return;
 1455              		.loc 1 242 6 is_stmt 0 discriminator 3 view .LVU394
 1456 0020 002C     		cmp	r4, #0
 1457 0022 18BF     		it	ne
 1458 0024 002F     		cmpne	r7, #0
 1459 0026 1FD0     		beq	.L114
 247:Middlewares/Third_Party/LwIP/src/apps/mqtt/mqtt.c **** 
 1460              		.loc 1 247 79 is_stmt 1 view .LVU395
 249:Middlewares/Third_Party/LwIP/src/apps/mqtt/mqtt.c ****     /* Space in TCP output buffer is larger than available in ring buffer linear portion */
 1461              		.loc 1 249 3 view .LVU396
 249:Middlewares/Third_Party/LwIP/src/apps/mqtt/mqtt.c ****     /* Space in TCP output buffer is larger than available in ring buffer linear portion */
 1462              		.loc 1 249 6 is_stmt 0 view .LVU397
 1463 0028 BC42     		cmp	r4, r7
 1464 002a 26D2     		bcs	.L123
 251:Middlewares/Third_Party/LwIP/src/apps/mqtt/mqtt.c ****     /* Wrap around if more data in ring buffer after linear portion */
 1465              		.loc 1 251 5 is_stmt 1 view .LVU398
 1466              	.LVL150:
 253:Middlewares/Third_Party/LwIP/src/apps/mqtt/mqtt.c ****   }
 1467              		.loc 1 253 5 view .LVU399
 253:Middlewares/Third_Party/LwIP/src/apps/mqtt/mqtt.c ****   }
 1468              		.loc 1 253 13 is_stmt 0 view .LVU400
 1469 002c 3046     		mov	r0, r6
 1470 002e FFF7FEFF 		bl	mqtt_ringbuf_len
 1471              	.LVL151:
 253:Middlewares/Third_Party/LwIP/src/apps/mqtt/mqtt.c ****   }
 1472              		.loc 1 253 34 view .LVU401
 1473 0032 A042     		cmp	r0, r4
 1474 0034 94BF     		ite	ls
 1475 0036 4FF00008 		movls	r8, #0
 1476 003a 4FF00108 		movhi	r8, #1
 1477              	.LVL152:
 251:Middlewares/Third_Party/LwIP/src/apps/mqtt/mqtt.c ****     /* Wrap around if more data in ring buffer after linear portion */
 1478              		.loc 1 251 14 view .LVU402
 1479 003e 2746     		mov	r7, r4
 1480              	.LVL153:
 1481              	.L118:
 255:Middlewares/Third_Party/LwIP/src/apps/mqtt/mqtt.c ****   if ((err == ERR_OK) && wrap) {
 1482              		.loc 1 255 3 is_stmt 1 view .LVU403
 255:Middlewares/Third_Party/LwIP/src/apps/mqtt/mqtt.c ****   if ((err == ERR_OK) && wrap) {
ARM GAS  /tmp/ccVfyJBo.s 			page 44


 1483              		.loc 1 255 27 is_stmt 0 view .LVU404
 1484 0040 3046     		mov	r0, r6
 1485 0042 FFF7FEFF 		bl	mqtt_ringbuf_get_ptr
 1486              	.LVL154:
 1487 0046 0146     		mov	r1, r0
 255:Middlewares/Third_Party/LwIP/src/apps/mqtt/mqtt.c ****   if ((err == ERR_OK) && wrap) {
 1488              		.loc 1 255 9 view .LVU405
 1489 0048 B8F1000F 		cmp	r8, #0
 1490 004c 18D0     		beq	.L124
 1491 004e 0323     		movs	r3, #3
 1492              	.L119:
 255:Middlewares/Third_Party/LwIP/src/apps/mqtt/mqtt.c ****   if ((err == ERR_OK) && wrap) {
 1493              		.loc 1 255 9 discriminator 4 view .LVU406
 1494 0050 3A46     		mov	r2, r7
 1495 0052 2846     		mov	r0, r5
 1496 0054 FFF7FEFF 		bl	tcp_write
 1497              	.LVL155:
 256:Middlewares/Third_Party/LwIP/src/apps/mqtt/mqtt.c ****     mqtt_ringbuf_advance_get_idx(rb, send_len);
 1498              		.loc 1 256 3 is_stmt 1 discriminator 4 view .LVU407
 256:Middlewares/Third_Party/LwIP/src/apps/mqtt/mqtt.c ****     mqtt_ringbuf_advance_get_idx(rb, send_len);
 1499              		.loc 1 256 12 is_stmt 0 discriminator 4 view .LVU408
 1500 0058 0246     		mov	r2, r0
 256:Middlewares/Third_Party/LwIP/src/apps/mqtt/mqtt.c ****     mqtt_ringbuf_advance_get_idx(rb, send_len);
 1501              		.loc 1 256 23 discriminator 4 view .LVU409
 1502 005a 0028     		cmp	r0, #0
 1503 005c 14BF     		ite	ne
 1504 005e 0023     		movne	r3, #0
 1505 0060 08F00103 		andeq	r3, r8, #1
 256:Middlewares/Third_Party/LwIP/src/apps/mqtt/mqtt.c ****     mqtt_ringbuf_advance_get_idx(rb, send_len);
 1506              		.loc 1 256 6 discriminator 4 view .LVU410
 1507 0064 73B9     		cbnz	r3, .L129
 1508              	.LVL156:
 1509              	.L120:
 263:Middlewares/Third_Party/LwIP/src/apps/mqtt/mqtt.c ****     mqtt_ringbuf_advance_get_idx(rb, send_len);
 1510              		.loc 1 263 3 is_stmt 1 view .LVU411
 263:Middlewares/Third_Party/LwIP/src/apps/mqtt/mqtt.c ****     mqtt_ringbuf_advance_get_idx(rb, send_len);
 1511              		.loc 1 263 6 is_stmt 0 view .LVU412
 1512 0066 9AB3     		cbz	r2, .L130
 1513              	.LVL157:
 1514              	.L114:
 270:Middlewares/Third_Party/LwIP/src/apps/mqtt/mqtt.c **** 
 1515              		.loc 1 270 1 view .LVU413
 1516 0068 BDE8F081 		pop	{r4, r5, r6, r7, r8, pc}
 1517              	.LVL158:
 1518              	.L128:
 240:Middlewares/Third_Party/LwIP/src/apps/mqtt/mqtt.c **** 
 1519              		.loc 1 240 3 is_stmt 1 discriminator 1 view .LVU414
 240:Middlewares/Third_Party/LwIP/src/apps/mqtt/mqtt.c **** 
 1520              		.loc 1 240 3 discriminator 1 view .LVU415
 1521 006c 1C4B     		ldr	r3, .L131
 1522 006e F022     		movs	r2, #240
 1523 0070 1C49     		ldr	r1, .L131+4
 1524 0072 1D48     		ldr	r0, .L131+8
 1525 0074 FFF7FEFF 		bl	printf
 1526              	.LVL159:
 1527 0078 D2E7     		b	.L116
 1528              	.L123:
ARM GAS  /tmp/ccVfyJBo.s 			page 45


 237:Middlewares/Third_Party/LwIP/src/apps/mqtt/mqtt.c ****   u16_t ringbuf_lin_len = mqtt_ringbuf_linear_read_length(rb);
 1529              		.loc 1 237 8 is_stmt 0 view .LVU416
 1530 007a 4FF00008 		mov	r8, #0
 1531 007e DFE7     		b	.L118
 1532              	.LVL160:
 1533              	.L124:
 255:Middlewares/Third_Party/LwIP/src/apps/mqtt/mqtt.c ****   if ((err == ERR_OK) && wrap) {
 1534              		.loc 1 255 9 view .LVU417
 1535 0080 0123     		movs	r3, #1
 1536 0082 E5E7     		b	.L119
 1537              	.LVL161:
 1538              	.L129:
 257:Middlewares/Third_Party/LwIP/src/apps/mqtt/mqtt.c ****     /* Use the lesser one of ring buffer linear length and TCP send buffer size */
 1539              		.loc 1 257 5 is_stmt 1 view .LVU418
 1540 0084 3946     		mov	r1, r7
 1541 0086 3046     		mov	r0, r6
 1542              	.LVL162:
 257:Middlewares/Third_Party/LwIP/src/apps/mqtt/mqtt.c ****     /* Use the lesser one of ring buffer linear length and TCP send buffer size */
 1543              		.loc 1 257 5 is_stmt 0 view .LVU419
 1544 0088 FFF7FEFF 		bl	mqtt_ringbuf_advance_get_idx
 1545              	.LVL163:
 259:Middlewares/Third_Party/LwIP/src/apps/mqtt/mqtt.c ****     err = altcp_write(tpcb, mqtt_ringbuf_get_ptr(rb), send_len, TCP_WRITE_FLAG_COPY);
 1546              		.loc 1 259 5 is_stmt 1 view .LVU420
 259:Middlewares/Third_Party/LwIP/src/apps/mqtt/mqtt.c ****     err = altcp_write(tpcb, mqtt_ringbuf_get_ptr(rb), send_len, TCP_WRITE_FLAG_COPY);
 1547              		.loc 1 259 16 is_stmt 0 view .LVU421
 1548 008c B5F86470 		ldrh	r7, [r5, #100]
 1549              	.LVL164:
 259:Middlewares/Third_Party/LwIP/src/apps/mqtt/mqtt.c ****     err = altcp_write(tpcb, mqtt_ringbuf_get_ptr(rb), send_len, TCP_WRITE_FLAG_COPY);
 1550              		.loc 1 259 16 view .LVU422
 1551 0090 3C46     		mov	r4, r7
 1552              	.LVL165:
 259:Middlewares/Third_Party/LwIP/src/apps/mqtt/mqtt.c ****     err = altcp_write(tpcb, mqtt_ringbuf_get_ptr(rb), send_len, TCP_WRITE_FLAG_COPY);
 1553              		.loc 1 259 16 view .LVU423
 1554 0092 3046     		mov	r0, r6
 1555 0094 FFF7FEFF 		bl	mqtt_ringbuf_len
 1556              	.LVL166:
 1557 0098 7288     		ldrh	r2, [r6, #2]
 1558 009a C2F58073 		rsb	r3, r2, #256
 1559 009e 9842     		cmp	r0, r3
 1560 00a0 12DA     		bge	.L125
 1561 00a2 0146     		mov	r1, r0
 1562              	.L121:
 259:Middlewares/Third_Party/LwIP/src/apps/mqtt/mqtt.c ****     err = altcp_write(tpcb, mqtt_ringbuf_get_ptr(rb), send_len, TCP_WRITE_FLAG_COPY);
 1563              		.loc 1 259 14 discriminator 4 view .LVU424
 1564 00a4 8C42     		cmp	r4, r1
 1565 00a6 04DB     		blt	.L122
 259:Middlewares/Third_Party/LwIP/src/apps/mqtt/mqtt.c ****     err = altcp_write(tpcb, mqtt_ringbuf_get_ptr(rb), send_len, TCP_WRITE_FLAG_COPY);
 1566              		.loc 1 259 14 discriminator 6 view .LVU425
 1567 00a8 9842     		cmp	r0, r3
 1568 00aa 0FDB     		blt	.L126
 259:Middlewares/Third_Party/LwIP/src/apps/mqtt/mqtt.c ****     err = altcp_write(tpcb, mqtt_ringbuf_get_ptr(rb), send_len, TCP_WRITE_FLAG_COPY);
 1569              		.loc 1 259 14 discriminator 9 view .LVU426
 1570 00ac C2F58072 		rsb	r2, r2, #256
 1571 00b0 97B2     		uxth	r7, r2
 1572              	.L122:
 1573              	.LVL167:
 260:Middlewares/Third_Party/LwIP/src/apps/mqtt/mqtt.c ****   }
ARM GAS  /tmp/ccVfyJBo.s 			page 46


 1574              		.loc 1 260 5 is_stmt 1 discriminator 12 view .LVU427
 260:Middlewares/Third_Party/LwIP/src/apps/mqtt/mqtt.c ****   }
 1575              		.loc 1 260 29 is_stmt 0 discriminator 12 view .LVU428
 1576 00b2 3046     		mov	r0, r6
 1577 00b4 FFF7FEFF 		bl	mqtt_ringbuf_get_ptr
 1578              	.LVL168:
 1579 00b8 0146     		mov	r1, r0
 260:Middlewares/Third_Party/LwIP/src/apps/mqtt/mqtt.c ****   }
 1580              		.loc 1 260 11 discriminator 12 view .LVU429
 1581 00ba 0123     		movs	r3, #1
 1582 00bc 3A46     		mov	r2, r7
 1583 00be 2846     		mov	r0, r5
 1584 00c0 FFF7FEFF 		bl	tcp_write
 1585              	.LVL169:
 1586 00c4 0246     		mov	r2, r0
 1587              	.LVL170:
 260:Middlewares/Third_Party/LwIP/src/apps/mqtt/mqtt.c ****   }
 1588              		.loc 1 260 11 discriminator 12 view .LVU430
 1589 00c6 CEE7     		b	.L120
 1590              	.LVL171:
 1591              	.L125:
 259:Middlewares/Third_Party/LwIP/src/apps/mqtt/mqtt.c ****     err = altcp_write(tpcb, mqtt_ringbuf_get_ptr(rb), send_len, TCP_WRITE_FLAG_COPY);
 1592              		.loc 1 259 16 view .LVU431
 1593 00c8 1946     		mov	r1, r3
 1594 00ca EBE7     		b	.L121
 1595              	.L126:
 1596 00cc 0746     		mov	r7, r0
 1597 00ce F0E7     		b	.L122
 1598              	.LVL172:
 1599              	.L130:
 264:Middlewares/Third_Party/LwIP/src/apps/mqtt/mqtt.c ****     /* Flush */
 1600              		.loc 1 264 5 is_stmt 1 view .LVU432
 1601 00d0 3946     		mov	r1, r7
 1602 00d2 3046     		mov	r0, r6
 1603 00d4 FFF7FEFF 		bl	mqtt_ringbuf_advance_get_idx
 1604              	.LVL173:
 266:Middlewares/Third_Party/LwIP/src/apps/mqtt/mqtt.c ****   } else {
 1605              		.loc 1 266 5 view .LVU433
 1606 00d8 2846     		mov	r0, r5
 1607 00da FFF7FEFF 		bl	tcp_output
 1608              	.LVL174:
 268:Middlewares/Third_Party/LwIP/src/apps/mqtt/mqtt.c ****   }
 1609              		.loc 1 268 114 view .LVU434
 1610 00de C3E7     		b	.L114
 1611              	.L132:
 1612              		.align	2
 1613              	.L131:
 1614 00e0 00000000 		.word	.LC0
 1615 00e4 00000000 		.word	.LC11
 1616 00e8 58000000 		.word	.LC2
 1617              		.cfi_endproc
 1618              	.LFE172:
 1620              		.section	.text.mqtt_tcp_poll_cb,"ax",%progbits
 1621              		.align	1
 1622              		.syntax unified
 1623              		.thumb
 1624              		.thumb_func
ARM GAS  /tmp/ccVfyJBo.s 			page 47


 1626              	mqtt_tcp_poll_cb:
 1627              	.LVL175:
 1628              	.LFB195:
 662:Middlewares/Third_Party/LwIP/src/apps/mqtt/mqtt.c **** 
 663:Middlewares/Third_Party/LwIP/src/apps/mqtt/mqtt.c **** 
 664:Middlewares/Third_Party/LwIP/src/apps/mqtt/mqtt.c **** /**
 665:Middlewares/Third_Party/LwIP/src/apps/mqtt/mqtt.c ****  * Complete MQTT message received or buffer full
 666:Middlewares/Third_Party/LwIP/src/apps/mqtt/mqtt.c ****  * @param client MQTT client
 667:Middlewares/Third_Party/LwIP/src/apps/mqtt/mqtt.c ****  * @param fixed_hdr_idx header index
 668:Middlewares/Third_Party/LwIP/src/apps/mqtt/mqtt.c ****  * @param length length received part
 669:Middlewares/Third_Party/LwIP/src/apps/mqtt/mqtt.c ****  * @param remaining_length Remaining length of complete message
 670:Middlewares/Third_Party/LwIP/src/apps/mqtt/mqtt.c ****  */
 671:Middlewares/Third_Party/LwIP/src/apps/mqtt/mqtt.c **** static mqtt_connection_status_t
 672:Middlewares/Third_Party/LwIP/src/apps/mqtt/mqtt.c **** mqtt_message_received(mqtt_client_t *client, u8_t fixed_hdr_idx, u16_t length, u32_t remaining_leng
 673:Middlewares/Third_Party/LwIP/src/apps/mqtt/mqtt.c **** {
 674:Middlewares/Third_Party/LwIP/src/apps/mqtt/mqtt.c ****   mqtt_connection_status_t res = MQTT_CONNECT_ACCEPTED;
 675:Middlewares/Third_Party/LwIP/src/apps/mqtt/mqtt.c **** 
 676:Middlewares/Third_Party/LwIP/src/apps/mqtt/mqtt.c ****   u8_t *var_hdr_payload = client->rx_buffer + fixed_hdr_idx;
 677:Middlewares/Third_Party/LwIP/src/apps/mqtt/mqtt.c ****   size_t var_hdr_payload_bufsize = sizeof(client->rx_buffer) - fixed_hdr_idx;
 678:Middlewares/Third_Party/LwIP/src/apps/mqtt/mqtt.c **** 
 679:Middlewares/Third_Party/LwIP/src/apps/mqtt/mqtt.c ****   /* Control packet type */
 680:Middlewares/Third_Party/LwIP/src/apps/mqtt/mqtt.c ****   u8_t pkt_type = MQTT_CTL_PACKET_TYPE(client->rx_buffer[0]);
 681:Middlewares/Third_Party/LwIP/src/apps/mqtt/mqtt.c ****   u16_t pkt_id = 0;
 682:Middlewares/Third_Party/LwIP/src/apps/mqtt/mqtt.c **** 
 683:Middlewares/Third_Party/LwIP/src/apps/mqtt/mqtt.c ****   LWIP_ASSERT("client->msg_idx < MQTT_VAR_HEADER_BUFFER_LEN", client->msg_idx < MQTT_VAR_HEADER_BUF
 684:Middlewares/Third_Party/LwIP/src/apps/mqtt/mqtt.c ****   LWIP_ASSERT("fixed_hdr_idx <= client->msg_idx", fixed_hdr_idx <= client->msg_idx);
 685:Middlewares/Third_Party/LwIP/src/apps/mqtt/mqtt.c ****   LWIP_ERROR("buffer length mismatch", fixed_hdr_idx + length <= MQTT_VAR_HEADER_BUFFER_LEN,
 686:Middlewares/Third_Party/LwIP/src/apps/mqtt/mqtt.c ****              return MQTT_CONNECT_DISCONNECTED);
 687:Middlewares/Third_Party/LwIP/src/apps/mqtt/mqtt.c **** 
 688:Middlewares/Third_Party/LwIP/src/apps/mqtt/mqtt.c ****   if (pkt_type == MQTT_MSG_TYPE_CONNACK) {
 689:Middlewares/Third_Party/LwIP/src/apps/mqtt/mqtt.c ****     if (client->conn_state == MQTT_CONNECTING) {
 690:Middlewares/Third_Party/LwIP/src/apps/mqtt/mqtt.c ****       if (length < 2) {
 691:Middlewares/Third_Party/LwIP/src/apps/mqtt/mqtt.c ****         LWIP_DEBUGF(MQTT_DEBUG_WARN,( "mqtt_message_received: Received short CONNACK message\n"));
 692:Middlewares/Third_Party/LwIP/src/apps/mqtt/mqtt.c ****         goto out_disconnect;
 693:Middlewares/Third_Party/LwIP/src/apps/mqtt/mqtt.c ****       }
 694:Middlewares/Third_Party/LwIP/src/apps/mqtt/mqtt.c ****       /* Get result code from CONNACK */
 695:Middlewares/Third_Party/LwIP/src/apps/mqtt/mqtt.c ****       res = (mqtt_connection_status_t)var_hdr_payload[1];
 696:Middlewares/Third_Party/LwIP/src/apps/mqtt/mqtt.c ****       LWIP_DEBUGF(MQTT_DEBUG_TRACE, ("mqtt_message_received: Connect response code %d\n", res));
 697:Middlewares/Third_Party/LwIP/src/apps/mqtt/mqtt.c ****       if (res == MQTT_CONNECT_ACCEPTED) {
 698:Middlewares/Third_Party/LwIP/src/apps/mqtt/mqtt.c ****         /* Reset cyclic_tick when changing to connected state */
 699:Middlewares/Third_Party/LwIP/src/apps/mqtt/mqtt.c ****         client->cyclic_tick = 0;
 700:Middlewares/Third_Party/LwIP/src/apps/mqtt/mqtt.c ****         client->conn_state = MQTT_CONNECTED;
 701:Middlewares/Third_Party/LwIP/src/apps/mqtt/mqtt.c ****         /* Notify upper layer */
 702:Middlewares/Third_Party/LwIP/src/apps/mqtt/mqtt.c ****         if (client->connect_cb != 0) {
 703:Middlewares/Third_Party/LwIP/src/apps/mqtt/mqtt.c ****           client->connect_cb(client, client->connect_arg, res);
 704:Middlewares/Third_Party/LwIP/src/apps/mqtt/mqtt.c ****         }
 705:Middlewares/Third_Party/LwIP/src/apps/mqtt/mqtt.c ****       }
 706:Middlewares/Third_Party/LwIP/src/apps/mqtt/mqtt.c ****     } else {
 707:Middlewares/Third_Party/LwIP/src/apps/mqtt/mqtt.c ****       LWIP_DEBUGF(MQTT_DEBUG_WARN, ("mqtt_message_received: Received CONNACK in connected state\n")
 708:Middlewares/Third_Party/LwIP/src/apps/mqtt/mqtt.c ****     }
 709:Middlewares/Third_Party/LwIP/src/apps/mqtt/mqtt.c ****   } else if (pkt_type == MQTT_MSG_TYPE_PINGRESP) {
 710:Middlewares/Third_Party/LwIP/src/apps/mqtt/mqtt.c ****     LWIP_DEBUGF(MQTT_DEBUG_TRACE, ( "mqtt_message_received: Received PINGRESP from server\n"));
 711:Middlewares/Third_Party/LwIP/src/apps/mqtt/mqtt.c **** 
 712:Middlewares/Third_Party/LwIP/src/apps/mqtt/mqtt.c ****   } else if (pkt_type == MQTT_MSG_TYPE_PUBLISH) {
 713:Middlewares/Third_Party/LwIP/src/apps/mqtt/mqtt.c ****     u16_t payload_offset = 0;
 714:Middlewares/Third_Party/LwIP/src/apps/mqtt/mqtt.c ****     u16_t payload_length = length;
 715:Middlewares/Third_Party/LwIP/src/apps/mqtt/mqtt.c ****     u8_t qos = MQTT_CTL_PACKET_QOS(client->rx_buffer[0]);
ARM GAS  /tmp/ccVfyJBo.s 			page 48


 716:Middlewares/Third_Party/LwIP/src/apps/mqtt/mqtt.c **** 
 717:Middlewares/Third_Party/LwIP/src/apps/mqtt/mqtt.c ****     if (client->msg_idx <= MQTT_VAR_HEADER_BUFFER_LEN) {
 718:Middlewares/Third_Party/LwIP/src/apps/mqtt/mqtt.c ****       /* Should have topic and pkt id*/
 719:Middlewares/Third_Party/LwIP/src/apps/mqtt/mqtt.c ****       u8_t *topic;
 720:Middlewares/Third_Party/LwIP/src/apps/mqtt/mqtt.c ****       u16_t after_topic;
 721:Middlewares/Third_Party/LwIP/src/apps/mqtt/mqtt.c ****       u8_t bkp;
 722:Middlewares/Third_Party/LwIP/src/apps/mqtt/mqtt.c ****       u16_t topic_len;
 723:Middlewares/Third_Party/LwIP/src/apps/mqtt/mqtt.c ****       u16_t qos_len = (qos ? 2U : 0U);
 724:Middlewares/Third_Party/LwIP/src/apps/mqtt/mqtt.c ****       if (length < 2 + qos_len) {
 725:Middlewares/Third_Party/LwIP/src/apps/mqtt/mqtt.c ****         LWIP_DEBUGF(MQTT_DEBUG_WARN,( "mqtt_message_received: Received short PUBLISH packet\n"));
 726:Middlewares/Third_Party/LwIP/src/apps/mqtt/mqtt.c ****         goto out_disconnect;
 727:Middlewares/Third_Party/LwIP/src/apps/mqtt/mqtt.c ****       }
 728:Middlewares/Third_Party/LwIP/src/apps/mqtt/mqtt.c ****       topic_len = var_hdr_payload[0];
 729:Middlewares/Third_Party/LwIP/src/apps/mqtt/mqtt.c ****       topic_len = (topic_len << 8) + (u16_t)(var_hdr_payload[1]);
 730:Middlewares/Third_Party/LwIP/src/apps/mqtt/mqtt.c ****       if ((topic_len > length - (2 + qos_len)) ||
 731:Middlewares/Third_Party/LwIP/src/apps/mqtt/mqtt.c ****           (topic_len > var_hdr_payload_bufsize - (2 + qos_len))) {
 732:Middlewares/Third_Party/LwIP/src/apps/mqtt/mqtt.c ****         LWIP_DEBUGF(MQTT_DEBUG_WARN,( "mqtt_message_received: Received short PUBLISH packet (topic)
 733:Middlewares/Third_Party/LwIP/src/apps/mqtt/mqtt.c ****         goto out_disconnect;
 734:Middlewares/Third_Party/LwIP/src/apps/mqtt/mqtt.c ****       }
 735:Middlewares/Third_Party/LwIP/src/apps/mqtt/mqtt.c **** 
 736:Middlewares/Third_Party/LwIP/src/apps/mqtt/mqtt.c ****       topic = var_hdr_payload + 2;
 737:Middlewares/Third_Party/LwIP/src/apps/mqtt/mqtt.c ****       after_topic = 2 + topic_len;
 738:Middlewares/Third_Party/LwIP/src/apps/mqtt/mqtt.c ****       /* Check buffer length, add one byte even for QoS 0 so that zero termination will fit */
 739:Middlewares/Third_Party/LwIP/src/apps/mqtt/mqtt.c ****       if ((after_topic + (qos ? 2U : 1U)) > var_hdr_payload_bufsize) {
 740:Middlewares/Third_Party/LwIP/src/apps/mqtt/mqtt.c ****         LWIP_DEBUGF(MQTT_DEBUG_WARN, ("mqtt_message_received: Receive buffer can not fit topic + pk
 741:Middlewares/Third_Party/LwIP/src/apps/mqtt/mqtt.c ****         goto out_disconnect;
 742:Middlewares/Third_Party/LwIP/src/apps/mqtt/mqtt.c ****       }
 743:Middlewares/Third_Party/LwIP/src/apps/mqtt/mqtt.c **** 
 744:Middlewares/Third_Party/LwIP/src/apps/mqtt/mqtt.c ****       /* id for QoS 1 and 2 */
 745:Middlewares/Third_Party/LwIP/src/apps/mqtt/mqtt.c ****       if (qos > 0) {
 746:Middlewares/Third_Party/LwIP/src/apps/mqtt/mqtt.c ****         if (length < after_topic + 2U) {
 747:Middlewares/Third_Party/LwIP/src/apps/mqtt/mqtt.c ****           LWIP_DEBUGF(MQTT_DEBUG_WARN,( "mqtt_message_received: Received short PUBLISH packet (afte
 748:Middlewares/Third_Party/LwIP/src/apps/mqtt/mqtt.c ****           goto out_disconnect;
 749:Middlewares/Third_Party/LwIP/src/apps/mqtt/mqtt.c ****         }
 750:Middlewares/Third_Party/LwIP/src/apps/mqtt/mqtt.c ****         client->inpub_pkt_id = ((u16_t)var_hdr_payload[after_topic] << 8) + (u16_t)var_hdr_payload[
 751:Middlewares/Third_Party/LwIP/src/apps/mqtt/mqtt.c ****         after_topic += 2;
 752:Middlewares/Third_Party/LwIP/src/apps/mqtt/mqtt.c ****       } else {
 753:Middlewares/Third_Party/LwIP/src/apps/mqtt/mqtt.c ****         client->inpub_pkt_id = 0;
 754:Middlewares/Third_Party/LwIP/src/apps/mqtt/mqtt.c ****       }
 755:Middlewares/Third_Party/LwIP/src/apps/mqtt/mqtt.c ****       /* Take backup of byte after topic */
 756:Middlewares/Third_Party/LwIP/src/apps/mqtt/mqtt.c ****       bkp = topic[topic_len];
 757:Middlewares/Third_Party/LwIP/src/apps/mqtt/mqtt.c ****       /* Zero terminate string */
 758:Middlewares/Third_Party/LwIP/src/apps/mqtt/mqtt.c ****       topic[topic_len] = 0;
 759:Middlewares/Third_Party/LwIP/src/apps/mqtt/mqtt.c ****       /* Payload data remaining in receive buffer */
 760:Middlewares/Third_Party/LwIP/src/apps/mqtt/mqtt.c ****       payload_length = length - after_topic;
 761:Middlewares/Third_Party/LwIP/src/apps/mqtt/mqtt.c ****       payload_offset = after_topic;
 762:Middlewares/Third_Party/LwIP/src/apps/mqtt/mqtt.c **** 
 763:Middlewares/Third_Party/LwIP/src/apps/mqtt/mqtt.c ****       LWIP_DEBUGF(MQTT_DEBUG_TRACE, ("mqtt_incomming_publish: Received message with QoS %d at topic
 764:Middlewares/Third_Party/LwIP/src/apps/mqtt/mqtt.c ****                                      qos, topic, remaining_length + payload_length));
 765:Middlewares/Third_Party/LwIP/src/apps/mqtt/mqtt.c ****       if (client->pub_cb != NULL) {
 766:Middlewares/Third_Party/LwIP/src/apps/mqtt/mqtt.c ****         client->pub_cb(client->inpub_arg, (const char *)topic, remaining_length + payload_length);
 767:Middlewares/Third_Party/LwIP/src/apps/mqtt/mqtt.c ****       }
 768:Middlewares/Third_Party/LwIP/src/apps/mqtt/mqtt.c ****       /* Restore byte after topic */
 769:Middlewares/Third_Party/LwIP/src/apps/mqtt/mqtt.c ****       topic[topic_len] = bkp;
 770:Middlewares/Third_Party/LwIP/src/apps/mqtt/mqtt.c ****     }
 771:Middlewares/Third_Party/LwIP/src/apps/mqtt/mqtt.c ****     if (payload_length > 0 || remaining_length == 0) {
 772:Middlewares/Third_Party/LwIP/src/apps/mqtt/mqtt.c ****       if (length < (size_t)(payload_offset + payload_length)) {
ARM GAS  /tmp/ccVfyJBo.s 			page 49


 773:Middlewares/Third_Party/LwIP/src/apps/mqtt/mqtt.c ****         LWIP_DEBUGF(MQTT_DEBUG_WARN,( "mqtt_message_received: Received short packet (payload)\n"));
 774:Middlewares/Third_Party/LwIP/src/apps/mqtt/mqtt.c ****         goto out_disconnect;
 775:Middlewares/Third_Party/LwIP/src/apps/mqtt/mqtt.c ****       }
 776:Middlewares/Third_Party/LwIP/src/apps/mqtt/mqtt.c ****       client->data_cb(client->inpub_arg, var_hdr_payload + payload_offset, payload_length, remainin
 777:Middlewares/Third_Party/LwIP/src/apps/mqtt/mqtt.c ****       /* Reply if QoS > 0 */
 778:Middlewares/Third_Party/LwIP/src/apps/mqtt/mqtt.c ****       if (remaining_length == 0 && qos > 0) {
 779:Middlewares/Third_Party/LwIP/src/apps/mqtt/mqtt.c ****         /* Send PUBACK for QoS 1 or PUBREC for QoS 2 */
 780:Middlewares/Third_Party/LwIP/src/apps/mqtt/mqtt.c ****         u8_t resp_msg = (qos == 1) ? MQTT_MSG_TYPE_PUBACK : MQTT_MSG_TYPE_PUBREC;
 781:Middlewares/Third_Party/LwIP/src/apps/mqtt/mqtt.c ****         LWIP_DEBUGF(MQTT_DEBUG_TRACE, ("mqtt_incomming_publish: Sending publish response: %s with p
 782:Middlewares/Third_Party/LwIP/src/apps/mqtt/mqtt.c ****                                        mqtt_msg_type_to_str(resp_msg), client->inpub_pkt_id));
 783:Middlewares/Third_Party/LwIP/src/apps/mqtt/mqtt.c ****         pub_ack_rec_rel_response(client, resp_msg, client->inpub_pkt_id, 0);
 784:Middlewares/Third_Party/LwIP/src/apps/mqtt/mqtt.c ****       }
 785:Middlewares/Third_Party/LwIP/src/apps/mqtt/mqtt.c ****     }
 786:Middlewares/Third_Party/LwIP/src/apps/mqtt/mqtt.c ****   } else {
 787:Middlewares/Third_Party/LwIP/src/apps/mqtt/mqtt.c ****     /* Get packet identifier */
 788:Middlewares/Third_Party/LwIP/src/apps/mqtt/mqtt.c ****     pkt_id = (u16_t)var_hdr_payload[0] << 8;
 789:Middlewares/Third_Party/LwIP/src/apps/mqtt/mqtt.c ****     pkt_id |= (u16_t)var_hdr_payload[1];
 790:Middlewares/Third_Party/LwIP/src/apps/mqtt/mqtt.c ****     if (pkt_id == 0) {
 791:Middlewares/Third_Party/LwIP/src/apps/mqtt/mqtt.c ****       LWIP_DEBUGF(MQTT_DEBUG_WARN, ("mqtt_message_received: Got message with illegal packet identif
 792:Middlewares/Third_Party/LwIP/src/apps/mqtt/mqtt.c ****       goto out_disconnect;
 793:Middlewares/Third_Party/LwIP/src/apps/mqtt/mqtt.c ****     }
 794:Middlewares/Third_Party/LwIP/src/apps/mqtt/mqtt.c ****     if (pkt_type == MQTT_MSG_TYPE_PUBREC) {
 795:Middlewares/Third_Party/LwIP/src/apps/mqtt/mqtt.c ****       LWIP_DEBUGF(MQTT_DEBUG_TRACE, ("mqtt_message_received: PUBREC, sending PUBREL with pkt_id: %d
 796:Middlewares/Third_Party/LwIP/src/apps/mqtt/mqtt.c ****       pub_ack_rec_rel_response(client, MQTT_MSG_TYPE_PUBREL, pkt_id, 1);
 797:Middlewares/Third_Party/LwIP/src/apps/mqtt/mqtt.c **** 
 798:Middlewares/Third_Party/LwIP/src/apps/mqtt/mqtt.c ****     } else if (pkt_type == MQTT_MSG_TYPE_PUBREL) {
 799:Middlewares/Third_Party/LwIP/src/apps/mqtt/mqtt.c ****       LWIP_DEBUGF(MQTT_DEBUG_TRACE, ("mqtt_message_received: PUBREL, sending PUBCOMP response with 
 800:Middlewares/Third_Party/LwIP/src/apps/mqtt/mqtt.c ****       pub_ack_rec_rel_response(client, MQTT_MSG_TYPE_PUBCOMP, pkt_id, 0);
 801:Middlewares/Third_Party/LwIP/src/apps/mqtt/mqtt.c **** 
 802:Middlewares/Third_Party/LwIP/src/apps/mqtt/mqtt.c ****     } else if (pkt_type == MQTT_MSG_TYPE_SUBACK || pkt_type == MQTT_MSG_TYPE_UNSUBACK ||
 803:Middlewares/Third_Party/LwIP/src/apps/mqtt/mqtt.c ****                pkt_type == MQTT_MSG_TYPE_PUBCOMP || pkt_type == MQTT_MSG_TYPE_PUBACK) {
 804:Middlewares/Third_Party/LwIP/src/apps/mqtt/mqtt.c ****       struct mqtt_request_t *r = mqtt_take_request(&client->pend_req_queue, pkt_id);
 805:Middlewares/Third_Party/LwIP/src/apps/mqtt/mqtt.c ****       if (r != NULL) {
 806:Middlewares/Third_Party/LwIP/src/apps/mqtt/mqtt.c ****         LWIP_DEBUGF(MQTT_DEBUG_TRACE, ("mqtt_message_received: %s response with id %d\n", mqtt_msg_
 807:Middlewares/Third_Party/LwIP/src/apps/mqtt/mqtt.c ****         if (pkt_type == MQTT_MSG_TYPE_SUBACK) {
 808:Middlewares/Third_Party/LwIP/src/apps/mqtt/mqtt.c ****           if (length < 3) {
 809:Middlewares/Third_Party/LwIP/src/apps/mqtt/mqtt.c ****             LWIP_DEBUGF(MQTT_DEBUG_WARN, ("mqtt_message_received: To small SUBACK packet\n"));
 810:Middlewares/Third_Party/LwIP/src/apps/mqtt/mqtt.c ****             goto out_disconnect;
 811:Middlewares/Third_Party/LwIP/src/apps/mqtt/mqtt.c ****           } else {
 812:Middlewares/Third_Party/LwIP/src/apps/mqtt/mqtt.c ****             mqtt_incomming_suback(r, var_hdr_payload[2]);
 813:Middlewares/Third_Party/LwIP/src/apps/mqtt/mqtt.c ****           }
 814:Middlewares/Third_Party/LwIP/src/apps/mqtt/mqtt.c ****         } else if (r->cb != NULL) {
 815:Middlewares/Third_Party/LwIP/src/apps/mqtt/mqtt.c ****           r->cb(r->arg, ERR_OK);
 816:Middlewares/Third_Party/LwIP/src/apps/mqtt/mqtt.c ****         }
 817:Middlewares/Third_Party/LwIP/src/apps/mqtt/mqtt.c ****         mqtt_delete_request(r);
 818:Middlewares/Third_Party/LwIP/src/apps/mqtt/mqtt.c ****       } else {
 819:Middlewares/Third_Party/LwIP/src/apps/mqtt/mqtt.c ****         LWIP_DEBUGF(MQTT_DEBUG_WARN, ( "mqtt_message_received: Received %s reply, with wrong pkt_id
 820:Middlewares/Third_Party/LwIP/src/apps/mqtt/mqtt.c ****       }
 821:Middlewares/Third_Party/LwIP/src/apps/mqtt/mqtt.c ****     } else {
 822:Middlewares/Third_Party/LwIP/src/apps/mqtt/mqtt.c ****       LWIP_DEBUGF(MQTT_DEBUG_WARN, ( "mqtt_message_received: Received unknown message type: %d\n", 
 823:Middlewares/Third_Party/LwIP/src/apps/mqtt/mqtt.c ****       goto out_disconnect;
 824:Middlewares/Third_Party/LwIP/src/apps/mqtt/mqtt.c ****     }
 825:Middlewares/Third_Party/LwIP/src/apps/mqtt/mqtt.c ****   }
 826:Middlewares/Third_Party/LwIP/src/apps/mqtt/mqtt.c ****   return res;
 827:Middlewares/Third_Party/LwIP/src/apps/mqtt/mqtt.c **** out_disconnect:
 828:Middlewares/Third_Party/LwIP/src/apps/mqtt/mqtt.c ****   return MQTT_CONNECT_DISCONNECTED;
 829:Middlewares/Third_Party/LwIP/src/apps/mqtt/mqtt.c **** }
ARM GAS  /tmp/ccVfyJBo.s 			page 50


 830:Middlewares/Third_Party/LwIP/src/apps/mqtt/mqtt.c **** 
 831:Middlewares/Third_Party/LwIP/src/apps/mqtt/mqtt.c **** 
 832:Middlewares/Third_Party/LwIP/src/apps/mqtt/mqtt.c **** /**
 833:Middlewares/Third_Party/LwIP/src/apps/mqtt/mqtt.c ****  * MQTT incoming message parser
 834:Middlewares/Third_Party/LwIP/src/apps/mqtt/mqtt.c ****  * @param client MQTT client
 835:Middlewares/Third_Party/LwIP/src/apps/mqtt/mqtt.c ****  * @param p PBUF chain of received data
 836:Middlewares/Third_Party/LwIP/src/apps/mqtt/mqtt.c ****  * @return Connection status
 837:Middlewares/Third_Party/LwIP/src/apps/mqtt/mqtt.c ****  */
 838:Middlewares/Third_Party/LwIP/src/apps/mqtt/mqtt.c **** static mqtt_connection_status_t
 839:Middlewares/Third_Party/LwIP/src/apps/mqtt/mqtt.c **** mqtt_parse_incoming(mqtt_client_t *client, struct pbuf *p)
 840:Middlewares/Third_Party/LwIP/src/apps/mqtt/mqtt.c **** {
 841:Middlewares/Third_Party/LwIP/src/apps/mqtt/mqtt.c ****   u16_t in_offset = 0;
 842:Middlewares/Third_Party/LwIP/src/apps/mqtt/mqtt.c ****   u32_t msg_rem_len = 0;
 843:Middlewares/Third_Party/LwIP/src/apps/mqtt/mqtt.c ****   u8_t fixed_hdr_idx = 0;
 844:Middlewares/Third_Party/LwIP/src/apps/mqtt/mqtt.c ****   u8_t b = 0;
 845:Middlewares/Third_Party/LwIP/src/apps/mqtt/mqtt.c **** 
 846:Middlewares/Third_Party/LwIP/src/apps/mqtt/mqtt.c ****   while (p->tot_len > in_offset) {
 847:Middlewares/Third_Party/LwIP/src/apps/mqtt/mqtt.c ****     /* We ALWAYS parse the header here first. Even if the header was not
 848:Middlewares/Third_Party/LwIP/src/apps/mqtt/mqtt.c ****        included in this segment, we re-parse it here by buffering it in
 849:Middlewares/Third_Party/LwIP/src/apps/mqtt/mqtt.c ****        client->rx_buffer. client->msg_idx keeps track of this. */
 850:Middlewares/Third_Party/LwIP/src/apps/mqtt/mqtt.c ****     if ((fixed_hdr_idx < 2) || ((b & 0x80) != 0)) {
 851:Middlewares/Third_Party/LwIP/src/apps/mqtt/mqtt.c **** 
 852:Middlewares/Third_Party/LwIP/src/apps/mqtt/mqtt.c ****       if (fixed_hdr_idx < client->msg_idx) {
 853:Middlewares/Third_Party/LwIP/src/apps/mqtt/mqtt.c ****         /* parse header from old pbuf (buffered in client->rx_buffer) */
 854:Middlewares/Third_Party/LwIP/src/apps/mqtt/mqtt.c ****         b = client->rx_buffer[fixed_hdr_idx];
 855:Middlewares/Third_Party/LwIP/src/apps/mqtt/mqtt.c ****       } else {
 856:Middlewares/Third_Party/LwIP/src/apps/mqtt/mqtt.c ****         /* parse header from this pbuf and save it in client->rx_buffer in case
 857:Middlewares/Third_Party/LwIP/src/apps/mqtt/mqtt.c ****            it comes in segmented */
 858:Middlewares/Third_Party/LwIP/src/apps/mqtt/mqtt.c ****         b = pbuf_get_at(p, in_offset++);
 859:Middlewares/Third_Party/LwIP/src/apps/mqtt/mqtt.c ****         client->rx_buffer[client->msg_idx++] = b;
 860:Middlewares/Third_Party/LwIP/src/apps/mqtt/mqtt.c ****       }
 861:Middlewares/Third_Party/LwIP/src/apps/mqtt/mqtt.c ****       fixed_hdr_idx++;
 862:Middlewares/Third_Party/LwIP/src/apps/mqtt/mqtt.c **** 
 863:Middlewares/Third_Party/LwIP/src/apps/mqtt/mqtt.c ****       if (fixed_hdr_idx >= 2) {
 864:Middlewares/Third_Party/LwIP/src/apps/mqtt/mqtt.c ****         /* fixed header contains at least 2 bytes but can contain more, depending on
 865:Middlewares/Third_Party/LwIP/src/apps/mqtt/mqtt.c ****            'remaining length'. All bytes but the last of this have 0x80 set to
 866:Middlewares/Third_Party/LwIP/src/apps/mqtt/mqtt.c ****            indicate more bytes are coming. */
 867:Middlewares/Third_Party/LwIP/src/apps/mqtt/mqtt.c ****         msg_rem_len |= (u32_t)(b & 0x7f) << ((fixed_hdr_idx - 2) * 7);
 868:Middlewares/Third_Party/LwIP/src/apps/mqtt/mqtt.c ****         if ((b & 0x80) == 0) {
 869:Middlewares/Third_Party/LwIP/src/apps/mqtt/mqtt.c ****           /* fixed header is done */
 870:Middlewares/Third_Party/LwIP/src/apps/mqtt/mqtt.c ****           LWIP_DEBUGF(MQTT_DEBUG_TRACE, ("mqtt_parse_incoming: Remaining length after fixed header:
 871:Middlewares/Third_Party/LwIP/src/apps/mqtt/mqtt.c ****           if (msg_rem_len == 0) {
 872:Middlewares/Third_Party/LwIP/src/apps/mqtt/mqtt.c ****             /* Complete message with no extra headers of payload received */
 873:Middlewares/Third_Party/LwIP/src/apps/mqtt/mqtt.c ****             mqtt_message_received(client, fixed_hdr_idx, 0, 0);
 874:Middlewares/Third_Party/LwIP/src/apps/mqtt/mqtt.c ****             client->msg_idx = 0;
 875:Middlewares/Third_Party/LwIP/src/apps/mqtt/mqtt.c ****             fixed_hdr_idx = 0;
 876:Middlewares/Third_Party/LwIP/src/apps/mqtt/mqtt.c ****           } else {
 877:Middlewares/Third_Party/LwIP/src/apps/mqtt/mqtt.c ****             /* Bytes remaining in message (changes remaining length if this is
 878:Middlewares/Third_Party/LwIP/src/apps/mqtt/mqtt.c ****                not the first segment of this message) */
 879:Middlewares/Third_Party/LwIP/src/apps/mqtt/mqtt.c ****             msg_rem_len = (msg_rem_len + fixed_hdr_idx) - client->msg_idx;
 880:Middlewares/Third_Party/LwIP/src/apps/mqtt/mqtt.c ****           }
 881:Middlewares/Third_Party/LwIP/src/apps/mqtt/mqtt.c ****         }
 882:Middlewares/Third_Party/LwIP/src/apps/mqtt/mqtt.c ****       }
 883:Middlewares/Third_Party/LwIP/src/apps/mqtt/mqtt.c ****     } else {
 884:Middlewares/Third_Party/LwIP/src/apps/mqtt/mqtt.c ****       /* Fixed header has been parsed, parse variable header */
 885:Middlewares/Third_Party/LwIP/src/apps/mqtt/mqtt.c ****       u16_t cpy_len, cpy_start, buffer_space;
 886:Middlewares/Third_Party/LwIP/src/apps/mqtt/mqtt.c **** 
ARM GAS  /tmp/ccVfyJBo.s 			page 51


 887:Middlewares/Third_Party/LwIP/src/apps/mqtt/mqtt.c ****       cpy_start = (client->msg_idx - fixed_hdr_idx) % (MQTT_VAR_HEADER_BUFFER_LEN - fixed_hdr_idx) 
 888:Middlewares/Third_Party/LwIP/src/apps/mqtt/mqtt.c **** 
 889:Middlewares/Third_Party/LwIP/src/apps/mqtt/mqtt.c ****       /* Allow to copy the lesser one of available length in input data or bytes remaining in messa
 890:Middlewares/Third_Party/LwIP/src/apps/mqtt/mqtt.c ****       cpy_len = (u16_t)LWIP_MIN((u16_t)(p->tot_len - in_offset), msg_rem_len);
 891:Middlewares/Third_Party/LwIP/src/apps/mqtt/mqtt.c **** 
 892:Middlewares/Third_Party/LwIP/src/apps/mqtt/mqtt.c ****       /* Limit to available space in buffer */
 893:Middlewares/Third_Party/LwIP/src/apps/mqtt/mqtt.c ****       buffer_space = MQTT_VAR_HEADER_BUFFER_LEN - cpy_start;
 894:Middlewares/Third_Party/LwIP/src/apps/mqtt/mqtt.c ****       if (cpy_len > buffer_space) {
 895:Middlewares/Third_Party/LwIP/src/apps/mqtt/mqtt.c ****         cpy_len = buffer_space;
 896:Middlewares/Third_Party/LwIP/src/apps/mqtt/mqtt.c ****       }
 897:Middlewares/Third_Party/LwIP/src/apps/mqtt/mqtt.c ****       pbuf_copy_partial(p, client->rx_buffer + cpy_start, cpy_len, in_offset);
 898:Middlewares/Third_Party/LwIP/src/apps/mqtt/mqtt.c **** 
 899:Middlewares/Third_Party/LwIP/src/apps/mqtt/mqtt.c ****       /* Advance get and put indexes  */
 900:Middlewares/Third_Party/LwIP/src/apps/mqtt/mqtt.c ****       client->msg_idx += cpy_len;
 901:Middlewares/Third_Party/LwIP/src/apps/mqtt/mqtt.c ****       in_offset += cpy_len;
 902:Middlewares/Third_Party/LwIP/src/apps/mqtt/mqtt.c ****       msg_rem_len -= cpy_len;
 903:Middlewares/Third_Party/LwIP/src/apps/mqtt/mqtt.c **** 
 904:Middlewares/Third_Party/LwIP/src/apps/mqtt/mqtt.c ****       LWIP_DEBUGF(MQTT_DEBUG_TRACE, ("mqtt_parse_incoming: msg_idx: %"U32_F", cpy_len: %"U16_F", re
 905:Middlewares/Third_Party/LwIP/src/apps/mqtt/mqtt.c ****       if ((msg_rem_len == 0) || (cpy_len == buffer_space)) {
 906:Middlewares/Third_Party/LwIP/src/apps/mqtt/mqtt.c ****         /* Whole message received or buffer is full */
 907:Middlewares/Third_Party/LwIP/src/apps/mqtt/mqtt.c ****         mqtt_connection_status_t res = mqtt_message_received(client, fixed_hdr_idx, (cpy_start + cp
 908:Middlewares/Third_Party/LwIP/src/apps/mqtt/mqtt.c ****         if (res != MQTT_CONNECT_ACCEPTED) {
 909:Middlewares/Third_Party/LwIP/src/apps/mqtt/mqtt.c ****           return res;
 910:Middlewares/Third_Party/LwIP/src/apps/mqtt/mqtt.c ****         }
 911:Middlewares/Third_Party/LwIP/src/apps/mqtt/mqtt.c ****         if (msg_rem_len == 0) {
 912:Middlewares/Third_Party/LwIP/src/apps/mqtt/mqtt.c ****           /* Reset parser state */
 913:Middlewares/Third_Party/LwIP/src/apps/mqtt/mqtt.c ****           client->msg_idx = 0;
 914:Middlewares/Third_Party/LwIP/src/apps/mqtt/mqtt.c ****           /* msg_tot_len = 0; */
 915:Middlewares/Third_Party/LwIP/src/apps/mqtt/mqtt.c ****           fixed_hdr_idx = 0;
 916:Middlewares/Third_Party/LwIP/src/apps/mqtt/mqtt.c ****         }
 917:Middlewares/Third_Party/LwIP/src/apps/mqtt/mqtt.c ****       }
 918:Middlewares/Third_Party/LwIP/src/apps/mqtt/mqtt.c ****     }
 919:Middlewares/Third_Party/LwIP/src/apps/mqtt/mqtt.c ****   }
 920:Middlewares/Third_Party/LwIP/src/apps/mqtt/mqtt.c ****   return MQTT_CONNECT_ACCEPTED;
 921:Middlewares/Third_Party/LwIP/src/apps/mqtt/mqtt.c **** }
 922:Middlewares/Third_Party/LwIP/src/apps/mqtt/mqtt.c **** 
 923:Middlewares/Third_Party/LwIP/src/apps/mqtt/mqtt.c **** 
 924:Middlewares/Third_Party/LwIP/src/apps/mqtt/mqtt.c **** /**
 925:Middlewares/Third_Party/LwIP/src/apps/mqtt/mqtt.c ****  * TCP received callback function. @see tcp_recv_fn
 926:Middlewares/Third_Party/LwIP/src/apps/mqtt/mqtt.c ****  * @param arg MQTT client
 927:Middlewares/Third_Party/LwIP/src/apps/mqtt/mqtt.c ****  * @param p PBUF chain of received data
 928:Middlewares/Third_Party/LwIP/src/apps/mqtt/mqtt.c ****  * @param err Passed as return value if not ERR_OK
 929:Middlewares/Third_Party/LwIP/src/apps/mqtt/mqtt.c ****  * @return ERR_OK or err passed into callback
 930:Middlewares/Third_Party/LwIP/src/apps/mqtt/mqtt.c ****  */
 931:Middlewares/Third_Party/LwIP/src/apps/mqtt/mqtt.c **** static err_t
 932:Middlewares/Third_Party/LwIP/src/apps/mqtt/mqtt.c **** mqtt_tcp_recv_cb(void *arg, struct altcp_pcb *pcb, struct pbuf *p, err_t err)
 933:Middlewares/Third_Party/LwIP/src/apps/mqtt/mqtt.c **** {
 934:Middlewares/Third_Party/LwIP/src/apps/mqtt/mqtt.c ****   mqtt_client_t *client = (mqtt_client_t *)arg;
 935:Middlewares/Third_Party/LwIP/src/apps/mqtt/mqtt.c ****   LWIP_ASSERT("mqtt_tcp_recv_cb: client != NULL", client != NULL);
 936:Middlewares/Third_Party/LwIP/src/apps/mqtt/mqtt.c ****   LWIP_ASSERT("mqtt_tcp_recv_cb: client->conn == pcb", client->conn == pcb);
 937:Middlewares/Third_Party/LwIP/src/apps/mqtt/mqtt.c **** 
 938:Middlewares/Third_Party/LwIP/src/apps/mqtt/mqtt.c ****   if (p == NULL) {
 939:Middlewares/Third_Party/LwIP/src/apps/mqtt/mqtt.c ****     LWIP_DEBUGF(MQTT_DEBUG_TRACE, ("mqtt_tcp_recv_cb: Recv pbuf=NULL, remote has closed connection\
 940:Middlewares/Third_Party/LwIP/src/apps/mqtt/mqtt.c ****     mqtt_close(client, MQTT_CONNECT_DISCONNECTED);
 941:Middlewares/Third_Party/LwIP/src/apps/mqtt/mqtt.c ****   } else {
 942:Middlewares/Third_Party/LwIP/src/apps/mqtt/mqtt.c ****     mqtt_connection_status_t res;
 943:Middlewares/Third_Party/LwIP/src/apps/mqtt/mqtt.c ****     if (err != ERR_OK) {
ARM GAS  /tmp/ccVfyJBo.s 			page 52


 944:Middlewares/Third_Party/LwIP/src/apps/mqtt/mqtt.c ****       LWIP_DEBUGF(MQTT_DEBUG_WARN, ("mqtt_tcp_recv_cb: Recv err=%d\n", err));
 945:Middlewares/Third_Party/LwIP/src/apps/mqtt/mqtt.c ****       pbuf_free(p);
 946:Middlewares/Third_Party/LwIP/src/apps/mqtt/mqtt.c ****       return err;
 947:Middlewares/Third_Party/LwIP/src/apps/mqtt/mqtt.c ****     }
 948:Middlewares/Third_Party/LwIP/src/apps/mqtt/mqtt.c **** 
 949:Middlewares/Third_Party/LwIP/src/apps/mqtt/mqtt.c ****     /* Tell remote that data has been received */
 950:Middlewares/Third_Party/LwIP/src/apps/mqtt/mqtt.c ****     altcp_recved(pcb, p->tot_len);
 951:Middlewares/Third_Party/LwIP/src/apps/mqtt/mqtt.c ****     res = mqtt_parse_incoming(client, p);
 952:Middlewares/Third_Party/LwIP/src/apps/mqtt/mqtt.c ****     pbuf_free(p);
 953:Middlewares/Third_Party/LwIP/src/apps/mqtt/mqtt.c **** 
 954:Middlewares/Third_Party/LwIP/src/apps/mqtt/mqtt.c ****     if (res != MQTT_CONNECT_ACCEPTED) {
 955:Middlewares/Third_Party/LwIP/src/apps/mqtt/mqtt.c ****       mqtt_close(client, res);
 956:Middlewares/Third_Party/LwIP/src/apps/mqtt/mqtt.c ****     }
 957:Middlewares/Third_Party/LwIP/src/apps/mqtt/mqtt.c ****     /* If keep alive functionality is used */
 958:Middlewares/Third_Party/LwIP/src/apps/mqtt/mqtt.c ****     if (client->keep_alive != 0) {
 959:Middlewares/Third_Party/LwIP/src/apps/mqtt/mqtt.c ****       /* Reset server alive watchdog */
 960:Middlewares/Third_Party/LwIP/src/apps/mqtt/mqtt.c ****       client->server_watchdog = 0;
 961:Middlewares/Third_Party/LwIP/src/apps/mqtt/mqtt.c ****     }
 962:Middlewares/Third_Party/LwIP/src/apps/mqtt/mqtt.c **** 
 963:Middlewares/Third_Party/LwIP/src/apps/mqtt/mqtt.c ****   }
 964:Middlewares/Third_Party/LwIP/src/apps/mqtt/mqtt.c ****   return ERR_OK;
 965:Middlewares/Third_Party/LwIP/src/apps/mqtt/mqtt.c **** }
 966:Middlewares/Third_Party/LwIP/src/apps/mqtt/mqtt.c **** 
 967:Middlewares/Third_Party/LwIP/src/apps/mqtt/mqtt.c **** 
 968:Middlewares/Third_Party/LwIP/src/apps/mqtt/mqtt.c **** /**
 969:Middlewares/Third_Party/LwIP/src/apps/mqtt/mqtt.c ****  * TCP data sent callback function. @see tcp_sent_fn
 970:Middlewares/Third_Party/LwIP/src/apps/mqtt/mqtt.c ****  * @param arg MQTT client
 971:Middlewares/Third_Party/LwIP/src/apps/mqtt/mqtt.c ****  * @param tpcb TCP connection handle
 972:Middlewares/Third_Party/LwIP/src/apps/mqtt/mqtt.c ****  * @param len Number of bytes sent
 973:Middlewares/Third_Party/LwIP/src/apps/mqtt/mqtt.c ****  * @return ERR_OK
 974:Middlewares/Third_Party/LwIP/src/apps/mqtt/mqtt.c ****  */
 975:Middlewares/Third_Party/LwIP/src/apps/mqtt/mqtt.c **** static err_t
 976:Middlewares/Third_Party/LwIP/src/apps/mqtt/mqtt.c **** mqtt_tcp_sent_cb(void *arg, struct altcp_pcb *tpcb, u16_t len)
 977:Middlewares/Third_Party/LwIP/src/apps/mqtt/mqtt.c **** {
 978:Middlewares/Third_Party/LwIP/src/apps/mqtt/mqtt.c ****   mqtt_client_t *client = (mqtt_client_t *)arg;
 979:Middlewares/Third_Party/LwIP/src/apps/mqtt/mqtt.c **** 
 980:Middlewares/Third_Party/LwIP/src/apps/mqtt/mqtt.c ****   LWIP_UNUSED_ARG(tpcb);
 981:Middlewares/Third_Party/LwIP/src/apps/mqtt/mqtt.c ****   LWIP_UNUSED_ARG(len);
 982:Middlewares/Third_Party/LwIP/src/apps/mqtt/mqtt.c **** 
 983:Middlewares/Third_Party/LwIP/src/apps/mqtt/mqtt.c ****   if (client->conn_state == MQTT_CONNECTED) {
 984:Middlewares/Third_Party/LwIP/src/apps/mqtt/mqtt.c ****     struct mqtt_request_t *r;
 985:Middlewares/Third_Party/LwIP/src/apps/mqtt/mqtt.c **** 
 986:Middlewares/Third_Party/LwIP/src/apps/mqtt/mqtt.c ****     /* Reset keep-alive send timer and server watchdog */
 987:Middlewares/Third_Party/LwIP/src/apps/mqtt/mqtt.c ****     client->cyclic_tick = 0;
 988:Middlewares/Third_Party/LwIP/src/apps/mqtt/mqtt.c ****     client->server_watchdog = 0;
 989:Middlewares/Third_Party/LwIP/src/apps/mqtt/mqtt.c ****     /* QoS 0 publish has no response from server, so call its callbacks here */
 990:Middlewares/Third_Party/LwIP/src/apps/mqtt/mqtt.c ****     while ((r = mqtt_take_request(&client->pend_req_queue, 0)) != NULL) {
 991:Middlewares/Third_Party/LwIP/src/apps/mqtt/mqtt.c ****       LWIP_DEBUGF(MQTT_DEBUG_TRACE, ("mqtt_tcp_sent_cb: Calling QoS 0 publish complete callback\n")
 992:Middlewares/Third_Party/LwIP/src/apps/mqtt/mqtt.c ****       if (r->cb != NULL) {
 993:Middlewares/Third_Party/LwIP/src/apps/mqtt/mqtt.c ****         r->cb(r->arg, ERR_OK);
 994:Middlewares/Third_Party/LwIP/src/apps/mqtt/mqtt.c ****       }
 995:Middlewares/Third_Party/LwIP/src/apps/mqtt/mqtt.c ****       mqtt_delete_request(r);
 996:Middlewares/Third_Party/LwIP/src/apps/mqtt/mqtt.c ****     }
 997:Middlewares/Third_Party/LwIP/src/apps/mqtt/mqtt.c ****     /* Try send any remaining buffers from output queue */
 998:Middlewares/Third_Party/LwIP/src/apps/mqtt/mqtt.c ****     mqtt_output_send(&client->output, client->conn);
 999:Middlewares/Third_Party/LwIP/src/apps/mqtt/mqtt.c ****   }
1000:Middlewares/Third_Party/LwIP/src/apps/mqtt/mqtt.c ****   return ERR_OK;
ARM GAS  /tmp/ccVfyJBo.s 			page 53


1001:Middlewares/Third_Party/LwIP/src/apps/mqtt/mqtt.c **** }
1002:Middlewares/Third_Party/LwIP/src/apps/mqtt/mqtt.c **** 
1003:Middlewares/Third_Party/LwIP/src/apps/mqtt/mqtt.c **** /**
1004:Middlewares/Third_Party/LwIP/src/apps/mqtt/mqtt.c ****  * TCP error callback function. @see tcp_err_fn
1005:Middlewares/Third_Party/LwIP/src/apps/mqtt/mqtt.c ****  * @param arg MQTT client
1006:Middlewares/Third_Party/LwIP/src/apps/mqtt/mqtt.c ****  * @param err Error encountered
1007:Middlewares/Third_Party/LwIP/src/apps/mqtt/mqtt.c ****  */
1008:Middlewares/Third_Party/LwIP/src/apps/mqtt/mqtt.c **** static void
1009:Middlewares/Third_Party/LwIP/src/apps/mqtt/mqtt.c **** mqtt_tcp_err_cb(void *arg, err_t err)
1010:Middlewares/Third_Party/LwIP/src/apps/mqtt/mqtt.c **** {
1011:Middlewares/Third_Party/LwIP/src/apps/mqtt/mqtt.c ****   mqtt_client_t *client = (mqtt_client_t *)arg;
1012:Middlewares/Third_Party/LwIP/src/apps/mqtt/mqtt.c ****   LWIP_UNUSED_ARG(err); /* only used for debug output */
1013:Middlewares/Third_Party/LwIP/src/apps/mqtt/mqtt.c ****   LWIP_DEBUGF(MQTT_DEBUG_TRACE, ("mqtt_tcp_err_cb: TCP error callback: error %d, arg: %p\n", err, a
1014:Middlewares/Third_Party/LwIP/src/apps/mqtt/mqtt.c ****   LWIP_ASSERT("mqtt_tcp_err_cb: client != NULL", client != NULL);
1015:Middlewares/Third_Party/LwIP/src/apps/mqtt/mqtt.c ****   /* Set conn to null before calling close as pcb is already deallocated*/
1016:Middlewares/Third_Party/LwIP/src/apps/mqtt/mqtt.c ****   client->conn = 0;
1017:Middlewares/Third_Party/LwIP/src/apps/mqtt/mqtt.c ****   mqtt_close(client, MQTT_CONNECT_DISCONNECTED);
1018:Middlewares/Third_Party/LwIP/src/apps/mqtt/mqtt.c **** }
1019:Middlewares/Third_Party/LwIP/src/apps/mqtt/mqtt.c **** 
1020:Middlewares/Third_Party/LwIP/src/apps/mqtt/mqtt.c **** /**
1021:Middlewares/Third_Party/LwIP/src/apps/mqtt/mqtt.c ****  * TCP poll callback function. @see tcp_poll_fn
1022:Middlewares/Third_Party/LwIP/src/apps/mqtt/mqtt.c ****  * @param arg MQTT client
1023:Middlewares/Third_Party/LwIP/src/apps/mqtt/mqtt.c ****  * @param tpcb TCP connection handle
1024:Middlewares/Third_Party/LwIP/src/apps/mqtt/mqtt.c ****  * @return err ERR_OK
1025:Middlewares/Third_Party/LwIP/src/apps/mqtt/mqtt.c ****  */
1026:Middlewares/Third_Party/LwIP/src/apps/mqtt/mqtt.c **** static err_t
1027:Middlewares/Third_Party/LwIP/src/apps/mqtt/mqtt.c **** mqtt_tcp_poll_cb(void *arg, struct altcp_pcb *tpcb)
1028:Middlewares/Third_Party/LwIP/src/apps/mqtt/mqtt.c **** {
 1629              		.loc 1 1028 1 view -0
 1630              		.cfi_startproc
 1631              		@ args = 0, pretend = 0, frame = 0
 1632              		@ frame_needed = 0, uses_anonymous_args = 0
 1633              		.loc 1 1028 1 is_stmt 0 view .LVU436
 1634 0000 08B5     		push	{r3, lr}
 1635              	.LCFI15:
 1636              		.cfi_def_cfa_offset 8
 1637              		.cfi_offset 3, -8
 1638              		.cfi_offset 14, -4
1029:Middlewares/Third_Party/LwIP/src/apps/mqtt/mqtt.c ****   mqtt_client_t *client = (mqtt_client_t *)arg;
 1639              		.loc 1 1029 3 is_stmt 1 view .LVU437
 1640              	.LVL176:
1030:Middlewares/Third_Party/LwIP/src/apps/mqtt/mqtt.c ****   if (client->conn_state == MQTT_CONNECTED) {
 1641              		.loc 1 1030 3 view .LVU438
 1642              		.loc 1 1030 13 is_stmt 0 view .LVU439
 1643 0002 837A     		ldrb	r3, [r0, #10]	@ zero_extendqisi2
 1644              		.loc 1 1030 6 view .LVU440
 1645 0004 032B     		cmp	r3, #3
 1646 0006 01D0     		beq	.L136
 1647              	.LVL177:
 1648              	.L134:
1031:Middlewares/Third_Party/LwIP/src/apps/mqtt/mqtt.c ****     /* Try send any remaining buffers from output queue */
1032:Middlewares/Third_Party/LwIP/src/apps/mqtt/mqtt.c ****     mqtt_output_send(&client->output, tpcb);
1033:Middlewares/Third_Party/LwIP/src/apps/mqtt/mqtt.c ****   }
1034:Middlewares/Third_Party/LwIP/src/apps/mqtt/mqtt.c ****   return ERR_OK;
 1649              		.loc 1 1034 3 is_stmt 1 view .LVU441
1035:Middlewares/Third_Party/LwIP/src/apps/mqtt/mqtt.c **** }
 1650              		.loc 1 1035 1 is_stmt 0 view .LVU442
ARM GAS  /tmp/ccVfyJBo.s 			page 54


 1651 0008 0020     		movs	r0, #0
 1652 000a 08BD     		pop	{r3, pc}
 1653              	.LVL178:
 1654              	.L136:
1032:Middlewares/Third_Party/LwIP/src/apps/mqtt/mqtt.c ****   }
 1655              		.loc 1 1032 5 is_stmt 1 view .LVU443
 1656 000c EC30     		adds	r0, r0, #236
 1657              	.LVL179:
1032:Middlewares/Third_Party/LwIP/src/apps/mqtt/mqtt.c ****   }
 1658              		.loc 1 1032 5 is_stmt 0 view .LVU444
 1659 000e FFF7FEFF 		bl	mqtt_output_send
 1660              	.LVL180:
1032:Middlewares/Third_Party/LwIP/src/apps/mqtt/mqtt.c ****   }
 1661              		.loc 1 1032 5 view .LVU445
 1662 0012 F9E7     		b	.L134
 1663              		.cfi_endproc
 1664              	.LFE195:
 1666              		.section	.text.mqtt_tcp_sent_cb,"ax",%progbits
 1667              		.align	1
 1668              		.syntax unified
 1669              		.thumb
 1670              		.thumb_func
 1672              	mqtt_tcp_sent_cb:
 1673              	.LVL181:
 1674              	.LFB193:
 977:Middlewares/Third_Party/LwIP/src/apps/mqtt/mqtt.c ****   mqtt_client_t *client = (mqtt_client_t *)arg;
 1675              		.loc 1 977 1 is_stmt 1 view -0
 1676              		.cfi_startproc
 1677              		@ args = 0, pretend = 0, frame = 0
 1678              		@ frame_needed = 0, uses_anonymous_args = 0
 977:Middlewares/Third_Party/LwIP/src/apps/mqtt/mqtt.c ****   mqtt_client_t *client = (mqtt_client_t *)arg;
 1679              		.loc 1 977 1 is_stmt 0 view .LVU447
 1680 0000 38B5     		push	{r3, r4, r5, lr}
 1681              	.LCFI16:
 1682              		.cfi_def_cfa_offset 16
 1683              		.cfi_offset 3, -16
 1684              		.cfi_offset 4, -12
 1685              		.cfi_offset 5, -8
 1686              		.cfi_offset 14, -4
 978:Middlewares/Third_Party/LwIP/src/apps/mqtt/mqtt.c **** 
 1687              		.loc 1 978 3 is_stmt 1 view .LVU448
 1688              	.LVL182:
 980:Middlewares/Third_Party/LwIP/src/apps/mqtt/mqtt.c ****   LWIP_UNUSED_ARG(len);
 1689              		.loc 1 980 3 view .LVU449
 981:Middlewares/Third_Party/LwIP/src/apps/mqtt/mqtt.c **** 
 1690              		.loc 1 981 3 view .LVU450
 983:Middlewares/Third_Party/LwIP/src/apps/mqtt/mqtt.c ****     struct mqtt_request_t *r;
 1691              		.loc 1 983 3 view .LVU451
 983:Middlewares/Third_Party/LwIP/src/apps/mqtt/mqtt.c ****     struct mqtt_request_t *r;
 1692              		.loc 1 983 13 is_stmt 0 view .LVU452
 1693 0002 837A     		ldrb	r3, [r0, #10]	@ zero_extendqisi2
 983:Middlewares/Third_Party/LwIP/src/apps/mqtt/mqtt.c ****     struct mqtt_request_t *r;
 1694              		.loc 1 983 6 view .LVU453
 1695 0004 032B     		cmp	r3, #3
 1696 0006 01D0     		beq	.L143
 1697              	.LVL183:
 1698              	.L138:
ARM GAS  /tmp/ccVfyJBo.s 			page 55


1000:Middlewares/Third_Party/LwIP/src/apps/mqtt/mqtt.c **** }
 1699              		.loc 1 1000 3 is_stmt 1 view .LVU454
1001:Middlewares/Third_Party/LwIP/src/apps/mqtt/mqtt.c **** 
 1700              		.loc 1 1001 1 is_stmt 0 view .LVU455
 1701 0008 0020     		movs	r0, #0
 1702 000a 38BD     		pop	{r3, r4, r5, pc}
 1703              	.LVL184:
 1704              	.L143:
1001:Middlewares/Third_Party/LwIP/src/apps/mqtt/mqtt.c **** 
 1705              		.loc 1 1001 1 view .LVU456
 1706 000c 0546     		mov	r5, r0
 1707              	.LBB2:
 984:Middlewares/Third_Party/LwIP/src/apps/mqtt/mqtt.c **** 
 1708              		.loc 1 984 5 is_stmt 1 view .LVU457
 987:Middlewares/Third_Party/LwIP/src/apps/mqtt/mqtt.c ****     client->server_watchdog = 0;
 1709              		.loc 1 987 5 view .LVU458
 987:Middlewares/Third_Party/LwIP/src/apps/mqtt/mqtt.c ****     client->server_watchdog = 0;
 1710              		.loc 1 987 25 is_stmt 0 view .LVU459
 1711 000e 0023     		movs	r3, #0
 1712 0010 0380     		strh	r3, [r0]	@ movhi
 988:Middlewares/Third_Party/LwIP/src/apps/mqtt/mqtt.c ****     /* QoS 0 publish has no response from server, so call its callbacks here */
 1713              		.loc 1 988 5 is_stmt 1 view .LVU460
 988:Middlewares/Third_Party/LwIP/src/apps/mqtt/mqtt.c ****     /* QoS 0 publish has no response from server, so call its callbacks here */
 1714              		.loc 1 988 29 is_stmt 0 view .LVU461
 1715 0012 8380     		strh	r3, [r0, #4]	@ movhi
 990:Middlewares/Third_Party/LwIP/src/apps/mqtt/mqtt.c ****       LWIP_DEBUGF(MQTT_DEBUG_TRACE, ("mqtt_tcp_sent_cb: Calling QoS 0 publish complete callback\n")
 1716              		.loc 1 990 5 is_stmt 1 view .LVU462
 990:Middlewares/Third_Party/LwIP/src/apps/mqtt/mqtt.c ****       LWIP_DEBUGF(MQTT_DEBUG_TRACE, ("mqtt_tcp_sent_cb: Calling QoS 0 publish complete callback\n")
 1717              		.loc 1 990 11 is_stmt 0 view .LVU463
 1718 0014 02E0     		b	.L139
 1719              	.LVL185:
 1720              	.L140:
 995:Middlewares/Third_Party/LwIP/src/apps/mqtt/mqtt.c ****     }
 1721              		.loc 1 995 7 is_stmt 1 view .LVU464
 1722 0016 2046     		mov	r0, r4
 1723 0018 FFF7FEFF 		bl	mqtt_delete_request
 1724              	.LVL186:
 1725              	.L139:
 990:Middlewares/Third_Party/LwIP/src/apps/mqtt/mqtt.c ****       LWIP_DEBUGF(MQTT_DEBUG_TRACE, ("mqtt_tcp_sent_cb: Calling QoS 0 publish complete callback\n")
 1726              		.loc 1 990 11 view .LVU465
 990:Middlewares/Third_Party/LwIP/src/apps/mqtt/mqtt.c ****       LWIP_DEBUGF(MQTT_DEBUG_TRACE, ("mqtt_tcp_sent_cb: Calling QoS 0 publish complete callback\n")
 1727              		.loc 1 990 17 is_stmt 0 view .LVU466
 1728 001c 0021     		movs	r1, #0
 1729 001e 05F11800 		add	r0, r5, #24
 1730 0022 FFF7FEFF 		bl	mqtt_take_request
 1731              	.LVL187:
 990:Middlewares/Third_Party/LwIP/src/apps/mqtt/mqtt.c ****       LWIP_DEBUGF(MQTT_DEBUG_TRACE, ("mqtt_tcp_sent_cb: Calling QoS 0 publish complete callback\n")
 1732              		.loc 1 990 11 view .LVU467
 1733 0026 0446     		mov	r4, r0
 1734 0028 30B1     		cbz	r0, .L144
 991:Middlewares/Third_Party/LwIP/src/apps/mqtt/mqtt.c ****       if (r->cb != NULL) {
 1735              		.loc 1 991 101 is_stmt 1 view .LVU468
 992:Middlewares/Third_Party/LwIP/src/apps/mqtt/mqtt.c ****         r->cb(r->arg, ERR_OK);
 1736              		.loc 1 992 7 view .LVU469
 992:Middlewares/Third_Party/LwIP/src/apps/mqtt/mqtt.c ****         r->cb(r->arg, ERR_OK);
 1737              		.loc 1 992 12 is_stmt 0 view .LVU470
 1738 002a 6368     		ldr	r3, [r4, #4]
ARM GAS  /tmp/ccVfyJBo.s 			page 56


 992:Middlewares/Third_Party/LwIP/src/apps/mqtt/mqtt.c ****         r->cb(r->arg, ERR_OK);
 1739              		.loc 1 992 10 view .LVU471
 1740 002c 002B     		cmp	r3, #0
 1741 002e F2D0     		beq	.L140
 993:Middlewares/Third_Party/LwIP/src/apps/mqtt/mqtt.c ****       }
 1742              		.loc 1 993 9 is_stmt 1 view .LVU472
 1743 0030 0021     		movs	r1, #0
 1744 0032 A068     		ldr	r0, [r4, #8]
 1745              	.LVL188:
 993:Middlewares/Third_Party/LwIP/src/apps/mqtt/mqtt.c ****       }
 1746              		.loc 1 993 9 is_stmt 0 view .LVU473
 1747 0034 9847     		blx	r3
 1748              	.LVL189:
 1749 0036 EEE7     		b	.L140
 1750              	.LVL190:
 1751              	.L144:
 998:Middlewares/Third_Party/LwIP/src/apps/mqtt/mqtt.c ****   }
 1752              		.loc 1 998 5 is_stmt 1 view .LVU474
 1753 0038 E968     		ldr	r1, [r5, #12]
 1754 003a 05F1EC00 		add	r0, r5, #236
 1755              	.LVL191:
 998:Middlewares/Third_Party/LwIP/src/apps/mqtt/mqtt.c ****   }
 1756              		.loc 1 998 5 is_stmt 0 view .LVU475
 1757 003e FFF7FEFF 		bl	mqtt_output_send
 1758              	.LVL192:
 1759 0042 E1E7     		b	.L138
 1760              	.LBE2:
 1761              		.cfi_endproc
 1762              	.LFE193:
 1764              		.section	.text.pub_ack_rec_rel_response,"ax",%progbits
 1765              		.align	1
 1766              		.syntax unified
 1767              		.thumb
 1768              		.thumb_func
 1770              	pub_ack_rec_rel_response:
 1771              	.LVL193:
 1772              	.LFB188:
 636:Middlewares/Third_Party/LwIP/src/apps/mqtt/mqtt.c ****   err_t err = ERR_OK;
 1773              		.loc 1 636 1 is_stmt 1 view -0
 1774              		.cfi_startproc
 1775              		@ args = 0, pretend = 0, frame = 0
 1776              		@ frame_needed = 0, uses_anonymous_args = 0
 636:Middlewares/Third_Party/LwIP/src/apps/mqtt/mqtt.c ****   err_t err = ERR_OK;
 1777              		.loc 1 636 1 is_stmt 0 view .LVU477
 1778 0000 2DE9F043 		push	{r4, r5, r6, r7, r8, r9, lr}
 1779              	.LCFI17:
 1780              		.cfi_def_cfa_offset 28
 1781              		.cfi_offset 4, -28
 1782              		.cfi_offset 5, -24
 1783              		.cfi_offset 6, -20
 1784              		.cfi_offset 7, -16
 1785              		.cfi_offset 8, -12
 1786              		.cfi_offset 9, -8
 1787              		.cfi_offset 14, -4
 1788 0004 83B0     		sub	sp, sp, #12
 1789              	.LCFI18:
 1790              		.cfi_def_cfa_offset 40
ARM GAS  /tmp/ccVfyJBo.s 			page 57


 1791 0006 0546     		mov	r5, r0
 1792 0008 8846     		mov	r8, r1
 1793 000a 9146     		mov	r9, r2
 1794 000c 1F46     		mov	r7, r3
 637:Middlewares/Third_Party/LwIP/src/apps/mqtt/mqtt.c ****   if (mqtt_output_check_space(&client->output, 2)) {
 1795              		.loc 1 637 3 is_stmt 1 view .LVU478
 1796              	.LVL194:
 638:Middlewares/Third_Party/LwIP/src/apps/mqtt/mqtt.c ****     mqtt_output_append_fixed_header(&client->output, msg, 0, qos, 0, 2);
 1797              		.loc 1 638 3 view .LVU479
 638:Middlewares/Third_Party/LwIP/src/apps/mqtt/mqtt.c ****     mqtt_output_append_fixed_header(&client->output, msg, 0, qos, 0, 2);
 1798              		.loc 1 638 7 is_stmt 0 view .LVU480
 1799 000e 00F1EC06 		add	r6, r0, #236
 1800 0012 0221     		movs	r1, #2
 1801              	.LVL195:
 638:Middlewares/Third_Party/LwIP/src/apps/mqtt/mqtt.c ****     mqtt_output_append_fixed_header(&client->output, msg, 0, qos, 0, 2);
 1802              		.loc 1 638 7 view .LVU481
 1803 0014 3046     		mov	r0, r6
 1804              	.LVL196:
 638:Middlewares/Third_Party/LwIP/src/apps/mqtt/mqtt.c ****     mqtt_output_append_fixed_header(&client->output, msg, 0, qos, 0, 2);
 1805              		.loc 1 638 7 view .LVU482
 1806 0016 FFF7FEFF 		bl	mqtt_output_check_space
 1807              	.LVL197:
 638:Middlewares/Third_Party/LwIP/src/apps/mqtt/mqtt.c ****     mqtt_output_append_fixed_header(&client->output, msg, 0, qos, 0, 2);
 1808              		.loc 1 638 6 view .LVU483
 1809 001a A8B1     		cbz	r0, .L147
 639:Middlewares/Third_Party/LwIP/src/apps/mqtt/mqtt.c ****     mqtt_output_append_u16(&client->output, pkt_id);
 1810              		.loc 1 639 5 is_stmt 1 view .LVU484
 1811 001c 0223     		movs	r3, #2
 1812 001e 0193     		str	r3, [sp, #4]
 1813 0020 0024     		movs	r4, #0
 1814 0022 0094     		str	r4, [sp]
 1815 0024 3B46     		mov	r3, r7
 1816 0026 2246     		mov	r2, r4
 1817 0028 4146     		mov	r1, r8
 1818 002a 3046     		mov	r0, r6
 1819 002c FFF7FEFF 		bl	mqtt_output_append_fixed_header
 1820              	.LVL198:
 640:Middlewares/Third_Party/LwIP/src/apps/mqtt/mqtt.c ****     mqtt_output_send(&client->output, client->conn);
 1821              		.loc 1 640 5 view .LVU485
 1822 0030 4946     		mov	r1, r9
 1823 0032 3046     		mov	r0, r6
 1824 0034 FFF7FEFF 		bl	mqtt_output_append_u16
 1825              	.LVL199:
 641:Middlewares/Third_Party/LwIP/src/apps/mqtt/mqtt.c ****   } else {
 1826              		.loc 1 641 5 view .LVU486
 1827 0038 E968     		ldr	r1, [r5, #12]
 1828 003a 3046     		mov	r0, r6
 1829 003c FFF7FEFF 		bl	mqtt_output_send
 1830              	.LVL200:
 637:Middlewares/Third_Party/LwIP/src/apps/mqtt/mqtt.c ****   if (mqtt_output_check_space(&client->output, 2)) {
 1831              		.loc 1 637 9 is_stmt 0 view .LVU487
 1832 0040 2046     		mov	r0, r4
 1833              	.L146:
 1834              	.LVL201:
 647:Middlewares/Third_Party/LwIP/src/apps/mqtt/mqtt.c **** }
 1835              		.loc 1 647 3 is_stmt 1 view .LVU488
 648:Middlewares/Third_Party/LwIP/src/apps/mqtt/mqtt.c **** 
ARM GAS  /tmp/ccVfyJBo.s 			page 58


 1836              		.loc 1 648 1 is_stmt 0 view .LVU489
 1837 0042 03B0     		add	sp, sp, #12
 1838              	.LCFI19:
 1839              		.cfi_remember_state
 1840              		.cfi_def_cfa_offset 28
 1841              		@ sp needed
 1842 0044 BDE8F083 		pop	{r4, r5, r6, r7, r8, r9, pc}
 1843              	.LVL202:
 1844              	.L147:
 1845              	.LCFI20:
 1846              		.cfi_restore_state
 645:Middlewares/Third_Party/LwIP/src/apps/mqtt/mqtt.c ****   }
 1847              		.loc 1 645 9 view .LVU490
 1848 0048 4FF0FF30 		mov	r0, #-1
 1849 004c F9E7     		b	.L146
 1850              		.cfi_endproc
 1851              	.LFE188:
 1853              		.section	.rodata.mqtt_message_received.str1.4,"aMS",%progbits,1
 1854              		.align	2
 1855              	.LC12:
 1856 0000 636C6965 		.ascii	"client->msg_idx < MQTT_VAR_HEADER_BUFFER_LEN\000"
 1856      6E742D3E 
 1856      6D73675F 
 1856      69647820 
 1856      3C204D51 
 1857 002d 000000   		.align	2
 1858              	.LC13:
 1859 0030 66697865 		.ascii	"fixed_hdr_idx <= client->msg_idx\000"
 1859      645F6864 
 1859      725F6964 
 1859      78203C3D 
 1859      20636C69 
 1860 0051 000000   		.align	2
 1861              	.LC14:
 1862 0054 62756666 		.ascii	"buffer length mismatch\000"
 1862      6572206C 
 1862      656E6774 
 1862      68206D69 
 1862      736D6174 
 1863              		.section	.text.mqtt_message_received,"ax",%progbits
 1864              		.align	1
 1865              		.syntax unified
 1866              		.thumb
 1867              		.thumb_func
 1869              	mqtt_message_received:
 1870              	.LVL203:
 1871              	.LFB190:
 673:Middlewares/Third_Party/LwIP/src/apps/mqtt/mqtt.c ****   mqtt_connection_status_t res = MQTT_CONNECT_ACCEPTED;
 1872              		.loc 1 673 1 is_stmt 1 view -0
 1873              		.cfi_startproc
 1874              		@ args = 0, pretend = 0, frame = 8
 1875              		@ frame_needed = 0, uses_anonymous_args = 0
 673:Middlewares/Third_Party/LwIP/src/apps/mqtt/mqtt.c ****   mqtt_connection_status_t res = MQTT_CONNECT_ACCEPTED;
 1876              		.loc 1 673 1 is_stmt 0 view .LVU492
 1877 0000 2DE9F04F 		push	{r4, r5, r6, r7, r8, r9, r10, fp, lr}
 1878              	.LCFI21:
 1879              		.cfi_def_cfa_offset 36
ARM GAS  /tmp/ccVfyJBo.s 			page 59


 1880              		.cfi_offset 4, -36
 1881              		.cfi_offset 5, -32
 1882              		.cfi_offset 6, -28
 1883              		.cfi_offset 7, -24
 1884              		.cfi_offset 8, -20
 1885              		.cfi_offset 9, -16
 1886              		.cfi_offset 10, -12
 1887              		.cfi_offset 11, -8
 1888              		.cfi_offset 14, -4
 1889 0004 83B0     		sub	sp, sp, #12
 1890              	.LCFI22:
 1891              		.cfi_def_cfa_offset 48
 1892 0006 0446     		mov	r4, r0
 1893 0008 8946     		mov	r9, r1
 1894 000a 1546     		mov	r5, r2
 1895 000c 1E46     		mov	r6, r3
 674:Middlewares/Third_Party/LwIP/src/apps/mqtt/mqtt.c **** 
 1896              		.loc 1 674 3 is_stmt 1 view .LVU493
 1897              	.LVL204:
 676:Middlewares/Third_Party/LwIP/src/apps/mqtt/mqtt.c ****   size_t var_hdr_payload_bufsize = sizeof(client->rx_buffer) - fixed_hdr_idx;
 1898              		.loc 1 676 3 view .LVU494
 676:Middlewares/Third_Party/LwIP/src/apps/mqtt/mqtt.c ****   size_t var_hdr_payload_bufsize = sizeof(client->rx_buffer) - fixed_hdr_idx;
 1899              		.loc 1 676 27 is_stmt 0 view .LVU495
 1900 000e 00F16C0B 		add	fp, r0, #108
 676:Middlewares/Third_Party/LwIP/src/apps/mqtt/mqtt.c ****   size_t var_hdr_payload_bufsize = sizeof(client->rx_buffer) - fixed_hdr_idx;
 1901              		.loc 1 676 9 view .LVU496
 1902 0012 0BEB0107 		add	r7, fp, r1
 1903              	.LVL205:
 677:Middlewares/Third_Party/LwIP/src/apps/mqtt/mqtt.c **** 
 1904              		.loc 1 677 3 is_stmt 1 view .LVU497
 677:Middlewares/Third_Party/LwIP/src/apps/mqtt/mqtt.c **** 
 1905              		.loc 1 677 10 is_stmt 0 view .LVU498
 1906 0016 C1F1800A 		rsb	r10, r1, #128
 1907              	.LVL206:
 680:Middlewares/Third_Party/LwIP/src/apps/mqtt/mqtt.c ****   u16_t pkt_id = 0;
 1908              		.loc 1 680 3 is_stmt 1 view .LVU499
 680:Middlewares/Third_Party/LwIP/src/apps/mqtt/mqtt.c ****   u16_t pkt_id = 0;
 1909              		.loc 1 680 19 is_stmt 0 view .LVU500
 1910 001a 90F86C80 		ldrb	r8, [r0, #108]	@ zero_extendqisi2
 680:Middlewares/Third_Party/LwIP/src/apps/mqtt/mqtt.c ****   u16_t pkt_id = 0;
 1911              		.loc 1 680 8 view .LVU501
 1912 001e 4FEA1818 		lsr	r8, r8, #4
 1913              	.LVL207:
 681:Middlewares/Third_Party/LwIP/src/apps/mqtt/mqtt.c **** 
 1914              		.loc 1 681 3 is_stmt 1 view .LVU502
 683:Middlewares/Third_Party/LwIP/src/apps/mqtt/mqtt.c ****   LWIP_ASSERT("fixed_hdr_idx <= client->msg_idx", fixed_hdr_idx <= client->msg_idx);
 1915              		.loc 1 683 3 view .LVU503
 683:Middlewares/Third_Party/LwIP/src/apps/mqtt/mqtt.c ****   LWIP_ASSERT("fixed_hdr_idx <= client->msg_idx", fixed_hdr_idx <= client->msg_idx);
 1916              		.loc 1 683 3 view .LVU504
 1917 0022 836E     		ldr	r3, [r0, #104]
 1918              	.LVL208:
 683:Middlewares/Third_Party/LwIP/src/apps/mqtt/mqtt.c ****   LWIP_ASSERT("fixed_hdr_idx <= client->msg_idx", fixed_hdr_idx <= client->msg_idx);
 1919              		.loc 1 683 3 is_stmt 0 view .LVU505
 1920 0024 7F2B     		cmp	r3, #127
 1921 0026 46D8     		bhi	.L189
 1922              	.LVL209:
 1923              	.L150:
ARM GAS  /tmp/ccVfyJBo.s 			page 60


 683:Middlewares/Third_Party/LwIP/src/apps/mqtt/mqtt.c ****   LWIP_ASSERT("fixed_hdr_idx <= client->msg_idx", fixed_hdr_idx <= client->msg_idx);
 1924              		.loc 1 683 3 is_stmt 1 discriminator 3 view .LVU506
 683:Middlewares/Third_Party/LwIP/src/apps/mqtt/mqtt.c ****   LWIP_ASSERT("fixed_hdr_idx <= client->msg_idx", fixed_hdr_idx <= client->msg_idx);
 1925              		.loc 1 683 3 discriminator 3 view .LVU507
 684:Middlewares/Third_Party/LwIP/src/apps/mqtt/mqtt.c ****   LWIP_ERROR("buffer length mismatch", fixed_hdr_idx + length <= MQTT_VAR_HEADER_BUFFER_LEN,
 1926              		.loc 1 684 3 discriminator 3 view .LVU508
 684:Middlewares/Third_Party/LwIP/src/apps/mqtt/mqtt.c ****   LWIP_ERROR("buffer length mismatch", fixed_hdr_idx + length <= MQTT_VAR_HEADER_BUFFER_LEN,
 1927              		.loc 1 684 3 discriminator 3 view .LVU509
 1928 0028 A36E     		ldr	r3, [r4, #104]
 1929 002a 9945     		cmp	r9, r3
 1930 002c 4BD8     		bhi	.L190
 1931              	.L151:
 684:Middlewares/Third_Party/LwIP/src/apps/mqtt/mqtt.c ****   LWIP_ERROR("buffer length mismatch", fixed_hdr_idx + length <= MQTT_VAR_HEADER_BUFFER_LEN,
 1932              		.loc 1 684 3 discriminator 3 view .LVU510
 684:Middlewares/Third_Party/LwIP/src/apps/mqtt/mqtt.c ****   LWIP_ERROR("buffer length mismatch", fixed_hdr_idx + length <= MQTT_VAR_HEADER_BUFFER_LEN,
 1933              		.loc 1 684 3 discriminator 3 view .LVU511
 685:Middlewares/Third_Party/LwIP/src/apps/mqtt/mqtt.c ****              return MQTT_CONNECT_DISCONNECTED);
 1934              		.loc 1 685 3 discriminator 3 view .LVU512
 685:Middlewares/Third_Party/LwIP/src/apps/mqtt/mqtt.c ****              return MQTT_CONNECT_DISCONNECTED);
 1935              		.loc 1 685 3 discriminator 3 view .LVU513
 1936 002e 09EB0503 		add	r3, r9, r5
 1937 0032 802B     		cmp	r3, #128
 1938 0034 4FDC     		bgt	.L191
 685:Middlewares/Third_Party/LwIP/src/apps/mqtt/mqtt.c ****              return MQTT_CONNECT_DISCONNECTED);
 1939              		.loc 1 685 3 discriminator 2 view .LVU514
 688:Middlewares/Third_Party/LwIP/src/apps/mqtt/mqtt.c ****     if (client->conn_state == MQTT_CONNECTING) {
 1940              		.loc 1 688 3 discriminator 2 view .LVU515
 688:Middlewares/Third_Party/LwIP/src/apps/mqtt/mqtt.c ****     if (client->conn_state == MQTT_CONNECTING) {
 1941              		.loc 1 688 6 is_stmt 0 discriminator 2 view .LVU516
 1942 0036 B8F1020F 		cmp	r8, #2
 1943 003a 56D0     		beq	.L192
 709:Middlewares/Third_Party/LwIP/src/apps/mqtt/mqtt.c ****     LWIP_DEBUGF(MQTT_DEBUG_TRACE, ( "mqtt_message_received: Received PINGRESP from server\n"));
 1944              		.loc 1 709 10 is_stmt 1 view .LVU517
 709:Middlewares/Third_Party/LwIP/src/apps/mqtt/mqtt.c ****     LWIP_DEBUGF(MQTT_DEBUG_TRACE, ( "mqtt_message_received: Received PINGRESP from server\n"));
 1945              		.loc 1 709 13 is_stmt 0 view .LVU518
 1946 003c B8F10D0F 		cmp	r8, #13
 1947 0040 00F01081 		beq	.L171
 712:Middlewares/Third_Party/LwIP/src/apps/mqtt/mqtt.c ****     u16_t payload_offset = 0;
 1948              		.loc 1 712 10 is_stmt 1 view .LVU519
 712:Middlewares/Third_Party/LwIP/src/apps/mqtt/mqtt.c ****     u16_t payload_offset = 0;
 1949              		.loc 1 712 13 is_stmt 0 view .LVU520
 1950 0044 B8F1030F 		cmp	r8, #3
 1951 0048 69D0     		beq	.L193
 788:Middlewares/Third_Party/LwIP/src/apps/mqtt/mqtt.c ****     pkt_id |= (u16_t)var_hdr_payload[1];
 1952              		.loc 1 788 5 is_stmt 1 view .LVU521
 788:Middlewares/Third_Party/LwIP/src/apps/mqtt/mqtt.c ****     pkt_id |= (u16_t)var_hdr_payload[1];
 1953              		.loc 1 788 36 is_stmt 0 view .LVU522
 1954 004a 1BF80910 		ldrb	r1, [fp, r9]	@ zero_extendqisi2
 1955              	.LVL210:
 789:Middlewares/Third_Party/LwIP/src/apps/mqtt/mqtt.c ****     if (pkt_id == 0) {
 1956              		.loc 1 789 5 is_stmt 1 view .LVU523
 789:Middlewares/Third_Party/LwIP/src/apps/mqtt/mqtt.c ****     if (pkt_id == 0) {
 1957              		.loc 1 789 37 is_stmt 0 view .LVU524
 1958 004e 7A78     		ldrb	r2, [r7, #1]	@ zero_extendqisi2
 1959              	.LVL211:
 790:Middlewares/Third_Party/LwIP/src/apps/mqtt/mqtt.c ****       LWIP_DEBUGF(MQTT_DEBUG_WARN, ("mqtt_message_received: Got message with illegal packet identif
 1960              		.loc 1 790 5 is_stmt 1 view .LVU525
ARM GAS  /tmp/ccVfyJBo.s 			page 61


 790:Middlewares/Third_Party/LwIP/src/apps/mqtt/mqtt.c ****       LWIP_DEBUGF(MQTT_DEBUG_WARN, ("mqtt_message_received: Got message with illegal packet identif
 1961              		.loc 1 790 8 is_stmt 0 view .LVU526
 1962 0050 52EA0121 		orrs	r1, r2, r1, lsl #8
 1963              	.LVL212:
 790:Middlewares/Third_Party/LwIP/src/apps/mqtt/mqtt.c ****       LWIP_DEBUGF(MQTT_DEBUG_WARN, ("mqtt_message_received: Got message with illegal packet identif
 1964              		.loc 1 790 8 view .LVU527
 1965 0054 00F01E81 		beq	.L184
 794:Middlewares/Third_Party/LwIP/src/apps/mqtt/mqtt.c ****       LWIP_DEBUGF(MQTT_DEBUG_TRACE, ("mqtt_message_received: PUBREC, sending PUBREL with pkt_id: %d
 1966              		.loc 1 794 5 is_stmt 1 view .LVU528
 794:Middlewares/Third_Party/LwIP/src/apps/mqtt/mqtt.c ****       LWIP_DEBUGF(MQTT_DEBUG_TRACE, ("mqtt_message_received: PUBREC, sending PUBREL with pkt_id: %d
 1967              		.loc 1 794 8 is_stmt 0 view .LVU529
 1968 0058 B8F1050F 		cmp	r8, #5
 1969 005c 00F0E980 		beq	.L194
 798:Middlewares/Third_Party/LwIP/src/apps/mqtt/mqtt.c ****       LWIP_DEBUGF(MQTT_DEBUG_TRACE, ("mqtt_message_received: PUBREL, sending PUBCOMP response with 
 1970              		.loc 1 798 12 is_stmt 1 view .LVU530
 798:Middlewares/Third_Party/LwIP/src/apps/mqtt/mqtt.c ****       LWIP_DEBUGF(MQTT_DEBUG_TRACE, ("mqtt_message_received: PUBREL, sending PUBCOMP response with 
 1971              		.loc 1 798 15 is_stmt 0 view .LVU531
 1972 0060 B8F1060F 		cmp	r8, #6
 1973 0064 00F0ED80 		beq	.L195
 802:Middlewares/Third_Party/LwIP/src/apps/mqtt/mqtt.c ****                pkt_type == MQTT_MSG_TYPE_PUBCOMP || pkt_type == MQTT_MSG_TYPE_PUBACK) {
 1974              		.loc 1 802 12 is_stmt 1 view .LVU532
 802:Middlewares/Third_Party/LwIP/src/apps/mqtt/mqtt.c ****                pkt_type == MQTT_MSG_TYPE_PUBCOMP || pkt_type == MQTT_MSG_TYPE_PUBACK) {
 1975              		.loc 1 802 15 is_stmt 0 view .LVU533
 1976 0068 B8F10B0F 		cmp	r8, #11
 1977 006c 18BF     		it	ne
 1978 006e B8F1090F 		cmpne	r8, #9
 1979 0072 0AD0     		beq	.L165
 803:Middlewares/Third_Party/LwIP/src/apps/mqtt/mqtt.c ****       struct mqtt_request_t *r = mqtt_take_request(&client->pend_req_queue, pkt_id);
 1980              		.loc 1 803 62 view .LVU534
 1981 0074 B8F1040F 		cmp	r8, #4
 1982 0078 14BF     		ite	ne
 1983 007a 0023     		movne	r3, #0
 1984 007c 0123     		moveq	r3, #1
 803:Middlewares/Third_Party/LwIP/src/apps/mqtt/mqtt.c ****       struct mqtt_request_t *r = mqtt_take_request(&client->pend_req_queue, pkt_id);
 1985              		.loc 1 803 50 view .LVU535
 1986 007e B8F1070F 		cmp	r8, #7
 1987 0082 02D0     		beq	.L165
 1988 0084 002B     		cmp	r3, #0
 1989 0086 00F00881 		beq	.L185
 1990              	.L165:
 1991              	.LBB3:
 804:Middlewares/Third_Party/LwIP/src/apps/mqtt/mqtt.c ****       if (r != NULL) {
 1992              		.loc 1 804 7 is_stmt 1 view .LVU536
 804:Middlewares/Third_Party/LwIP/src/apps/mqtt/mqtt.c ****       if (r != NULL) {
 1993              		.loc 1 804 34 is_stmt 0 view .LVU537
 1994 008a 04F11800 		add	r0, r4, #24
 1995 008e FFF7FEFF 		bl	mqtt_take_request
 1996              	.LVL213:
 805:Middlewares/Third_Party/LwIP/src/apps/mqtt/mqtt.c ****         LWIP_DEBUGF(MQTT_DEBUG_TRACE, ("mqtt_message_received: %s response with id %d\n", mqtt_msg_
 1997              		.loc 1 805 7 is_stmt 1 view .LVU538
 805:Middlewares/Third_Party/LwIP/src/apps/mqtt/mqtt.c ****         LWIP_DEBUGF(MQTT_DEBUG_TRACE, ("mqtt_message_received: %s response with id %d\n", mqtt_msg_
 1998              		.loc 1 805 10 is_stmt 0 view .LVU539
 1999 0092 0446     		mov	r4, r0
 2000              	.LVL214:
 805:Middlewares/Third_Party/LwIP/src/apps/mqtt/mqtt.c ****         LWIP_DEBUGF(MQTT_DEBUG_TRACE, ("mqtt_message_received: %s response with id %d\n", mqtt_msg_
 2001              		.loc 1 805 10 view .LVU540
 2002 0094 0028     		cmp	r0, #0
ARM GAS  /tmp/ccVfyJBo.s 			page 62


 2003 0096 00F00381 		beq	.L186
 806:Middlewares/Third_Party/LwIP/src/apps/mqtt/mqtt.c ****         if (pkt_type == MQTT_MSG_TYPE_SUBACK) {
 2004              		.loc 1 806 131 is_stmt 1 view .LVU541
 807:Middlewares/Third_Party/LwIP/src/apps/mqtt/mqtt.c ****           if (length < 3) {
 2005              		.loc 1 807 9 view .LVU542
 807:Middlewares/Third_Party/LwIP/src/apps/mqtt/mqtt.c ****           if (length < 3) {
 2006              		.loc 1 807 12 is_stmt 0 view .LVU543
 2007 009a B8F1090F 		cmp	r8, #9
 2008 009e 00F0D880 		beq	.L196
 814:Middlewares/Third_Party/LwIP/src/apps/mqtt/mqtt.c ****           r->cb(r->arg, ERR_OK);
 2009              		.loc 1 814 16 is_stmt 1 view .LVU544
 814:Middlewares/Third_Party/LwIP/src/apps/mqtt/mqtt.c ****           r->cb(r->arg, ERR_OK);
 2010              		.loc 1 814 21 is_stmt 0 view .LVU545
 2011 00a2 4368     		ldr	r3, [r0, #4]
 814:Middlewares/Third_Party/LwIP/src/apps/mqtt/mqtt.c ****           r->cb(r->arg, ERR_OK);
 2012              		.loc 1 814 19 view .LVU546
 2013 00a4 13B1     		cbz	r3, .L168
 815:Middlewares/Third_Party/LwIP/src/apps/mqtt/mqtt.c ****         }
 2014              		.loc 1 815 11 is_stmt 1 view .LVU547
 2015 00a6 0021     		movs	r1, #0
 2016 00a8 8068     		ldr	r0, [r0, #8]
 2017              	.LVL215:
 815:Middlewares/Third_Party/LwIP/src/apps/mqtt/mqtt.c ****         }
 2018              		.loc 1 815 11 is_stmt 0 view .LVU548
 2019 00aa 9847     		blx	r3
 2020              	.LVL216:
 2021              	.L168:
 817:Middlewares/Third_Party/LwIP/src/apps/mqtt/mqtt.c ****       } else {
 2022              		.loc 1 817 9 is_stmt 1 view .LVU549
 2023 00ac 2046     		mov	r0, r4
 2024 00ae FFF7FEFF 		bl	mqtt_delete_request
 2025              	.LVL217:
 2026              	.LBE3:
 674:Middlewares/Third_Party/LwIP/src/apps/mqtt/mqtt.c **** 
 2027              		.loc 1 674 28 is_stmt 0 view .LVU550
 2028 00b2 0025     		movs	r5, #0
 2029              	.LBB4:
 2030 00b4 1DE0     		b	.L153
 2031              	.LVL218:
 2032              	.L189:
 674:Middlewares/Third_Party/LwIP/src/apps/mqtt/mqtt.c **** 
 2033              		.loc 1 674 28 view .LVU551
 2034              	.LBE4:
 683:Middlewares/Third_Party/LwIP/src/apps/mqtt/mqtt.c ****   LWIP_ASSERT("fixed_hdr_idx <= client->msg_idx", fixed_hdr_idx <= client->msg_idx);
 2035              		.loc 1 683 3 is_stmt 1 discriminator 1 view .LVU552
 683:Middlewares/Third_Party/LwIP/src/apps/mqtt/mqtt.c ****   LWIP_ASSERT("fixed_hdr_idx <= client->msg_idx", fixed_hdr_idx <= client->msg_idx);
 2036              		.loc 1 683 3 discriminator 1 view .LVU553
 2037 00b6 7D4B     		ldr	r3, .L199
 2038 00b8 40F2AB22 		movw	r2, #683
 2039              	.LVL219:
 683:Middlewares/Third_Party/LwIP/src/apps/mqtt/mqtt.c ****   LWIP_ASSERT("fixed_hdr_idx <= client->msg_idx", fixed_hdr_idx <= client->msg_idx);
 2040              		.loc 1 683 3 is_stmt 0 discriminator 1 view .LVU554
 2041 00bc 7C49     		ldr	r1, .L199+4
 2042              	.LVL220:
 683:Middlewares/Third_Party/LwIP/src/apps/mqtt/mqtt.c ****   LWIP_ASSERT("fixed_hdr_idx <= client->msg_idx", fixed_hdr_idx <= client->msg_idx);
 2043              		.loc 1 683 3 discriminator 1 view .LVU555
 2044 00be 7D48     		ldr	r0, .L199+8
ARM GAS  /tmp/ccVfyJBo.s 			page 63


 2045              	.LVL221:
 683:Middlewares/Third_Party/LwIP/src/apps/mqtt/mqtt.c ****   LWIP_ASSERT("fixed_hdr_idx <= client->msg_idx", fixed_hdr_idx <= client->msg_idx);
 2046              		.loc 1 683 3 discriminator 1 view .LVU556
 2047 00c0 FFF7FEFF 		bl	printf
 2048              	.LVL222:
 2049 00c4 B0E7     		b	.L150
 2050              	.L190:
 684:Middlewares/Third_Party/LwIP/src/apps/mqtt/mqtt.c ****   LWIP_ERROR("buffer length mismatch", fixed_hdr_idx + length <= MQTT_VAR_HEADER_BUFFER_LEN,
 2051              		.loc 1 684 3 is_stmt 1 discriminator 1 view .LVU557
 684:Middlewares/Third_Party/LwIP/src/apps/mqtt/mqtt.c ****   LWIP_ERROR("buffer length mismatch", fixed_hdr_idx + length <= MQTT_VAR_HEADER_BUFFER_LEN,
 2052              		.loc 1 684 3 discriminator 1 view .LVU558
 2053 00c6 794B     		ldr	r3, .L199
 2054 00c8 4FF42B72 		mov	r2, #684
 2055 00cc 7A49     		ldr	r1, .L199+12
 2056 00ce 7948     		ldr	r0, .L199+8
 2057 00d0 FFF7FEFF 		bl	printf
 2058              	.LVL223:
 2059 00d4 ABE7     		b	.L151
 2060              	.L191:
 685:Middlewares/Third_Party/LwIP/src/apps/mqtt/mqtt.c ****              return MQTT_CONNECT_DISCONNECTED);
 2061              		.loc 1 685 3 discriminator 1 view .LVU559
 685:Middlewares/Third_Party/LwIP/src/apps/mqtt/mqtt.c ****              return MQTT_CONNECT_DISCONNECTED);
 2062              		.loc 1 685 3 discriminator 1 view .LVU560
 2063 00d6 754B     		ldr	r3, .L199
 2064 00d8 40F2AD22 		movw	r2, #685
 2065 00dc 7749     		ldr	r1, .L199+16
 2066 00de 7548     		ldr	r0, .L199+8
 2067 00e0 FFF7FEFF 		bl	printf
 2068              	.LVL224:
 685:Middlewares/Third_Party/LwIP/src/apps/mqtt/mqtt.c ****              return MQTT_CONNECT_DISCONNECTED);
 2069              		.loc 1 685 3 discriminator 1 view .LVU561
 685:Middlewares/Third_Party/LwIP/src/apps/mqtt/mqtt.c ****              return MQTT_CONNECT_DISCONNECTED);
 2070              		.loc 1 685 3 discriminator 1 view .LVU562
 2071 00e4 4FF48075 		mov	r5, #256
 2072 00e8 03E0     		b	.L153
 2073              	.L192:
 689:Middlewares/Third_Party/LwIP/src/apps/mqtt/mqtt.c ****       if (length < 2) {
 2074              		.loc 1 689 5 view .LVU563
 689:Middlewares/Third_Party/LwIP/src/apps/mqtt/mqtt.c ****       if (length < 2) {
 2075              		.loc 1 689 15 is_stmt 0 view .LVU564
 2076 00ea A37A     		ldrb	r3, [r4, #10]	@ zero_extendqisi2
 689:Middlewares/Third_Party/LwIP/src/apps/mqtt/mqtt.c ****       if (length < 2) {
 2077              		.loc 1 689 8 view .LVU565
 2078 00ec 022B     		cmp	r3, #2
 2079 00ee 04D0     		beq	.L197
 674:Middlewares/Third_Party/LwIP/src/apps/mqtt/mqtt.c **** 
 2080              		.loc 1 674 28 view .LVU566
 2081 00f0 0025     		movs	r5, #0
 2082              	.LVL225:
 2083              	.L153:
 829:Middlewares/Third_Party/LwIP/src/apps/mqtt/mqtt.c **** 
 2084              		.loc 1 829 1 view .LVU567
 2085 00f2 2846     		mov	r0, r5
 2086 00f4 03B0     		add	sp, sp, #12
 2087              	.LCFI23:
 2088              		.cfi_remember_state
 2089              		.cfi_def_cfa_offset 36
ARM GAS  /tmp/ccVfyJBo.s 			page 64


 2090              		@ sp needed
 2091 00f6 BDE8F08F 		pop	{r4, r5, r6, r7, r8, r9, r10, fp, pc}
 2092              	.LVL226:
 2093              	.L197:
 2094              	.LCFI24:
 2095              		.cfi_restore_state
 690:Middlewares/Third_Party/LwIP/src/apps/mqtt/mqtt.c ****         LWIP_DEBUGF(MQTT_DEBUG_WARN,( "mqtt_message_received: Received short CONNACK message\n"));
 2096              		.loc 1 690 7 is_stmt 1 view .LVU568
 690:Middlewares/Third_Party/LwIP/src/apps/mqtt/mqtt.c ****         LWIP_DEBUGF(MQTT_DEBUG_WARN,( "mqtt_message_received: Received short CONNACK message\n"));
 2097              		.loc 1 690 10 is_stmt 0 view .LVU569
 2098 00fa 012D     		cmp	r5, #1
 2099 00fc 40F2AF80 		bls	.L170
 695:Middlewares/Third_Party/LwIP/src/apps/mqtt/mqtt.c ****       LWIP_DEBUGF(MQTT_DEBUG_TRACE, ("mqtt_message_received: Connect response code %d\n", res));
 2100              		.loc 1 695 7 is_stmt 1 view .LVU570
 695:Middlewares/Third_Party/LwIP/src/apps/mqtt/mqtt.c ****       LWIP_DEBUGF(MQTT_DEBUG_TRACE, ("mqtt_message_received: Connect response code %d\n", res));
 2101              		.loc 1 695 11 is_stmt 0 view .LVU571
 2102 0100 7D78     		ldrb	r5, [r7, #1]	@ zero_extendqisi2
 2103              	.LVL227:
 696:Middlewares/Third_Party/LwIP/src/apps/mqtt/mqtt.c ****       if (res == MQTT_CONNECT_ACCEPTED) {
 2104              		.loc 1 696 96 is_stmt 1 view .LVU572
 697:Middlewares/Third_Party/LwIP/src/apps/mqtt/mqtt.c ****         /* Reset cyclic_tick when changing to connected state */
 2105              		.loc 1 697 7 view .LVU573
 697:Middlewares/Third_Party/LwIP/src/apps/mqtt/mqtt.c ****         /* Reset cyclic_tick when changing to connected state */
 2106              		.loc 1 697 10 is_stmt 0 view .LVU574
 2107 0102 002D     		cmp	r5, #0
 2108 0104 F5D1     		bne	.L153
 699:Middlewares/Third_Party/LwIP/src/apps/mqtt/mqtt.c ****         client->conn_state = MQTT_CONNECTED;
 2109              		.loc 1 699 9 is_stmt 1 view .LVU575
 699:Middlewares/Third_Party/LwIP/src/apps/mqtt/mqtt.c ****         client->conn_state = MQTT_CONNECTED;
 2110              		.loc 1 699 29 is_stmt 0 view .LVU576
 2111 0106 0023     		movs	r3, #0
 2112 0108 2380     		strh	r3, [r4]	@ movhi
 700:Middlewares/Third_Party/LwIP/src/apps/mqtt/mqtt.c ****         /* Notify upper layer */
 2113              		.loc 1 700 9 is_stmt 1 view .LVU577
 700:Middlewares/Third_Party/LwIP/src/apps/mqtt/mqtt.c ****         /* Notify upper layer */
 2114              		.loc 1 700 28 is_stmt 0 view .LVU578
 2115 010a 0323     		movs	r3, #3
 2116 010c A372     		strb	r3, [r4, #10]
 702:Middlewares/Third_Party/LwIP/src/apps/mqtt/mqtt.c ****           client->connect_cb(client, client->connect_arg, res);
 2117              		.loc 1 702 9 is_stmt 1 view .LVU579
 702:Middlewares/Third_Party/LwIP/src/apps/mqtt/mqtt.c ****           client->connect_cb(client, client->connect_arg, res);
 2118              		.loc 1 702 19 is_stmt 0 view .LVU580
 2119 010e 6369     		ldr	r3, [r4, #20]
 702:Middlewares/Third_Party/LwIP/src/apps/mqtt/mqtt.c ****           client->connect_cb(client, client->connect_arg, res);
 2120              		.loc 1 702 12 view .LVU581
 2121 0110 002B     		cmp	r3, #0
 2122 0112 EED0     		beq	.L153
 703:Middlewares/Third_Party/LwIP/src/apps/mqtt/mqtt.c ****         }
 2123              		.loc 1 703 11 is_stmt 1 view .LVU582
 2124 0114 2A46     		mov	r2, r5
 2125 0116 2169     		ldr	r1, [r4, #16]
 2126 0118 2046     		mov	r0, r4
 2127 011a 9847     		blx	r3
 2128              	.LVL228:
 2129 011c E9E7     		b	.L153
 2130              	.LVL229:
 2131              	.L193:
ARM GAS  /tmp/ccVfyJBo.s 			page 65


 2132              	.LBB5:
 713:Middlewares/Third_Party/LwIP/src/apps/mqtt/mqtt.c ****     u16_t payload_length = length;
 2133              		.loc 1 713 5 view .LVU583
 714:Middlewares/Third_Party/LwIP/src/apps/mqtt/mqtt.c ****     u8_t qos = MQTT_CTL_PACKET_QOS(client->rx_buffer[0]);
 2134              		.loc 1 714 5 view .LVU584
 715:Middlewares/Third_Party/LwIP/src/apps/mqtt/mqtt.c **** 
 2135              		.loc 1 715 5 view .LVU585
 715:Middlewares/Third_Party/LwIP/src/apps/mqtt/mqtt.c **** 
 2136              		.loc 1 715 16 is_stmt 0 view .LVU586
 2137 011e 94F86C80 		ldrb	r8, [r4, #108]	@ zero_extendqisi2
 2138              	.LVL230:
 715:Middlewares/Third_Party/LwIP/src/apps/mqtt/mqtt.c **** 
 2139              		.loc 1 715 10 view .LVU587
 2140 0122 C8F34108 		ubfx	r8, r8, #1, #2
 2141              	.LVL231:
 717:Middlewares/Third_Party/LwIP/src/apps/mqtt/mqtt.c ****       /* Should have topic and pkt id*/
 2142              		.loc 1 717 5 is_stmt 1 view .LVU588
 717:Middlewares/Third_Party/LwIP/src/apps/mqtt/mqtt.c ****       /* Should have topic and pkt id*/
 2143              		.loc 1 717 15 is_stmt 0 view .LVU589
 2144 0126 A36E     		ldr	r3, [r4, #104]
 717:Middlewares/Third_Party/LwIP/src/apps/mqtt/mqtt.c ****       /* Should have topic and pkt id*/
 2145              		.loc 1 717 8 view .LVU590
 2146 0128 802B     		cmp	r3, #128
 2147 012a 55D8     		bhi	.L172
 2148              	.LBB6:
 719:Middlewares/Third_Party/LwIP/src/apps/mqtt/mqtt.c ****       u16_t after_topic;
 2149              		.loc 1 719 7 is_stmt 1 view .LVU591
 720:Middlewares/Third_Party/LwIP/src/apps/mqtt/mqtt.c ****       u8_t bkp;
 2150              		.loc 1 720 7 view .LVU592
 721:Middlewares/Third_Party/LwIP/src/apps/mqtt/mqtt.c ****       u16_t topic_len;
 2151              		.loc 1 721 7 view .LVU593
 722:Middlewares/Third_Party/LwIP/src/apps/mqtt/mqtt.c ****       u16_t qos_len = (qos ? 2U : 0U);
 2152              		.loc 1 722 7 view .LVU594
 723:Middlewares/Third_Party/LwIP/src/apps/mqtt/mqtt.c ****       if (length < 2 + qos_len) {
 2153              		.loc 1 723 7 view .LVU595
 723:Middlewares/Third_Party/LwIP/src/apps/mqtt/mqtt.c ****       if (length < 2 + qos_len) {
 2154              		.loc 1 723 13 is_stmt 0 view .LVU596
 2155 012c B8F1000F 		cmp	r8, #0
 2156 0130 36D0     		beq	.L173
 2157 0132 0223     		movs	r3, #2
 2158              	.L157:
 2159              	.LVL232:
 724:Middlewares/Third_Party/LwIP/src/apps/mqtt/mqtt.c ****         LWIP_DEBUGF(MQTT_DEBUG_WARN,( "mqtt_message_received: Received short PUBLISH packet\n"));
 2160              		.loc 1 724 7 is_stmt 1 discriminator 4 view .LVU597
 724:Middlewares/Third_Party/LwIP/src/apps/mqtt/mqtt.c ****         LWIP_DEBUGF(MQTT_DEBUG_WARN,( "mqtt_message_received: Received short PUBLISH packet\n"));
 2161              		.loc 1 724 18 is_stmt 0 discriminator 4 view .LVU598
 2162 0134 5A1C     		adds	r2, r3, #1
 724:Middlewares/Third_Party/LwIP/src/apps/mqtt/mqtt.c ****         LWIP_DEBUGF(MQTT_DEBUG_WARN,( "mqtt_message_received: Received short PUBLISH packet\n"));
 2163              		.loc 1 724 10 discriminator 4 view .LVU599
 2164 0136 9542     		cmp	r5, r2
 2165 0138 40F39680 		ble	.L174
 728:Middlewares/Third_Party/LwIP/src/apps/mqtt/mqtt.c ****       topic_len = (topic_len << 8) + (u16_t)(var_hdr_payload[1]);
 2166              		.loc 1 728 7 is_stmt 1 view .LVU600
 728:Middlewares/Third_Party/LwIP/src/apps/mqtt/mqtt.c ****       topic_len = (topic_len << 8) + (u16_t)(var_hdr_payload[1]);
 2167              		.loc 1 728 17 is_stmt 0 view .LVU601
 2168 013c 1BF80920 		ldrb	r2, [fp, r9]	@ zero_extendqisi2
 2169              	.LVL233:
ARM GAS  /tmp/ccVfyJBo.s 			page 66


 729:Middlewares/Third_Party/LwIP/src/apps/mqtt/mqtt.c ****       if ((topic_len > length - (2 + qos_len)) ||
 2170              		.loc 1 729 7 is_stmt 1 view .LVU602
 729:Middlewares/Third_Party/LwIP/src/apps/mqtt/mqtt.c ****       if ((topic_len > length - (2 + qos_len)) ||
 2171              		.loc 1 729 61 is_stmt 0 view .LVU603
 2172 0140 97F801B0 		ldrb	fp, [r7, #1]	@ zero_extendqisi2
 729:Middlewares/Third_Party/LwIP/src/apps/mqtt/mqtt.c ****       if ((topic_len > length - (2 + qos_len)) ||
 2173              		.loc 1 729 17 view .LVU604
 2174 0144 0BEB022B 		add	fp, fp, r2, lsl #8
 2175 0148 1FFA8BFB 		uxth	fp, fp
 2176              	.LVL234:
 730:Middlewares/Third_Party/LwIP/src/apps/mqtt/mqtt.c ****           (topic_len > var_hdr_payload_bufsize - (2 + qos_len))) {
 2177              		.loc 1 730 7 is_stmt 1 view .LVU605
 730:Middlewares/Third_Party/LwIP/src/apps/mqtt/mqtt.c ****           (topic_len > var_hdr_payload_bufsize - (2 + qos_len))) {
 2178              		.loc 1 730 36 is_stmt 0 view .LVU606
 2179 014c 9A1C     		adds	r2, r3, #2
 730:Middlewares/Third_Party/LwIP/src/apps/mqtt/mqtt.c ****           (topic_len > var_hdr_payload_bufsize - (2 + qos_len))) {
 2180              		.loc 1 730 31 view .LVU607
 2181 014e AA1A     		subs	r2, r5, r2
 730:Middlewares/Third_Party/LwIP/src/apps/mqtt/mqtt.c ****           (topic_len > var_hdr_payload_bufsize - (2 + qos_len))) {
 2182              		.loc 1 730 10 view .LVU608
 2183 0150 9345     		cmp	fp, r2
 2184 0152 00F38C80 		bgt	.L175
 731:Middlewares/Third_Party/LwIP/src/apps/mqtt/mqtt.c ****         LWIP_DEBUGF(MQTT_DEBUG_WARN,( "mqtt_message_received: Received short PUBLISH packet (topic)
 2185              		.loc 1 731 48 discriminator 1 view .LVU609
 2186 0156 AAEB0303 		sub	r3, r10, r3
 2187              	.LVL235:
 731:Middlewares/Third_Party/LwIP/src/apps/mqtt/mqtt.c ****         LWIP_DEBUGF(MQTT_DEBUG_WARN,( "mqtt_message_received: Received short PUBLISH packet (topic)
 2188              		.loc 1 731 48 discriminator 1 view .LVU610
 2189 015a 023B     		subs	r3, r3, #2
 730:Middlewares/Third_Party/LwIP/src/apps/mqtt/mqtt.c ****           (topic_len > var_hdr_payload_bufsize - (2 + qos_len))) {
 2190              		.loc 1 730 48 discriminator 1 view .LVU611
 2191 015c 9B45     		cmp	fp, r3
 2192 015e 00F28980 		bhi	.L176
 736:Middlewares/Third_Party/LwIP/src/apps/mqtt/mqtt.c ****       after_topic = 2 + topic_len;
 2193              		.loc 1 736 7 is_stmt 1 view .LVU612
 736:Middlewares/Third_Party/LwIP/src/apps/mqtt/mqtt.c ****       after_topic = 2 + topic_len;
 2194              		.loc 1 736 13 is_stmt 0 view .LVU613
 2195 0162 BB1C     		adds	r3, r7, #2
 2196 0164 0093     		str	r3, [sp]
 2197              	.LVL236:
 737:Middlewares/Third_Party/LwIP/src/apps/mqtt/mqtt.c ****       /* Check buffer length, add one byte even for QoS 0 so that zero termination will fit */
 2198              		.loc 1 737 7 is_stmt 1 view .LVU614
 737:Middlewares/Third_Party/LwIP/src/apps/mqtt/mqtt.c ****       /* Check buffer length, add one byte even for QoS 0 so that zero termination will fit */
 2199              		.loc 1 737 19 is_stmt 0 view .LVU615
 2200 0166 0BF10209 		add	r9, fp, #2
 2201 016a 1FFA89F9 		uxth	r9, r9
 2202              	.LVL237:
 739:Middlewares/Third_Party/LwIP/src/apps/mqtt/mqtt.c ****         LWIP_DEBUGF(MQTT_DEBUG_WARN, ("mqtt_message_received: Receive buffer can not fit topic + pk
 2203              		.loc 1 739 7 is_stmt 1 view .LVU616
 739:Middlewares/Third_Party/LwIP/src/apps/mqtt/mqtt.c ****         LWIP_DEBUGF(MQTT_DEBUG_WARN, ("mqtt_message_received: Receive buffer can not fit topic + pk
 2204              		.loc 1 739 24 is_stmt 0 view .LVU617
 2205 016e 4A46     		mov	r2, r9
 739:Middlewares/Third_Party/LwIP/src/apps/mqtt/mqtt.c ****         LWIP_DEBUGF(MQTT_DEBUG_WARN, ("mqtt_message_received: Receive buffer can not fit topic + pk
 2206              		.loc 1 739 36 view .LVU618
 2207 0170 B8F1000F 		cmp	r8, #0
 2208 0174 16D0     		beq	.L177
 2209 0176 0223     		movs	r3, #2
ARM GAS  /tmp/ccVfyJBo.s 			page 67


 2210              	.LVL238:
 2211              	.L158:
 739:Middlewares/Third_Party/LwIP/src/apps/mqtt/mqtt.c ****         LWIP_DEBUGF(MQTT_DEBUG_WARN, ("mqtt_message_received: Receive buffer can not fit topic + pk
 2212              		.loc 1 739 24 discriminator 4 view .LVU619
 2213 0178 1344     		add	r3, r3, r2
 739:Middlewares/Third_Party/LwIP/src/apps/mqtt/mqtt.c ****         LWIP_DEBUGF(MQTT_DEBUG_WARN, ("mqtt_message_received: Receive buffer can not fit topic + pk
 2214              		.loc 1 739 10 discriminator 4 view .LVU620
 2215 017a 5345     		cmp	r3, r10
 2216 017c 7DD8     		bhi	.L178
 745:Middlewares/Third_Party/LwIP/src/apps/mqtt/mqtt.c ****         if (length < after_topic + 2U) {
 2217              		.loc 1 745 7 is_stmt 1 view .LVU621
 745:Middlewares/Third_Party/LwIP/src/apps/mqtt/mqtt.c ****         if (length < after_topic + 2U) {
 2218              		.loc 1 745 10 is_stmt 0 view .LVU622
 2219 017e B8F1000F 		cmp	r8, #0
 2220 0182 11D0     		beq	.L159
 746:Middlewares/Third_Party/LwIP/src/apps/mqtt/mqtt.c ****           LWIP_DEBUGF(MQTT_DEBUG_WARN,( "mqtt_message_received: Received short PUBLISH packet (afte
 2221              		.loc 1 746 9 is_stmt 1 view .LVU623
 746:Middlewares/Third_Party/LwIP/src/apps/mqtt/mqtt.c ****           LWIP_DEBUGF(MQTT_DEBUG_WARN,( "mqtt_message_received: Received short PUBLISH packet (afte
 2222              		.loc 1 746 34 is_stmt 0 view .LVU624
 2223 0184 931C     		adds	r3, r2, #2
 746:Middlewares/Third_Party/LwIP/src/apps/mqtt/mqtt.c ****           LWIP_DEBUGF(MQTT_DEBUG_WARN,( "mqtt_message_received: Received short PUBLISH packet (afte
 2224              		.loc 1 746 12 view .LVU625
 2225 0186 9D42     		cmp	r5, r3
 2226 0188 7AD3     		bcc	.L179
 750:Middlewares/Third_Party/LwIP/src/apps/mqtt/mqtt.c ****         after_topic += 2;
 2227              		.loc 1 750 9 is_stmt 1 view .LVU626
 750:Middlewares/Third_Party/LwIP/src/apps/mqtt/mqtt.c ****         after_topic += 2;
 2228              		.loc 1 750 55 is_stmt 0 view .LVU627
 2229 018a B95C     		ldrb	r1, [r7, r2]	@ zero_extendqisi2
 750:Middlewares/Third_Party/LwIP/src/apps/mqtt/mqtt.c ****         after_topic += 2;
 2230              		.loc 1 750 99 view .LVU628
 2231 018c 3A44     		add	r2, r2, r7
 2232 018e 5378     		ldrb	r3, [r2, #1]	@ zero_extendqisi2
 750:Middlewares/Third_Party/LwIP/src/apps/mqtt/mqtt.c ****         after_topic += 2;
 2233              		.loc 1 750 75 view .LVU629
 2234 0190 03EB0123 		add	r3, r3, r1, lsl #8
 750:Middlewares/Third_Party/LwIP/src/apps/mqtt/mqtt.c ****         after_topic += 2;
 2235              		.loc 1 750 30 view .LVU630
 2236 0194 2381     		strh	r3, [r4, #8]	@ movhi
 751:Middlewares/Third_Party/LwIP/src/apps/mqtt/mqtt.c ****       } else {
 2237              		.loc 1 751 9 is_stmt 1 view .LVU631
 751:Middlewares/Third_Party/LwIP/src/apps/mqtt/mqtt.c ****       } else {
 2238              		.loc 1 751 21 is_stmt 0 view .LVU632
 2239 0196 0BF10409 		add	r9, fp, #4
 2240              	.LVL239:
 751:Middlewares/Third_Party/LwIP/src/apps/mqtt/mqtt.c ****       } else {
 2241              		.loc 1 751 21 view .LVU633
 2242 019a 1FFA89F9 		uxth	r9, r9
 2243              	.LVL240:
 751:Middlewares/Third_Party/LwIP/src/apps/mqtt/mqtt.c ****       } else {
 2244              		.loc 1 751 21 view .LVU634
 2245 019e 05E0     		b	.L160
 2246              	.LVL241:
 2247              	.L173:
 723:Middlewares/Third_Party/LwIP/src/apps/mqtt/mqtt.c ****       if (length < 2 + qos_len) {
 2248              		.loc 1 723 13 view .LVU635
 2249 01a0 0023     		movs	r3, #0
ARM GAS  /tmp/ccVfyJBo.s 			page 68


 2250 01a2 C7E7     		b	.L157
 2251              	.LVL242:
 2252              	.L177:
 739:Middlewares/Third_Party/LwIP/src/apps/mqtt/mqtt.c ****         LWIP_DEBUGF(MQTT_DEBUG_WARN, ("mqtt_message_received: Receive buffer can not fit topic + pk
 2253              		.loc 1 739 36 view .LVU636
 2254 01a4 0123     		movs	r3, #1
 2255              	.LVL243:
 739:Middlewares/Third_Party/LwIP/src/apps/mqtt/mqtt.c ****         LWIP_DEBUGF(MQTT_DEBUG_WARN, ("mqtt_message_received: Receive buffer can not fit topic + pk
 2256              		.loc 1 739 36 view .LVU637
 2257 01a6 E7E7     		b	.L158
 2258              	.L159:
 753:Middlewares/Third_Party/LwIP/src/apps/mqtt/mqtt.c ****       }
 2259              		.loc 1 753 9 is_stmt 1 view .LVU638
 753:Middlewares/Third_Party/LwIP/src/apps/mqtt/mqtt.c ****       }
 2260              		.loc 1 753 30 is_stmt 0 view .LVU639
 2261 01a8 0023     		movs	r3, #0
 2262 01aa 2381     		strh	r3, [r4, #8]	@ movhi
 2263              	.L160:
 756:Middlewares/Third_Party/LwIP/src/apps/mqtt/mqtt.c ****       /* Zero terminate string */
 2264              		.loc 1 756 7 is_stmt 1 view .LVU640
 756:Middlewares/Third_Party/LwIP/src/apps/mqtt/mqtt.c ****       /* Zero terminate string */
 2265              		.loc 1 756 11 is_stmt 0 view .LVU641
 2266 01ac 0099     		ldr	r1, [sp]
 2267 01ae 11F80B30 		ldrb	r3, [r1, fp]	@ zero_extendqisi2
 2268 01b2 0193     		str	r3, [sp, #4]
 2269              	.LVL244:
 758:Middlewares/Third_Party/LwIP/src/apps/mqtt/mqtt.c ****       /* Payload data remaining in receive buffer */
 2270              		.loc 1 758 7 is_stmt 1 view .LVU642
 758:Middlewares/Third_Party/LwIP/src/apps/mqtt/mqtt.c ****       /* Payload data remaining in receive buffer */
 2271              		.loc 1 758 24 is_stmt 0 view .LVU643
 2272 01b4 0023     		movs	r3, #0
 2273 01b6 01F80B30 		strb	r3, [r1, fp]
 760:Middlewares/Third_Party/LwIP/src/apps/mqtt/mqtt.c ****       payload_offset = after_topic;
 2274              		.loc 1 760 7 is_stmt 1 view .LVU644
 760:Middlewares/Third_Party/LwIP/src/apps/mqtt/mqtt.c ****       payload_offset = after_topic;
 2275              		.loc 1 760 22 is_stmt 0 view .LVU645
 2276 01ba A5EB090A 		sub	r10, r5, r9
 2277              	.LVL245:
 760:Middlewares/Third_Party/LwIP/src/apps/mqtt/mqtt.c ****       payload_offset = after_topic;
 2278              		.loc 1 760 22 view .LVU646
 2279 01be 1FFA8AFA 		uxth	r10, r10
 2280              	.LVL246:
 761:Middlewares/Third_Party/LwIP/src/apps/mqtt/mqtt.c **** 
 2281              		.loc 1 761 7 is_stmt 1 view .LVU647
 764:Middlewares/Third_Party/LwIP/src/apps/mqtt/mqtt.c ****       if (client->pub_cb != NULL) {
 2282              		.loc 1 764 85 view .LVU648
 765:Middlewares/Third_Party/LwIP/src/apps/mqtt/mqtt.c ****         client->pub_cb(client->inpub_arg, (const char *)topic, remaining_length + payload_length);
 2283              		.loc 1 765 7 view .LVU649
 765:Middlewares/Third_Party/LwIP/src/apps/mqtt/mqtt.c ****         client->pub_cb(client->inpub_arg, (const char *)topic, remaining_length + payload_length);
 2284              		.loc 1 765 17 is_stmt 0 view .LVU650
 2285 01c2 636E     		ldr	r3, [r4, #100]
 765:Middlewares/Third_Party/LwIP/src/apps/mqtt/mqtt.c ****         client->pub_cb(client->inpub_arg, (const char *)topic, remaining_length + payload_length);
 2286              		.loc 1 765 10 view .LVU651
 2287 01c4 1BB1     		cbz	r3, .L161
 766:Middlewares/Third_Party/LwIP/src/apps/mqtt/mqtt.c ****       }
 2288              		.loc 1 766 9 is_stmt 1 view .LVU652
 2289 01c6 0AEB0602 		add	r2, r10, r6
ARM GAS  /tmp/ccVfyJBo.s 			page 69


 2290 01ca E06D     		ldr	r0, [r4, #92]
 2291 01cc 9847     		blx	r3
 2292              	.LVL247:
 2293              	.L161:
 769:Middlewares/Third_Party/LwIP/src/apps/mqtt/mqtt.c ****     }
 2294              		.loc 1 769 7 view .LVU653
 769:Middlewares/Third_Party/LwIP/src/apps/mqtt/mqtt.c ****     }
 2295              		.loc 1 769 24 is_stmt 0 view .LVU654
 2296 01ce 009B     		ldr	r3, [sp]
 2297 01d0 019A     		ldr	r2, [sp, #4]
 2298 01d2 03F80B20 		strb	r2, [r3, fp]
 2299 01d6 02E0     		b	.L156
 2300              	.LVL248:
 2301              	.L172:
 769:Middlewares/Third_Party/LwIP/src/apps/mqtt/mqtt.c ****     }
 2302              		.loc 1 769 24 view .LVU655
 2303              	.LBE6:
 714:Middlewares/Third_Party/LwIP/src/apps/mqtt/mqtt.c ****     u8_t qos = MQTT_CTL_PACKET_QOS(client->rx_buffer[0]);
 2304              		.loc 1 714 11 view .LVU656
 2305 01d8 AA46     		mov	r10, r5
 2306              	.LVL249:
 713:Middlewares/Third_Party/LwIP/src/apps/mqtt/mqtt.c ****     u16_t payload_length = length;
 2307              		.loc 1 713 11 view .LVU657
 2308 01da 4FF00009 		mov	r9, #0
 2309              	.LVL250:
 2310              	.L156:
 771:Middlewares/Third_Party/LwIP/src/apps/mqtt/mqtt.c ****       if (length < (size_t)(payload_offset + payload_length)) {
 2311              		.loc 1 771 5 is_stmt 1 view .LVU658
 771:Middlewares/Third_Party/LwIP/src/apps/mqtt/mqtt.c ****       if (length < (size_t)(payload_offset + payload_length)) {
 2312              		.loc 1 771 48 is_stmt 0 view .LVU659
 2313 01de B6FA86F6 		clz	r6, r6
 2314              	.LVL251:
 771:Middlewares/Third_Party/LwIP/src/apps/mqtt/mqtt.c ****       if (length < (size_t)(payload_offset + payload_length)) {
 2315              		.loc 1 771 48 view .LVU660
 2316 01e2 7609     		lsrs	r6, r6, #5
 771:Middlewares/Third_Party/LwIP/src/apps/mqtt/mqtt.c ****       if (length < (size_t)(payload_offset + payload_length)) {
 2317              		.loc 1 771 28 view .LVU661
 2318 01e4 BAF1000F 		cmp	r10, #0
 2319 01e8 0CBF     		ite	eq
 2320 01ea 3346     		moveq	r3, r6
 2321 01ec 46F00103 		orrne	r3, r6, #1
 771:Middlewares/Third_Party/LwIP/src/apps/mqtt/mqtt.c ****       if (length < (size_t)(payload_offset + payload_length)) {
 2322              		.loc 1 771 8 view .LVU662
 2323 01f0 002B     		cmp	r3, #0
 2324 01f2 48D0     		beq	.L180
 772:Middlewares/Third_Party/LwIP/src/apps/mqtt/mqtt.c ****         LWIP_DEBUGF(MQTT_DEBUG_WARN,( "mqtt_message_received: Received short packet (payload)\n"));
 2325              		.loc 1 772 7 is_stmt 1 view .LVU663
 772:Middlewares/Third_Party/LwIP/src/apps/mqtt/mqtt.c ****         LWIP_DEBUGF(MQTT_DEBUG_WARN,( "mqtt_message_received: Received short packet (payload)\n"));
 2326              		.loc 1 772 44 is_stmt 0 view .LVU664
 2327 01f4 09EB0A03 		add	r3, r9, r10
 772:Middlewares/Third_Party/LwIP/src/apps/mqtt/mqtt.c ****         LWIP_DEBUGF(MQTT_DEBUG_WARN,( "mqtt_message_received: Received short packet (payload)\n"));
 2328              		.loc 1 772 10 view .LVU665
 2329 01f8 9D42     		cmp	r5, r3
 2330 01fa 46D3     		bcc	.L181
 776:Middlewares/Third_Party/LwIP/src/apps/mqtt/mqtt.c ****       /* Reply if QoS > 0 */
 2331              		.loc 1 776 7 is_stmt 1 view .LVU666
 776:Middlewares/Third_Party/LwIP/src/apps/mqtt/mqtt.c ****       /* Reply if QoS > 0 */
ARM GAS  /tmp/ccVfyJBo.s 			page 70


 2332              		.loc 1 776 13 is_stmt 0 view .LVU667
 2333 01fc 256E     		ldr	r5, [r4, #96]
 776:Middlewares/Third_Party/LwIP/src/apps/mqtt/mqtt.c ****       /* Reply if QoS > 0 */
 2334              		.loc 1 776 7 view .LVU668
 2335 01fe 3346     		mov	r3, r6
 2336 0200 5246     		mov	r2, r10
 2337 0202 07EB0901 		add	r1, r7, r9
 2338 0206 E06D     		ldr	r0, [r4, #92]
 2339 0208 A847     		blx	r5
 2340              	.LVL252:
 778:Middlewares/Third_Party/LwIP/src/apps/mqtt/mqtt.c ****         /* Send PUBACK for QoS 1 or PUBREC for QoS 2 */
 2341              		.loc 1 778 7 is_stmt 1 view .LVU669
 778:Middlewares/Third_Party/LwIP/src/apps/mqtt/mqtt.c ****         /* Send PUBACK for QoS 1 or PUBREC for QoS 2 */
 2342              		.loc 1 778 33 is_stmt 0 view .LVU670
 2343 020a B8F1000F 		cmp	r8, #0
 2344 020e 0CBF     		ite	eq
 2345 0210 0026     		moveq	r6, #0
 2346 0212 06F00106 		andne	r6, r6, #1
 778:Middlewares/Third_Party/LwIP/src/apps/mqtt/mqtt.c ****         /* Send PUBACK for QoS 1 or PUBREC for QoS 2 */
 2347              		.loc 1 778 10 view .LVU671
 2348 0216 DEB3     		cbz	r6, .L182
 2349              	.LBB7:
 780:Middlewares/Third_Party/LwIP/src/apps/mqtt/mqtt.c ****         LWIP_DEBUGF(MQTT_DEBUG_TRACE, ("mqtt_incomming_publish: Sending publish response: %s with p
 2350              		.loc 1 780 9 is_stmt 1 view .LVU672
 780:Middlewares/Third_Party/LwIP/src/apps/mqtt/mqtt.c ****         LWIP_DEBUGF(MQTT_DEBUG_TRACE, ("mqtt_incomming_publish: Sending publish response: %s with p
 2351              		.loc 1 780 14 is_stmt 0 view .LVU673
 2352 0218 B8F1010F 		cmp	r8, #1
 2353 021c 07D0     		beq	.L198
 2354 021e 0521     		movs	r1, #5
 2355              	.L162:
 2356              	.LVL253:
 782:Middlewares/Third_Party/LwIP/src/apps/mqtt/mqtt.c ****         pub_ack_rec_rel_response(client, resp_msg, client->inpub_pkt_id, 0);
 2357              		.loc 1 782 94 is_stmt 1 discriminator 4 view .LVU674
 783:Middlewares/Third_Party/LwIP/src/apps/mqtt/mqtt.c ****       }
 2358              		.loc 1 783 9 discriminator 4 view .LVU675
 2359 0220 0023     		movs	r3, #0
 2360 0222 2289     		ldrh	r2, [r4, #8]
 2361 0224 2046     		mov	r0, r4
 2362 0226 FFF7FEFF 		bl	pub_ack_rec_rel_response
 2363              	.LVL254:
 783:Middlewares/Third_Party/LwIP/src/apps/mqtt/mqtt.c ****       }
 2364              		.loc 1 783 9 is_stmt 0 discriminator 4 view .LVU676
 2365              	.LBE7:
 2366              	.LBE5:
 674:Middlewares/Third_Party/LwIP/src/apps/mqtt/mqtt.c **** 
 2367              		.loc 1 674 28 discriminator 4 view .LVU677
 2368 022a 0025     		movs	r5, #0
 2369 022c 61E7     		b	.L153
 2370              	.L198:
 2371              	.LBB9:
 2372              	.LBB8:
 780:Middlewares/Third_Party/LwIP/src/apps/mqtt/mqtt.c ****         LWIP_DEBUGF(MQTT_DEBUG_TRACE, ("mqtt_incomming_publish: Sending publish response: %s with p
 2373              		.loc 1 780 14 view .LVU678
 2374 022e 0421     		movs	r1, #4
 2375 0230 F6E7     		b	.L162
 2376              	.LVL255:
 2377              	.L194:
ARM GAS  /tmp/ccVfyJBo.s 			page 71


 780:Middlewares/Third_Party/LwIP/src/apps/mqtt/mqtt.c ****         LWIP_DEBUGF(MQTT_DEBUG_TRACE, ("mqtt_incomming_publish: Sending publish response: %s with p
 2378              		.loc 1 780 14 view .LVU679
 2379              	.LBE8:
 2380              	.LBE9:
 795:Middlewares/Third_Party/LwIP/src/apps/mqtt/mqtt.c ****       pub_ack_rec_rel_response(client, MQTT_MSG_TYPE_PUBREL, pkt_id, 1);
 2381              		.loc 1 795 113 is_stmt 1 view .LVU680
 796:Middlewares/Third_Party/LwIP/src/apps/mqtt/mqtt.c **** 
 2382              		.loc 1 796 7 view .LVU681
 2383 0232 0123     		movs	r3, #1
 2384 0234 0A46     		mov	r2, r1
 2385 0236 0621     		movs	r1, #6
 2386              	.LVL256:
 796:Middlewares/Third_Party/LwIP/src/apps/mqtt/mqtt.c **** 
 2387              		.loc 1 796 7 is_stmt 0 view .LVU682
 2388 0238 2046     		mov	r0, r4
 2389 023a FFF7FEFF 		bl	pub_ack_rec_rel_response
 2390              	.LVL257:
 674:Middlewares/Third_Party/LwIP/src/apps/mqtt/mqtt.c **** 
 2391              		.loc 1 674 28 view .LVU683
 2392 023e 0025     		movs	r5, #0
 2393 0240 57E7     		b	.L153
 2394              	.LVL258:
 2395              	.L195:
 799:Middlewares/Third_Party/LwIP/src/apps/mqtt/mqtt.c ****       pub_ack_rec_rel_response(client, MQTT_MSG_TYPE_PUBCOMP, pkt_id, 0);
 2396              		.loc 1 799 123 is_stmt 1 view .LVU684
 800:Middlewares/Third_Party/LwIP/src/apps/mqtt/mqtt.c **** 
 2397              		.loc 1 800 7 view .LVU685
 2398 0242 0023     		movs	r3, #0
 2399 0244 0A46     		mov	r2, r1
 2400 0246 0721     		movs	r1, #7
 2401              	.LVL259:
 800:Middlewares/Third_Party/LwIP/src/apps/mqtt/mqtt.c **** 
 2402              		.loc 1 800 7 is_stmt 0 view .LVU686
 2403 0248 2046     		mov	r0, r4
 2404 024a FFF7FEFF 		bl	pub_ack_rec_rel_response
 2405              	.LVL260:
 674:Middlewares/Third_Party/LwIP/src/apps/mqtt/mqtt.c **** 
 2406              		.loc 1 674 28 view .LVU687
 2407 024e 0025     		movs	r5, #0
 2408 0250 4FE7     		b	.L153
 2409              	.LVL261:
 2410              	.L196:
 2411              	.LBB10:
 808:Middlewares/Third_Party/LwIP/src/apps/mqtt/mqtt.c ****             LWIP_DEBUGF(MQTT_DEBUG_WARN, ("mqtt_message_received: To small SUBACK packet\n"));
 2412              		.loc 1 808 11 is_stmt 1 view .LVU688
 808:Middlewares/Third_Party/LwIP/src/apps/mqtt/mqtt.c ****             LWIP_DEBUGF(MQTT_DEBUG_WARN, ("mqtt_message_received: To small SUBACK packet\n"));
 2413              		.loc 1 808 14 is_stmt 0 view .LVU689
 2414 0252 022D     		cmp	r5, #2
 2415 0254 26D9     		bls	.L187
 812:Middlewares/Third_Party/LwIP/src/apps/mqtt/mqtt.c ****           }
 2416              		.loc 1 812 13 is_stmt 1 view .LVU690
 2417 0256 B978     		ldrb	r1, [r7, #2]	@ zero_extendqisi2
 2418 0258 FFF7FEFF 		bl	mqtt_incomming_suback
 2419              	.LVL262:
 812:Middlewares/Third_Party/LwIP/src/apps/mqtt/mqtt.c ****           }
 2420              		.loc 1 812 13 is_stmt 0 view .LVU691
 2421 025c 26E7     		b	.L168
ARM GAS  /tmp/ccVfyJBo.s 			page 72


 2422              	.LVL263:
 2423              	.L170:
 812:Middlewares/Third_Party/LwIP/src/apps/mqtt/mqtt.c ****           }
 2424              		.loc 1 812 13 view .LVU692
 2425              	.LBE10:
 828:Middlewares/Third_Party/LwIP/src/apps/mqtt/mqtt.c **** }
 2426              		.loc 1 828 10 view .LVU693
 2427 025e 4FF48075 		mov	r5, #256
 2428 0262 46E7     		b	.L153
 2429              	.L171:
 674:Middlewares/Third_Party/LwIP/src/apps/mqtt/mqtt.c **** 
 2430              		.loc 1 674 28 view .LVU694
 2431 0264 0025     		movs	r5, #0
 2432 0266 44E7     		b	.L153
 2433              	.LVL264:
 2434              	.L174:
 828:Middlewares/Third_Party/LwIP/src/apps/mqtt/mqtt.c **** }
 2435              		.loc 1 828 10 view .LVU695
 2436 0268 4FF48075 		mov	r5, #256
 2437              	.LVL265:
 828:Middlewares/Third_Party/LwIP/src/apps/mqtt/mqtt.c **** }
 2438              		.loc 1 828 10 view .LVU696
 2439 026c 41E7     		b	.L153
 2440              	.LVL266:
 2441              	.L175:
 828:Middlewares/Third_Party/LwIP/src/apps/mqtt/mqtt.c **** }
 2442              		.loc 1 828 10 view .LVU697
 2443 026e 4FF48075 		mov	r5, #256
 2444              	.LVL267:
 828:Middlewares/Third_Party/LwIP/src/apps/mqtt/mqtt.c **** }
 2445              		.loc 1 828 10 view .LVU698
 2446 0272 3EE7     		b	.L153
 2447              	.LVL268:
 2448              	.L176:
 828:Middlewares/Third_Party/LwIP/src/apps/mqtt/mqtt.c **** }
 2449              		.loc 1 828 10 view .LVU699
 2450 0274 4FF48075 		mov	r5, #256
 2451              	.LVL269:
 828:Middlewares/Third_Party/LwIP/src/apps/mqtt/mqtt.c **** }
 2452              		.loc 1 828 10 view .LVU700
 2453 0278 3BE7     		b	.L153
 2454              	.LVL270:
 2455              	.L178:
 828:Middlewares/Third_Party/LwIP/src/apps/mqtt/mqtt.c **** }
 2456              		.loc 1 828 10 view .LVU701
 2457 027a 4FF48075 		mov	r5, #256
 2458              	.LVL271:
 828:Middlewares/Third_Party/LwIP/src/apps/mqtt/mqtt.c **** }
 2459              		.loc 1 828 10 view .LVU702
 2460 027e 38E7     		b	.L153
 2461              	.LVL272:
 2462              	.L179:
 828:Middlewares/Third_Party/LwIP/src/apps/mqtt/mqtt.c **** }
 2463              		.loc 1 828 10 view .LVU703
 2464 0280 4FF48075 		mov	r5, #256
 2465              	.LVL273:
 828:Middlewares/Third_Party/LwIP/src/apps/mqtt/mqtt.c **** }
ARM GAS  /tmp/ccVfyJBo.s 			page 73


 2466              		.loc 1 828 10 view .LVU704
 2467 0284 35E7     		b	.L153
 2468              	.LVL274:
 2469              	.L180:
 674:Middlewares/Third_Party/LwIP/src/apps/mqtt/mqtt.c **** 
 2470              		.loc 1 674 28 view .LVU705
 2471 0286 0025     		movs	r5, #0
 2472 0288 33E7     		b	.L153
 2473              	.L181:
 828:Middlewares/Third_Party/LwIP/src/apps/mqtt/mqtt.c **** }
 2474              		.loc 1 828 10 view .LVU706
 2475 028a 4FF48075 		mov	r5, #256
 2476 028e 30E7     		b	.L153
 2477              	.L182:
 674:Middlewares/Third_Party/LwIP/src/apps/mqtt/mqtt.c **** 
 2478              		.loc 1 674 28 view .LVU707
 2479 0290 0025     		movs	r5, #0
 2480 0292 2EE7     		b	.L153
 2481              	.LVL275:
 2482              	.L184:
 828:Middlewares/Third_Party/LwIP/src/apps/mqtt/mqtt.c **** }
 2483              		.loc 1 828 10 view .LVU708
 2484 0294 4FF48075 		mov	r5, #256
 2485 0298 2BE7     		b	.L153
 2486              	.L185:
 2487 029a 4FF48075 		mov	r5, #256
 2488 029e 28E7     		b	.L153
 2489              	.LVL276:
 2490              	.L186:
 674:Middlewares/Third_Party/LwIP/src/apps/mqtt/mqtt.c **** 
 2491              		.loc 1 674 28 view .LVU709
 2492 02a0 0025     		movs	r5, #0
 2493 02a2 26E7     		b	.L153
 2494              	.L187:
 828:Middlewares/Third_Party/LwIP/src/apps/mqtt/mqtt.c **** }
 2495              		.loc 1 828 10 view .LVU710
 2496 02a4 4FF48075 		mov	r5, #256
 2497 02a8 23E7     		b	.L153
 2498              	.L200:
 2499 02aa 00BF     		.align	2
 2500              	.L199:
 2501 02ac 00000000 		.word	.LC0
 2502 02b0 00000000 		.word	.LC12
 2503 02b4 58000000 		.word	.LC2
 2504 02b8 30000000 		.word	.LC13
 2505 02bc 54000000 		.word	.LC14
 2506              		.cfi_endproc
 2507              	.LFE190:
 2509              		.section	.rodata.mqtt_close.str1.4,"aMS",%progbits,1
 2510              		.align	2
 2511              	.LC15:
 2512 0000 6D717474 		.ascii	"mqtt_close: client != NULL\000"
 2512      5F636C6F 
 2512      73653A20 
 2512      636C6965 
 2512      6E742021 
 2513              		.section	.text.mqtt_close,"ax",%progbits
ARM GAS  /tmp/ccVfyJBo.s 			page 74


 2514              		.align	1
 2515              		.syntax unified
 2516              		.thumb
 2517              		.thumb_func
 2519              	mqtt_close:
 2520              	.LVL277:
 2521              	.LFB186:
 538:Middlewares/Third_Party/LwIP/src/apps/mqtt/mqtt.c ****   LWIP_ASSERT("mqtt_close: client != NULL", client != NULL);
 2522              		.loc 1 538 1 is_stmt 1 view -0
 2523              		.cfi_startproc
 2524              		@ args = 0, pretend = 0, frame = 0
 2525              		@ frame_needed = 0, uses_anonymous_args = 0
 538:Middlewares/Third_Party/LwIP/src/apps/mqtt/mqtt.c ****   LWIP_ASSERT("mqtt_close: client != NULL", client != NULL);
 2526              		.loc 1 538 1 is_stmt 0 view .LVU712
 2527 0000 38B5     		push	{r3, r4, r5, lr}
 2528              	.LCFI25:
 2529              		.cfi_def_cfa_offset 16
 2530              		.cfi_offset 3, -16
 2531              		.cfi_offset 4, -12
 2532              		.cfi_offset 5, -8
 2533              		.cfi_offset 14, -4
 2534 0002 0D46     		mov	r5, r1
 539:Middlewares/Third_Party/LwIP/src/apps/mqtt/mqtt.c **** 
 2535              		.loc 1 539 3 is_stmt 1 view .LVU713
 539:Middlewares/Third_Party/LwIP/src/apps/mqtt/mqtt.c **** 
 2536              		.loc 1 539 3 view .LVU714
 2537 0004 0446     		mov	r4, r0
 2538 0006 28B3     		cbz	r0, .L207
 2539              	.LVL278:
 2540              	.L202:
 539:Middlewares/Third_Party/LwIP/src/apps/mqtt/mqtt.c **** 
 2541              		.loc 1 539 3 discriminator 3 view .LVU715
 539:Middlewares/Third_Party/LwIP/src/apps/mqtt/mqtt.c **** 
 2542              		.loc 1 539 3 discriminator 3 view .LVU716
 542:Middlewares/Third_Party/LwIP/src/apps/mqtt/mqtt.c ****     err_t res;
 2543              		.loc 1 542 3 discriminator 3 view .LVU717
 542:Middlewares/Third_Party/LwIP/src/apps/mqtt/mqtt.c ****     err_t res;
 2544              		.loc 1 542 13 is_stmt 0 discriminator 3 view .LVU718
 2545 0008 E068     		ldr	r0, [r4, #12]
 542:Middlewares/Third_Party/LwIP/src/apps/mqtt/mqtt.c ****     err_t res;
 2546              		.loc 1 542 6 discriminator 3 view .LVU719
 2547 000a 80B1     		cbz	r0, .L203
 2548              	.LBB11:
 543:Middlewares/Third_Party/LwIP/src/apps/mqtt/mqtt.c ****     altcp_recv(client->conn, NULL);
 2549              		.loc 1 543 5 is_stmt 1 view .LVU720
 544:Middlewares/Third_Party/LwIP/src/apps/mqtt/mqtt.c ****     altcp_err(client->conn,  NULL);
 2550              		.loc 1 544 5 view .LVU721
 2551 000c 0021     		movs	r1, #0
 2552 000e FFF7FEFF 		bl	tcp_recv
 2553              	.LVL279:
 545:Middlewares/Third_Party/LwIP/src/apps/mqtt/mqtt.c ****     altcp_sent(client->conn, NULL);
 2554              		.loc 1 545 5 view .LVU722
 2555 0012 0021     		movs	r1, #0
 2556 0014 E068     		ldr	r0, [r4, #12]
 2557 0016 FFF7FEFF 		bl	tcp_err
 2558              	.LVL280:
 546:Middlewares/Third_Party/LwIP/src/apps/mqtt/mqtt.c ****     res = altcp_close(client->conn);
ARM GAS  /tmp/ccVfyJBo.s 			page 75


 2559              		.loc 1 546 5 view .LVU723
 2560 001a 0021     		movs	r1, #0
 2561 001c E068     		ldr	r0, [r4, #12]
 2562 001e FFF7FEFF 		bl	tcp_sent
 2563              	.LVL281:
 547:Middlewares/Third_Party/LwIP/src/apps/mqtt/mqtt.c ****     if (res != ERR_OK) {
 2564              		.loc 1 547 5 view .LVU724
 547:Middlewares/Third_Party/LwIP/src/apps/mqtt/mqtt.c ****     if (res != ERR_OK) {
 2565              		.loc 1 547 11 is_stmt 0 view .LVU725
 2566 0022 E068     		ldr	r0, [r4, #12]
 2567 0024 FFF7FEFF 		bl	tcp_close
 2568              	.LVL282:
 548:Middlewares/Third_Party/LwIP/src/apps/mqtt/mqtt.c ****       altcp_abort(client->conn);
 2569              		.loc 1 548 5 is_stmt 1 view .LVU726
 548:Middlewares/Third_Party/LwIP/src/apps/mqtt/mqtt.c ****       altcp_abort(client->conn);
 2570              		.loc 1 548 8 is_stmt 0 view .LVU727
 2571 0028 E0B9     		cbnz	r0, .L208
 2572              	.LVL283:
 2573              	.L204:
 550:Middlewares/Third_Party/LwIP/src/apps/mqtt/mqtt.c ****     }
 2574              		.loc 1 550 86 is_stmt 1 view .LVU728
 552:Middlewares/Third_Party/LwIP/src/apps/mqtt/mqtt.c ****   }
 2575              		.loc 1 552 5 view .LVU729
 552:Middlewares/Third_Party/LwIP/src/apps/mqtt/mqtt.c ****   }
 2576              		.loc 1 552 18 is_stmt 0 view .LVU730
 2577 002a 0023     		movs	r3, #0
 2578 002c E360     		str	r3, [r4, #12]
 2579              	.L203:
 552:Middlewares/Third_Party/LwIP/src/apps/mqtt/mqtt.c ****   }
 2580              		.loc 1 552 18 view .LVU731
 2581              	.LBE11:
 556:Middlewares/Third_Party/LwIP/src/apps/mqtt/mqtt.c ****   /* Stop cyclic timer */
 2582              		.loc 1 556 3 is_stmt 1 view .LVU732
 2583 002e 04F11800 		add	r0, r4, #24
 2584 0032 FFF7FEFF 		bl	mqtt_clear_requests
 2585              	.LVL284:
 558:Middlewares/Third_Party/LwIP/src/apps/mqtt/mqtt.c **** 
 2586              		.loc 1 558 3 view .LVU733
 2587 0036 2146     		mov	r1, r4
 2588 0038 0C48     		ldr	r0, .L209
 2589 003a FFF7FEFF 		bl	sys_untimeout
 2590              	.LVL285:
 561:Middlewares/Third_Party/LwIP/src/apps/mqtt/mqtt.c **** 
 2591              		.loc 1 561 3 view .LVU734
 561:Middlewares/Third_Party/LwIP/src/apps/mqtt/mqtt.c **** 
 2592              		.loc 1 561 13 is_stmt 0 view .LVU735
 2593 003e A37A     		ldrb	r3, [r4, #10]	@ zero_extendqisi2
 561:Middlewares/Third_Party/LwIP/src/apps/mqtt/mqtt.c **** 
 2594              		.loc 1 561 6 view .LVU736
 2595 0040 3BB1     		cbz	r3, .L201
 563:Middlewares/Third_Party/LwIP/src/apps/mqtt/mqtt.c ****     if (client->connect_cb != NULL) {
 2596              		.loc 1 563 5 is_stmt 1 view .LVU737
 563:Middlewares/Third_Party/LwIP/src/apps/mqtt/mqtt.c ****     if (client->connect_cb != NULL) {
 2597              		.loc 1 563 24 is_stmt 0 view .LVU738
 2598 0042 0023     		movs	r3, #0
 2599 0044 A372     		strb	r3, [r4, #10]
 564:Middlewares/Third_Party/LwIP/src/apps/mqtt/mqtt.c ****       client->connect_cb(client, client->connect_arg, reason);
ARM GAS  /tmp/ccVfyJBo.s 			page 76


 2600              		.loc 1 564 5 is_stmt 1 view .LVU739
 564:Middlewares/Third_Party/LwIP/src/apps/mqtt/mqtt.c ****       client->connect_cb(client, client->connect_arg, reason);
 2601              		.loc 1 564 15 is_stmt 0 view .LVU740
 2602 0046 6369     		ldr	r3, [r4, #20]
 564:Middlewares/Third_Party/LwIP/src/apps/mqtt/mqtt.c ****       client->connect_cb(client, client->connect_arg, reason);
 2603              		.loc 1 564 8 view .LVU741
 2604 0048 1BB1     		cbz	r3, .L201
 565:Middlewares/Third_Party/LwIP/src/apps/mqtt/mqtt.c ****     }
 2605              		.loc 1 565 7 is_stmt 1 view .LVU742
 2606 004a 2A46     		mov	r2, r5
 2607 004c 2169     		ldr	r1, [r4, #16]
 2608 004e 2046     		mov	r0, r4
 2609 0050 9847     		blx	r3
 2610              	.LVL286:
 2611              	.L201:
 568:Middlewares/Third_Party/LwIP/src/apps/mqtt/mqtt.c **** 
 2612              		.loc 1 568 1 is_stmt 0 view .LVU743
 2613 0052 38BD     		pop	{r3, r4, r5, pc}
 2614              	.LVL287:
 2615              	.L207:
 539:Middlewares/Third_Party/LwIP/src/apps/mqtt/mqtt.c **** 
 2616              		.loc 1 539 3 is_stmt 1 discriminator 1 view .LVU744
 539:Middlewares/Third_Party/LwIP/src/apps/mqtt/mqtt.c **** 
 2617              		.loc 1 539 3 discriminator 1 view .LVU745
 2618 0054 064B     		ldr	r3, .L209+4
 2619 0056 40F21B22 		movw	r2, #539
 2620 005a 0649     		ldr	r1, .L209+8
 2621              	.LVL288:
 539:Middlewares/Third_Party/LwIP/src/apps/mqtt/mqtt.c **** 
 2622              		.loc 1 539 3 is_stmt 0 discriminator 1 view .LVU746
 2623 005c 0648     		ldr	r0, .L209+12
 2624              	.LVL289:
 539:Middlewares/Third_Party/LwIP/src/apps/mqtt/mqtt.c **** 
 2625              		.loc 1 539 3 discriminator 1 view .LVU747
 2626 005e FFF7FEFF 		bl	printf
 2627              	.LVL290:
 2628 0062 D1E7     		b	.L202
 2629              	.LVL291:
 2630              	.L208:
 2631              	.LBB12:
 549:Middlewares/Third_Party/LwIP/src/apps/mqtt/mqtt.c ****       LWIP_DEBUGF(MQTT_DEBUG_TRACE, ("mqtt_close: Close err=%s\n", lwip_strerr(res)));
 2632              		.loc 1 549 7 is_stmt 1 view .LVU748
 2633 0064 E068     		ldr	r0, [r4, #12]
 2634              	.LVL292:
 549:Middlewares/Third_Party/LwIP/src/apps/mqtt/mqtt.c ****       LWIP_DEBUGF(MQTT_DEBUG_TRACE, ("mqtt_close: Close err=%s\n", lwip_strerr(res)));
 2635              		.loc 1 549 7 is_stmt 0 view .LVU749
 2636 0066 FFF7FEFF 		bl	tcp_abort
 2637              	.LVL293:
 2638 006a DEE7     		b	.L204
 2639              	.L210:
 2640              		.align	2
 2641              	.L209:
 2642 006c 00000000 		.word	mqtt_cyclic_timer
 2643 0070 00000000 		.word	.LC0
 2644 0074 00000000 		.word	.LC15
 2645 0078 58000000 		.word	.LC2
 2646              	.LBE12:
ARM GAS  /tmp/ccVfyJBo.s 			page 77


 2647              		.cfi_endproc
 2648              	.LFE186:
 2650              		.section	.rodata.mqtt_tcp_err_cb.str1.4,"aMS",%progbits,1
 2651              		.align	2
 2652              	.LC16:
 2653 0000 6D717474 		.ascii	"mqtt_tcp_err_cb: client != NULL\000"
 2653      5F746370 
 2653      5F657272 
 2653      5F63623A 
 2653      20636C69 
 2654              		.section	.text.mqtt_tcp_err_cb,"ax",%progbits
 2655              		.align	1
 2656              		.syntax unified
 2657              		.thumb
 2658              		.thumb_func
 2660              	mqtt_tcp_err_cb:
 2661              	.LVL294:
 2662              	.LFB194:
1010:Middlewares/Third_Party/LwIP/src/apps/mqtt/mqtt.c ****   mqtt_client_t *client = (mqtt_client_t *)arg;
 2663              		.loc 1 1010 1 is_stmt 1 view -0
 2664              		.cfi_startproc
 2665              		@ args = 0, pretend = 0, frame = 0
 2666              		@ frame_needed = 0, uses_anonymous_args = 0
1010:Middlewares/Third_Party/LwIP/src/apps/mqtt/mqtt.c ****   mqtt_client_t *client = (mqtt_client_t *)arg;
 2667              		.loc 1 1010 1 is_stmt 0 view .LVU751
 2668 0000 10B5     		push	{r4, lr}
 2669              	.LCFI26:
 2670              		.cfi_def_cfa_offset 8
 2671              		.cfi_offset 4, -8
 2672              		.cfi_offset 14, -4
1011:Middlewares/Third_Party/LwIP/src/apps/mqtt/mqtt.c ****   LWIP_UNUSED_ARG(err); /* only used for debug output */
 2673              		.loc 1 1011 3 is_stmt 1 view .LVU752
 2674              	.LVL295:
1012:Middlewares/Third_Party/LwIP/src/apps/mqtt/mqtt.c ****   LWIP_DEBUGF(MQTT_DEBUG_TRACE, ("mqtt_tcp_err_cb: TCP error callback: error %d, arg: %p\n", err, a
 2675              		.loc 1 1012 3 view .LVU753
1013:Middlewares/Third_Party/LwIP/src/apps/mqtt/mqtt.c ****   LWIP_ASSERT("mqtt_tcp_err_cb: client != NULL", client != NULL);
 2676              		.loc 1 1013 104 view .LVU754
1014:Middlewares/Third_Party/LwIP/src/apps/mqtt/mqtt.c ****   /* Set conn to null before calling close as pcb is already deallocated*/
 2677              		.loc 1 1014 3 view .LVU755
1014:Middlewares/Third_Party/LwIP/src/apps/mqtt/mqtt.c ****   /* Set conn to null before calling close as pcb is already deallocated*/
 2678              		.loc 1 1014 3 view .LVU756
 2679 0002 0446     		mov	r4, r0
 2680 0004 38B1     		cbz	r0, .L214
 2681              	.LVL296:
 2682              	.L212:
1014:Middlewares/Third_Party/LwIP/src/apps/mqtt/mqtt.c ****   /* Set conn to null before calling close as pcb is already deallocated*/
 2683              		.loc 1 1014 3 discriminator 3 view .LVU757
1014:Middlewares/Third_Party/LwIP/src/apps/mqtt/mqtt.c ****   /* Set conn to null before calling close as pcb is already deallocated*/
 2684              		.loc 1 1014 3 discriminator 3 view .LVU758
1016:Middlewares/Third_Party/LwIP/src/apps/mqtt/mqtt.c ****   mqtt_close(client, MQTT_CONNECT_DISCONNECTED);
 2685              		.loc 1 1016 3 discriminator 3 view .LVU759
1016:Middlewares/Third_Party/LwIP/src/apps/mqtt/mqtt.c ****   mqtt_close(client, MQTT_CONNECT_DISCONNECTED);
 2686              		.loc 1 1016 16 is_stmt 0 discriminator 3 view .LVU760
 2687 0006 0023     		movs	r3, #0
 2688 0008 E360     		str	r3, [r4, #12]
1017:Middlewares/Third_Party/LwIP/src/apps/mqtt/mqtt.c **** }
 2689              		.loc 1 1017 3 is_stmt 1 discriminator 3 view .LVU761
ARM GAS  /tmp/ccVfyJBo.s 			page 78


 2690 000a 4FF48071 		mov	r1, #256
 2691 000e 2046     		mov	r0, r4
 2692 0010 FFF7FEFF 		bl	mqtt_close
 2693              	.LVL297:
1018:Middlewares/Third_Party/LwIP/src/apps/mqtt/mqtt.c **** 
 2694              		.loc 1 1018 1 is_stmt 0 discriminator 3 view .LVU762
 2695 0014 10BD     		pop	{r4, pc}
 2696              	.LVL298:
 2697              	.L214:
1014:Middlewares/Third_Party/LwIP/src/apps/mqtt/mqtt.c ****   /* Set conn to null before calling close as pcb is already deallocated*/
 2698              		.loc 1 1014 3 is_stmt 1 discriminator 1 view .LVU763
1014:Middlewares/Third_Party/LwIP/src/apps/mqtt/mqtt.c ****   /* Set conn to null before calling close as pcb is already deallocated*/
 2699              		.loc 1 1014 3 discriminator 1 view .LVU764
 2700 0016 044B     		ldr	r3, .L215
 2701 0018 40F2F632 		movw	r2, #1014
 2702 001c 0349     		ldr	r1, .L215+4
 2703              	.LVL299:
1014:Middlewares/Third_Party/LwIP/src/apps/mqtt/mqtt.c ****   /* Set conn to null before calling close as pcb is already deallocated*/
 2704              		.loc 1 1014 3 is_stmt 0 discriminator 1 view .LVU765
 2705 001e 0448     		ldr	r0, .L215+8
 2706              	.LVL300:
1014:Middlewares/Third_Party/LwIP/src/apps/mqtt/mqtt.c ****   /* Set conn to null before calling close as pcb is already deallocated*/
 2707              		.loc 1 1014 3 discriminator 1 view .LVU766
 2708 0020 FFF7FEFF 		bl	printf
 2709              	.LVL301:
 2710 0024 EFE7     		b	.L212
 2711              	.L216:
 2712 0026 00BF     		.align	2
 2713              	.L215:
 2714 0028 00000000 		.word	.LC0
 2715 002c 00000000 		.word	.LC16
 2716 0030 58000000 		.word	.LC2
 2717              		.cfi_endproc
 2718              	.LFE194:
 2720              		.section	.rodata.mqtt_cyclic_timer.str1.4,"aMS",%progbits,1
 2721              		.align	2
 2722              	.LC17:
 2723 0000 6D717474 		.ascii	"mqtt_cyclic_timer: client != NULL\000"
 2723      5F637963 
 2723      6C69635F 
 2723      74696D65 
 2723      723A2063 
 2724              		.section	.text.mqtt_cyclic_timer,"ax",%progbits
 2725              		.align	1
 2726              		.syntax unified
 2727              		.thumb
 2728              		.thumb_func
 2730              	mqtt_cyclic_timer:
 2731              	.LVL302:
 2732              	.LFB187:
 577:Middlewares/Third_Party/LwIP/src/apps/mqtt/mqtt.c ****   u8_t restart_timer = 1;
 2733              		.loc 1 577 1 is_stmt 1 view -0
 2734              		.cfi_startproc
 2735              		@ args = 0, pretend = 0, frame = 0
 2736              		@ frame_needed = 0, uses_anonymous_args = 0
 577:Middlewares/Third_Party/LwIP/src/apps/mqtt/mqtt.c ****   u8_t restart_timer = 1;
 2737              		.loc 1 577 1 is_stmt 0 view .LVU768
ARM GAS  /tmp/ccVfyJBo.s 			page 79


 2738 0000 F0B5     		push	{r4, r5, r6, r7, lr}
 2739              	.LCFI27:
 2740              		.cfi_def_cfa_offset 20
 2741              		.cfi_offset 4, -20
 2742              		.cfi_offset 5, -16
 2743              		.cfi_offset 6, -12
 2744              		.cfi_offset 7, -8
 2745              		.cfi_offset 14, -4
 2746 0002 83B0     		sub	sp, sp, #12
 2747              	.LCFI28:
 2748              		.cfi_def_cfa_offset 32
 578:Middlewares/Third_Party/LwIP/src/apps/mqtt/mqtt.c ****   mqtt_client_t *client = (mqtt_client_t *)arg;
 2749              		.loc 1 578 3 is_stmt 1 view .LVU769
 2750              	.LVL303:
 579:Middlewares/Third_Party/LwIP/src/apps/mqtt/mqtt.c ****   LWIP_ASSERT("mqtt_cyclic_timer: client != NULL", client != NULL);
 2751              		.loc 1 579 3 view .LVU770
 580:Middlewares/Third_Party/LwIP/src/apps/mqtt/mqtt.c **** 
 2752              		.loc 1 580 3 view .LVU771
 580:Middlewares/Third_Party/LwIP/src/apps/mqtt/mqtt.c **** 
 2753              		.loc 1 580 3 view .LVU772
 2754 0004 0446     		mov	r4, r0
 2755 0006 30B1     		cbz	r0, .L227
 2756              	.LVL304:
 2757              	.L218:
 580:Middlewares/Third_Party/LwIP/src/apps/mqtt/mqtt.c **** 
 2758              		.loc 1 580 3 discriminator 3 view .LVU773
 580:Middlewares/Third_Party/LwIP/src/apps/mqtt/mqtt.c **** 
 2759              		.loc 1 580 3 discriminator 3 view .LVU774
 582:Middlewares/Third_Party/LwIP/src/apps/mqtt/mqtt.c ****     client->cyclic_tick++;
 2760              		.loc 1 582 3 discriminator 3 view .LVU775
 582:Middlewares/Third_Party/LwIP/src/apps/mqtt/mqtt.c ****     client->cyclic_tick++;
 2761              		.loc 1 582 13 is_stmt 0 discriminator 3 view .LVU776
 2762 0008 A37A     		ldrb	r3, [r4, #10]	@ zero_extendqisi2
 582:Middlewares/Third_Party/LwIP/src/apps/mqtt/mqtt.c ****     client->cyclic_tick++;
 2763              		.loc 1 582 6 discriminator 3 view .LVU777
 2764 000a 022B     		cmp	r3, #2
 2765 000c 0BD0     		beq	.L228
 590:Middlewares/Third_Party/LwIP/src/apps/mqtt/mqtt.c ****     /* Handle timeout for pending requests */
 2766              		.loc 1 590 10 is_stmt 1 view .LVU778
 590:Middlewares/Third_Party/LwIP/src/apps/mqtt/mqtt.c ****     /* Handle timeout for pending requests */
 2767              		.loc 1 590 13 is_stmt 0 view .LVU779
 2768 000e 032B     		cmp	r3, #3
 2769 0010 1ED0     		beq	.L229
 2770              	.LVL305:
 2771              	.L217:
 623:Middlewares/Third_Party/LwIP/src/apps/mqtt/mqtt.c **** 
 2772              		.loc 1 623 1 view .LVU780
 2773 0012 03B0     		add	sp, sp, #12
 2774              	.LCFI29:
 2775              		.cfi_remember_state
 2776              		.cfi_def_cfa_offset 20
 2777              		@ sp needed
 2778 0014 F0BD     		pop	{r4, r5, r6, r7, pc}
 2779              	.LVL306:
 2780              	.L227:
 2781              	.LCFI30:
 2782              		.cfi_restore_state
ARM GAS  /tmp/ccVfyJBo.s 			page 80


 580:Middlewares/Third_Party/LwIP/src/apps/mqtt/mqtt.c **** 
 2783              		.loc 1 580 3 is_stmt 1 discriminator 1 view .LVU781
 580:Middlewares/Third_Party/LwIP/src/apps/mqtt/mqtt.c **** 
 2784              		.loc 1 580 3 discriminator 1 view .LVU782
 2785 0016 2A4B     		ldr	r3, .L233
 2786 0018 4FF41172 		mov	r2, #580
 2787 001c 2949     		ldr	r1, .L233+4
 2788 001e 2A48     		ldr	r0, .L233+8
 2789              	.LVL307:
 580:Middlewares/Third_Party/LwIP/src/apps/mqtt/mqtt.c **** 
 2790              		.loc 1 580 3 is_stmt 0 discriminator 1 view .LVU783
 2791 0020 FFF7FEFF 		bl	printf
 2792              	.LVL308:
 2793 0024 F0E7     		b	.L218
 2794              	.L228:
 583:Middlewares/Third_Party/LwIP/src/apps/mqtt/mqtt.c ****     if ((client->cyclic_tick * MQTT_CYCLIC_TIMER_INTERVAL) >= MQTT_CONNECT_TIMOUT) {
 2795              		.loc 1 583 5 is_stmt 1 view .LVU784
 583:Middlewares/Third_Party/LwIP/src/apps/mqtt/mqtt.c ****     if ((client->cyclic_tick * MQTT_CYCLIC_TIMER_INTERVAL) >= MQTT_CONNECT_TIMOUT) {
 2796              		.loc 1 583 11 is_stmt 0 view .LVU785
 2797 0026 2388     		ldrh	r3, [r4]
 583:Middlewares/Third_Party/LwIP/src/apps/mqtt/mqtt.c ****     if ((client->cyclic_tick * MQTT_CYCLIC_TIMER_INTERVAL) >= MQTT_CONNECT_TIMOUT) {
 2798              		.loc 1 583 24 view .LVU786
 2799 0028 0133     		adds	r3, r3, #1
 2800 002a 9BB2     		uxth	r3, r3
 2801 002c 2380     		strh	r3, [r4]	@ movhi
 584:Middlewares/Third_Party/LwIP/src/apps/mqtt/mqtt.c ****       LWIP_DEBUGF(MQTT_DEBUG_TRACE, ("mqtt_cyclic_timer: CONNECT attempt to server timed out\n"));
 2802              		.loc 1 584 5 is_stmt 1 view .LVU787
 584:Middlewares/Third_Party/LwIP/src/apps/mqtt/mqtt.c ****       LWIP_DEBUGF(MQTT_DEBUG_TRACE, ("mqtt_cyclic_timer: CONNECT attempt to server timed out\n"));
 2803              		.loc 1 584 30 is_stmt 0 view .LVU788
 2804 002e 03EB8303 		add	r3, r3, r3, lsl #2
 584:Middlewares/Third_Party/LwIP/src/apps/mqtt/mqtt.c ****       LWIP_DEBUGF(MQTT_DEBUG_TRACE, ("mqtt_cyclic_timer: CONNECT attempt to server timed out\n"));
 2805              		.loc 1 584 8 view .LVU789
 2806 0032 632B     		cmp	r3, #99
 2807 0034 06DC     		bgt	.L230
 2808              	.LVL309:
 2809              	.L220:
 621:Middlewares/Third_Party/LwIP/src/apps/mqtt/mqtt.c ****   }
 2810              		.loc 1 621 5 is_stmt 1 view .LVU790
 2811 0036 2246     		mov	r2, r4
 2812 0038 2449     		ldr	r1, .L233+12
 2813 003a 41F28830 		movw	r0, #5000
 2814 003e FFF7FEFF 		bl	sys_timeout
 2815              	.LVL310:
 623:Middlewares/Third_Party/LwIP/src/apps/mqtt/mqtt.c **** 
 2816              		.loc 1 623 1 is_stmt 0 view .LVU791
 2817 0042 E6E7     		b	.L217
 2818              	.LVL311:
 2819              	.L230:
 585:Middlewares/Third_Party/LwIP/src/apps/mqtt/mqtt.c ****       /* Disconnect TCP */
 2820              		.loc 1 585 98 is_stmt 1 view .LVU792
 587:Middlewares/Third_Party/LwIP/src/apps/mqtt/mqtt.c ****       restart_timer = 0;
 2821              		.loc 1 587 7 view .LVU793
 2822 0044 40F20111 		movw	r1, #257
 2823 0048 2046     		mov	r0, r4
 2824 004a FFF7FEFF 		bl	mqtt_close
 2825              	.LVL312:
 588:Middlewares/Third_Party/LwIP/src/apps/mqtt/mqtt.c ****     }
ARM GAS  /tmp/ccVfyJBo.s 			page 81


 2826              		.loc 1 588 7 view .LVU794
 620:Middlewares/Third_Party/LwIP/src/apps/mqtt/mqtt.c ****     sys_timeout(MQTT_CYCLIC_TIMER_INTERVAL * 1000, mqtt_cyclic_timer, arg);
 2827              		.loc 1 620 3 view .LVU795
 2828 004e E0E7     		b	.L217
 2829              	.LVL313:
 2830              	.L229:
 592:Middlewares/Third_Party/LwIP/src/apps/mqtt/mqtt.c **** 
 2831              		.loc 1 592 5 view .LVU796
 2832 0050 0521     		movs	r1, #5
 2833 0052 04F11800 		add	r0, r4, #24
 2834 0056 FFF7FEFF 		bl	mqtt_request_time_elapsed
 2835              	.LVL314:
 595:Middlewares/Third_Party/LwIP/src/apps/mqtt/mqtt.c **** 
 2836              		.loc 1 595 5 view .LVU797
 595:Middlewares/Third_Party/LwIP/src/apps/mqtt/mqtt.c **** 
 2837              		.loc 1 595 15 is_stmt 0 view .LVU798
 2838 005a 6288     		ldrh	r2, [r4, #2]
 595:Middlewares/Third_Party/LwIP/src/apps/mqtt/mqtt.c **** 
 2839              		.loc 1 595 8 view .LVU799
 2840 005c 002A     		cmp	r2, #0
 2841 005e EAD0     		beq	.L220
 597:Middlewares/Third_Party/LwIP/src/apps/mqtt/mqtt.c ****       /* If reception from server has been idle for 1.5*keep_alive time, server is considered unres
 2842              		.loc 1 597 7 is_stmt 1 view .LVU800
 597:Middlewares/Third_Party/LwIP/src/apps/mqtt/mqtt.c ****       /* If reception from server has been idle for 1.5*keep_alive time, server is considered unres
 2843              		.loc 1 597 13 is_stmt 0 view .LVU801
 2844 0060 A388     		ldrh	r3, [r4, #4]
 597:Middlewares/Third_Party/LwIP/src/apps/mqtt/mqtt.c ****       /* If reception from server has been idle for 1.5*keep_alive time, server is considered unres
 2845              		.loc 1 597 30 view .LVU802
 2846 0062 0133     		adds	r3, r3, #1
 2847 0064 9BB2     		uxth	r3, r3
 2848 0066 A380     		strh	r3, [r4, #4]	@ movhi
 599:Middlewares/Third_Party/LwIP/src/apps/mqtt/mqtt.c ****         LWIP_DEBUGF(MQTT_DEBUG_WARN, ("mqtt_cyclic_timer: Server incoming keep-alive timeout\n"));
 2849              		.loc 1 599 7 is_stmt 1 view .LVU803
 599:Middlewares/Third_Party/LwIP/src/apps/mqtt/mqtt.c ****         LWIP_DEBUGF(MQTT_DEBUG_WARN, ("mqtt_cyclic_timer: Server incoming keep-alive timeout\n"));
 2850              		.loc 1 599 36 is_stmt 0 view .LVU804
 2851 0068 03EB8303 		add	r3, r3, r3, lsl #2
 599:Middlewares/Third_Party/LwIP/src/apps/mqtt/mqtt.c ****         LWIP_DEBUGF(MQTT_DEBUG_WARN, ("mqtt_cyclic_timer: Server incoming keep-alive timeout\n"));
 2852              		.loc 1 599 88 view .LVU805
 2853 006c 02EB5202 		add	r2, r2, r2, lsr #1
 599:Middlewares/Third_Party/LwIP/src/apps/mqtt/mqtt.c ****         LWIP_DEBUGF(MQTT_DEBUG_WARN, ("mqtt_cyclic_timer: Server incoming keep-alive timeout\n"));
 2854              		.loc 1 599 10 view .LVU806
 2855 0070 9342     		cmp	r3, r2
 2856 0072 0BDC     		bgt	.L231
 578:Middlewares/Third_Party/LwIP/src/apps/mqtt/mqtt.c ****   mqtt_client_t *client = (mqtt_client_t *)arg;
 2857              		.loc 1 578 8 view .LVU807
 2858 0074 0125     		movs	r5, #1
 2859              	.LVL315:
 2860              	.L222:
 606:Middlewares/Third_Party/LwIP/src/apps/mqtt/mqtt.c ****         LWIP_DEBUGF(MQTT_DEBUG_TRACE, ("mqtt_cyclic_timer: Sending keep-alive message to server\n")
 2861              		.loc 1 606 7 is_stmt 1 view .LVU808
 606:Middlewares/Third_Party/LwIP/src/apps/mqtt/mqtt.c ****         LWIP_DEBUGF(MQTT_DEBUG_TRACE, ("mqtt_cyclic_timer: Sending keep-alive message to server\n")
 2862              		.loc 1 606 18 is_stmt 0 view .LVU809
 2863 0076 2388     		ldrh	r3, [r4]
 606:Middlewares/Third_Party/LwIP/src/apps/mqtt/mqtt.c ****         LWIP_DEBUGF(MQTT_DEBUG_TRACE, ("mqtt_cyclic_timer: Sending keep-alive message to server\n")
 2864              		.loc 1 606 32 view .LVU810
 2865 0078 03EB8301 		add	r1, r3, r3, lsl #2
 606:Middlewares/Third_Party/LwIP/src/apps/mqtt/mqtt.c ****         LWIP_DEBUGF(MQTT_DEBUG_TRACE, ("mqtt_cyclic_timer: Sending keep-alive message to server\n")
ARM GAS  /tmp/ccVfyJBo.s 			page 82


 2866              		.loc 1 606 71 view .LVU811
 2867 007c 6288     		ldrh	r2, [r4, #2]
 606:Middlewares/Third_Party/LwIP/src/apps/mqtt/mqtt.c ****         LWIP_DEBUGF(MQTT_DEBUG_TRACE, ("mqtt_cyclic_timer: Sending keep-alive message to server\n")
 2868              		.loc 1 606 10 view .LVU812
 2869 007e 9142     		cmp	r1, r2
 2870 0080 0BDA     		bge	.L232
 613:Middlewares/Third_Party/LwIP/src/apps/mqtt/mqtt.c ****       }
 2871              		.loc 1 613 9 is_stmt 1 view .LVU813
 613:Middlewares/Third_Party/LwIP/src/apps/mqtt/mqtt.c ****       }
 2872              		.loc 1 613 28 is_stmt 0 view .LVU814
 2873 0082 0133     		adds	r3, r3, #1
 2874 0084 2380     		strh	r3, [r4]	@ movhi
 2875              	.L224:
 620:Middlewares/Third_Party/LwIP/src/apps/mqtt/mqtt.c ****     sys_timeout(MQTT_CYCLIC_TIMER_INTERVAL * 1000, mqtt_cyclic_timer, arg);
 2876              		.loc 1 620 3 is_stmt 1 view .LVU815
 620:Middlewares/Third_Party/LwIP/src/apps/mqtt/mqtt.c ****     sys_timeout(MQTT_CYCLIC_TIMER_INTERVAL * 1000, mqtt_cyclic_timer, arg);
 2877              		.loc 1 620 6 is_stmt 0 view .LVU816
 2878 0086 002D     		cmp	r5, #0
 2879 0088 C3D0     		beq	.L217
 2880 008a D4E7     		b	.L220
 2881              	.LVL316:
 2882              	.L231:
 600:Middlewares/Third_Party/LwIP/src/apps/mqtt/mqtt.c ****         mqtt_close(client, MQTT_CONNECT_TIMEOUT);
 2883              		.loc 1 600 98 is_stmt 1 view .LVU817
 601:Middlewares/Third_Party/LwIP/src/apps/mqtt/mqtt.c ****         restart_timer = 0;
 2884              		.loc 1 601 9 view .LVU818
 2885 008c 40F20111 		movw	r1, #257
 2886 0090 2046     		mov	r0, r4
 2887 0092 FFF7FEFF 		bl	mqtt_close
 2888              	.LVL317:
 602:Middlewares/Third_Party/LwIP/src/apps/mqtt/mqtt.c ****       }
 2889              		.loc 1 602 9 view .LVU819
 602:Middlewares/Third_Party/LwIP/src/apps/mqtt/mqtt.c ****       }
 2890              		.loc 1 602 23 is_stmt 0 view .LVU820
 2891 0096 0025     		movs	r5, #0
 2892 0098 EDE7     		b	.L222
 2893              	.LVL318:
 2894              	.L232:
 607:Middlewares/Third_Party/LwIP/src/apps/mqtt/mqtt.c ****         if (mqtt_output_check_space(&client->output, 0) != 0) {
 2895              		.loc 1 607 101 is_stmt 1 view .LVU821
 608:Middlewares/Third_Party/LwIP/src/apps/mqtt/mqtt.c ****           mqtt_output_append_fixed_header(&client->output, MQTT_MSG_TYPE_PINGREQ, 0, 0, 0, 0);
 2896              		.loc 1 608 9 view .LVU822
 608:Middlewares/Third_Party/LwIP/src/apps/mqtt/mqtt.c ****           mqtt_output_append_fixed_header(&client->output, MQTT_MSG_TYPE_PINGREQ, 0, 0, 0, 0);
 2897              		.loc 1 608 13 is_stmt 0 view .LVU823
 2898 009a 04F1EC06 		add	r6, r4, #236
 2899 009e 0021     		movs	r1, #0
 2900 00a0 3046     		mov	r0, r6
 2901 00a2 FFF7FEFF 		bl	mqtt_output_check_space
 2902              	.LVL319:
 608:Middlewares/Third_Party/LwIP/src/apps/mqtt/mqtt.c ****           mqtt_output_append_fixed_header(&client->output, MQTT_MSG_TYPE_PINGREQ, 0, 0, 0, 0);
 2903              		.loc 1 608 12 view .LVU824
 2904 00a6 0028     		cmp	r0, #0
 2905 00a8 EDD0     		beq	.L224
 609:Middlewares/Third_Party/LwIP/src/apps/mqtt/mqtt.c ****           client->cyclic_tick = 0;
 2906              		.loc 1 609 11 is_stmt 1 view .LVU825
 2907 00aa 0027     		movs	r7, #0
 2908 00ac 0197     		str	r7, [sp, #4]
ARM GAS  /tmp/ccVfyJBo.s 			page 83


 2909 00ae 0097     		str	r7, [sp]
 2910 00b0 3B46     		mov	r3, r7
 2911 00b2 3A46     		mov	r2, r7
 2912 00b4 0C21     		movs	r1, #12
 2913 00b6 3046     		mov	r0, r6
 2914 00b8 FFF7FEFF 		bl	mqtt_output_append_fixed_header
 2915              	.LVL320:
 610:Middlewares/Third_Party/LwIP/src/apps/mqtt/mqtt.c ****         }
 2916              		.loc 1 610 11 view .LVU826
 610:Middlewares/Third_Party/LwIP/src/apps/mqtt/mqtt.c ****         }
 2917              		.loc 1 610 31 is_stmt 0 view .LVU827
 2918 00bc 2780     		strh	r7, [r4]	@ movhi
 2919 00be E2E7     		b	.L224
 2920              	.L234:
 2921              		.align	2
 2922              	.L233:
 2923 00c0 00000000 		.word	.LC0
 2924 00c4 00000000 		.word	.LC17
 2925 00c8 58000000 		.word	.LC2
 2926 00cc 00000000 		.word	mqtt_cyclic_timer
 2927              		.cfi_endproc
 2928              	.LFE187:
 2930              		.section	.text.mqtt_tcp_connect_cb,"ax",%progbits
 2931              		.align	1
 2932              		.syntax unified
 2933              		.thumb
 2934              		.thumb_func
 2936              	mqtt_tcp_connect_cb:
 2937              	.LVL321:
 2938              	.LFB196:
1036:Middlewares/Third_Party/LwIP/src/apps/mqtt/mqtt.c **** 
1037:Middlewares/Third_Party/LwIP/src/apps/mqtt/mqtt.c **** /**
1038:Middlewares/Third_Party/LwIP/src/apps/mqtt/mqtt.c ****  * TCP connect callback function. @see tcp_connected_fn
1039:Middlewares/Third_Party/LwIP/src/apps/mqtt/mqtt.c ****  * @param arg MQTT client
1040:Middlewares/Third_Party/LwIP/src/apps/mqtt/mqtt.c ****  * @param err Always ERR_OK, mqtt_tcp_err_cb is called in case of error
1041:Middlewares/Third_Party/LwIP/src/apps/mqtt/mqtt.c ****  * @return ERR_OK
1042:Middlewares/Third_Party/LwIP/src/apps/mqtt/mqtt.c ****  */
1043:Middlewares/Third_Party/LwIP/src/apps/mqtt/mqtt.c **** static err_t
1044:Middlewares/Third_Party/LwIP/src/apps/mqtt/mqtt.c **** mqtt_tcp_connect_cb(void *arg, struct altcp_pcb *tpcb, err_t err)
1045:Middlewares/Third_Party/LwIP/src/apps/mqtt/mqtt.c **** {
 2939              		.loc 1 1045 1 is_stmt 1 view -0
 2940              		.cfi_startproc
 2941              		@ args = 0, pretend = 0, frame = 0
 2942              		@ frame_needed = 0, uses_anonymous_args = 0
 2943              		.loc 1 1045 1 is_stmt 0 view .LVU829
 2944 0000 F8B5     		push	{r3, r4, r5, r6, r7, lr}
 2945              	.LCFI31:
 2946              		.cfi_def_cfa_offset 24
 2947              		.cfi_offset 3, -24
 2948              		.cfi_offset 4, -20
 2949              		.cfi_offset 5, -16
 2950              		.cfi_offset 6, -12
 2951              		.cfi_offset 7, -8
 2952              		.cfi_offset 14, -4
1046:Middlewares/Third_Party/LwIP/src/apps/mqtt/mqtt.c ****   mqtt_client_t *client = (mqtt_client_t *)arg;
 2953              		.loc 1 1046 3 is_stmt 1 view .LVU830
 2954              	.LVL322:
ARM GAS  /tmp/ccVfyJBo.s 			page 84


1047:Middlewares/Third_Party/LwIP/src/apps/mqtt/mqtt.c **** 
1048:Middlewares/Third_Party/LwIP/src/apps/mqtt/mqtt.c ****   if (err != ERR_OK) {
 2955              		.loc 1 1048 3 view .LVU831
 2956              		.loc 1 1048 6 is_stmt 0 view .LVU832
 2957 0002 1646     		mov	r6, r2
 2958 0004 0AB1     		cbz	r2, .L238
 2959              	.LVL323:
 2960              	.L236:
1049:Middlewares/Third_Party/LwIP/src/apps/mqtt/mqtt.c ****     LWIP_DEBUGF(MQTT_DEBUG_WARN, ("mqtt_tcp_connect_cb: TCP connect error %d\n", err));
1050:Middlewares/Third_Party/LwIP/src/apps/mqtt/mqtt.c ****     return err;
1051:Middlewares/Third_Party/LwIP/src/apps/mqtt/mqtt.c ****   }
1052:Middlewares/Third_Party/LwIP/src/apps/mqtt/mqtt.c **** 
1053:Middlewares/Third_Party/LwIP/src/apps/mqtt/mqtt.c ****   /* Initiate receiver state */
1054:Middlewares/Third_Party/LwIP/src/apps/mqtt/mqtt.c ****   client->msg_idx = 0;
1055:Middlewares/Third_Party/LwIP/src/apps/mqtt/mqtt.c **** 
1056:Middlewares/Third_Party/LwIP/src/apps/mqtt/mqtt.c ****   /* Setup TCP callbacks */
1057:Middlewares/Third_Party/LwIP/src/apps/mqtt/mqtt.c ****   altcp_recv(tpcb, mqtt_tcp_recv_cb);
1058:Middlewares/Third_Party/LwIP/src/apps/mqtt/mqtt.c ****   altcp_sent(tpcb, mqtt_tcp_sent_cb);
1059:Middlewares/Third_Party/LwIP/src/apps/mqtt/mqtt.c ****   altcp_poll(tpcb, mqtt_tcp_poll_cb, 2);
1060:Middlewares/Third_Party/LwIP/src/apps/mqtt/mqtt.c **** 
1061:Middlewares/Third_Party/LwIP/src/apps/mqtt/mqtt.c ****   LWIP_DEBUGF(MQTT_DEBUG_TRACE, ("mqtt_tcp_connect_cb: TCP connection established to server\n"));
1062:Middlewares/Third_Party/LwIP/src/apps/mqtt/mqtt.c ****   /* Enter MQTT connect state */
1063:Middlewares/Third_Party/LwIP/src/apps/mqtt/mqtt.c ****   client->conn_state = MQTT_CONNECTING;
1064:Middlewares/Third_Party/LwIP/src/apps/mqtt/mqtt.c **** 
1065:Middlewares/Third_Party/LwIP/src/apps/mqtt/mqtt.c ****   /* Start cyclic timer */
1066:Middlewares/Third_Party/LwIP/src/apps/mqtt/mqtt.c ****   sys_timeout(MQTT_CYCLIC_TIMER_INTERVAL * 1000, mqtt_cyclic_timer, client);
1067:Middlewares/Third_Party/LwIP/src/apps/mqtt/mqtt.c ****   client->cyclic_tick = 0;
1068:Middlewares/Third_Party/LwIP/src/apps/mqtt/mqtt.c **** 
1069:Middlewares/Third_Party/LwIP/src/apps/mqtt/mqtt.c ****   /* Start transmission from output queue, connect message is the first one out*/
1070:Middlewares/Third_Party/LwIP/src/apps/mqtt/mqtt.c ****   mqtt_output_send(&client->output, client->conn);
1071:Middlewares/Third_Party/LwIP/src/apps/mqtt/mqtt.c **** 
1072:Middlewares/Third_Party/LwIP/src/apps/mqtt/mqtt.c ****   return ERR_OK;
1073:Middlewares/Third_Party/LwIP/src/apps/mqtt/mqtt.c **** }
 2961              		.loc 1 1073 1 view .LVU833
 2962 0006 3046     		mov	r0, r6
 2963 0008 F8BD     		pop	{r3, r4, r5, r6, r7, pc}
 2964              	.LVL324:
 2965              	.L238:
 2966              		.loc 1 1073 1 view .LVU834
 2967 000a 0446     		mov	r4, r0
 2968 000c 0D46     		mov	r5, r1
1054:Middlewares/Third_Party/LwIP/src/apps/mqtt/mqtt.c **** 
 2969              		.loc 1 1054 3 is_stmt 1 view .LVU835
1054:Middlewares/Third_Party/LwIP/src/apps/mqtt/mqtt.c **** 
 2970              		.loc 1 1054 19 is_stmt 0 view .LVU836
 2971 000e 0027     		movs	r7, #0
 2972 0010 8766     		str	r7, [r0, #104]
1057:Middlewares/Third_Party/LwIP/src/apps/mqtt/mqtt.c ****   altcp_sent(tpcb, mqtt_tcp_sent_cb);
 2973              		.loc 1 1057 3 is_stmt 1 view .LVU837
 2974 0012 0E49     		ldr	r1, .L239
 2975              	.LVL325:
1057:Middlewares/Third_Party/LwIP/src/apps/mqtt/mqtt.c ****   altcp_sent(tpcb, mqtt_tcp_sent_cb);
 2976              		.loc 1 1057 3 is_stmt 0 view .LVU838
 2977 0014 2846     		mov	r0, r5
 2978              	.LVL326:
1057:Middlewares/Third_Party/LwIP/src/apps/mqtt/mqtt.c ****   altcp_sent(tpcb, mqtt_tcp_sent_cb);
 2979              		.loc 1 1057 3 view .LVU839
ARM GAS  /tmp/ccVfyJBo.s 			page 85


 2980 0016 FFF7FEFF 		bl	tcp_recv
 2981              	.LVL327:
1058:Middlewares/Third_Party/LwIP/src/apps/mqtt/mqtt.c ****   altcp_poll(tpcb, mqtt_tcp_poll_cb, 2);
 2982              		.loc 1 1058 3 is_stmt 1 view .LVU840
 2983 001a 0D49     		ldr	r1, .L239+4
 2984 001c 2846     		mov	r0, r5
 2985 001e FFF7FEFF 		bl	tcp_sent
 2986              	.LVL328:
1059:Middlewares/Third_Party/LwIP/src/apps/mqtt/mqtt.c **** 
 2987              		.loc 1 1059 3 view .LVU841
 2988 0022 0222     		movs	r2, #2
 2989 0024 0B49     		ldr	r1, .L239+8
 2990 0026 2846     		mov	r0, r5
 2991 0028 FFF7FEFF 		bl	tcp_poll
 2992              	.LVL329:
1061:Middlewares/Third_Party/LwIP/src/apps/mqtt/mqtt.c ****   /* Enter MQTT connect state */
 2993              		.loc 1 1061 97 view .LVU842
1063:Middlewares/Third_Party/LwIP/src/apps/mqtt/mqtt.c **** 
 2994              		.loc 1 1063 3 view .LVU843
1063:Middlewares/Third_Party/LwIP/src/apps/mqtt/mqtt.c **** 
 2995              		.loc 1 1063 22 is_stmt 0 view .LVU844
 2996 002c 0223     		movs	r3, #2
 2997 002e A372     		strb	r3, [r4, #10]
1066:Middlewares/Third_Party/LwIP/src/apps/mqtt/mqtt.c ****   client->cyclic_tick = 0;
 2998              		.loc 1 1066 3 is_stmt 1 view .LVU845
 2999 0030 2246     		mov	r2, r4
 3000 0032 0949     		ldr	r1, .L239+12
 3001 0034 41F28830 		movw	r0, #5000
 3002 0038 FFF7FEFF 		bl	sys_timeout
 3003              	.LVL330:
1067:Middlewares/Third_Party/LwIP/src/apps/mqtt/mqtt.c **** 
 3004              		.loc 1 1067 3 view .LVU846
1067:Middlewares/Third_Party/LwIP/src/apps/mqtt/mqtt.c **** 
 3005              		.loc 1 1067 23 is_stmt 0 view .LVU847
 3006 003c 2780     		strh	r7, [r4]	@ movhi
1070:Middlewares/Third_Party/LwIP/src/apps/mqtt/mqtt.c **** 
 3007              		.loc 1 1070 3 is_stmt 1 view .LVU848
 3008 003e E168     		ldr	r1, [r4, #12]
 3009 0040 04F1EC00 		add	r0, r4, #236
 3010 0044 FFF7FEFF 		bl	mqtt_output_send
 3011              	.LVL331:
1072:Middlewares/Third_Party/LwIP/src/apps/mqtt/mqtt.c **** }
 3012              		.loc 1 1072 3 view .LVU849
1072:Middlewares/Third_Party/LwIP/src/apps/mqtt/mqtt.c **** }
 3013              		.loc 1 1072 10 is_stmt 0 view .LVU850
 3014 0048 DDE7     		b	.L236
 3015              	.L240:
 3016 004a 00BF     		.align	2
 3017              	.L239:
 3018 004c 00000000 		.word	mqtt_tcp_recv_cb
 3019 0050 00000000 		.word	mqtt_tcp_sent_cb
 3020 0054 00000000 		.word	mqtt_tcp_poll_cb
 3021 0058 00000000 		.word	mqtt_cyclic_timer
 3022              		.cfi_endproc
 3023              	.LFE196:
 3025              		.section	.text.mqtt_parse_incoming,"ax",%progbits
 3026              		.align	1
ARM GAS  /tmp/ccVfyJBo.s 			page 86


 3027              		.syntax unified
 3028              		.thumb
 3029              		.thumb_func
 3031              	mqtt_parse_incoming:
 3032              	.LVL332:
 3033              	.LFB191:
 840:Middlewares/Third_Party/LwIP/src/apps/mqtt/mqtt.c ****   u16_t in_offset = 0;
 3034              		.loc 1 840 1 is_stmt 1 view -0
 3035              		.cfi_startproc
 3036              		@ args = 0, pretend = 0, frame = 8
 3037              		@ frame_needed = 0, uses_anonymous_args = 0
 840:Middlewares/Third_Party/LwIP/src/apps/mqtt/mqtt.c ****   u16_t in_offset = 0;
 3038              		.loc 1 840 1 is_stmt 0 view .LVU852
 3039 0000 2DE9F04F 		push	{r4, r5, r6, r7, r8, r9, r10, fp, lr}
 3040              	.LCFI32:
 3041              		.cfi_def_cfa_offset 36
 3042              		.cfi_offset 4, -36
 3043              		.cfi_offset 5, -32
 3044              		.cfi_offset 6, -28
 3045              		.cfi_offset 7, -24
 3046              		.cfi_offset 8, -20
 3047              		.cfi_offset 9, -16
 3048              		.cfi_offset 10, -12
 3049              		.cfi_offset 11, -8
 3050              		.cfi_offset 14, -4
 3051 0004 83B0     		sub	sp, sp, #12
 3052              	.LCFI33:
 3053              		.cfi_def_cfa_offset 48
 3054 0006 8046     		mov	r8, r0
 3055 0008 0091     		str	r1, [sp]
 841:Middlewares/Third_Party/LwIP/src/apps/mqtt/mqtt.c ****   u32_t msg_rem_len = 0;
 3056              		.loc 1 841 3 is_stmt 1 view .LVU853
 3057              	.LVL333:
 842:Middlewares/Third_Party/LwIP/src/apps/mqtt/mqtt.c ****   u8_t fixed_hdr_idx = 0;
 3058              		.loc 1 842 3 view .LVU854
 843:Middlewares/Third_Party/LwIP/src/apps/mqtt/mqtt.c ****   u8_t b = 0;
 3059              		.loc 1 843 3 view .LVU855
 844:Middlewares/Third_Party/LwIP/src/apps/mqtt/mqtt.c **** 
 3060              		.loc 1 844 3 view .LVU856
 846:Middlewares/Third_Party/LwIP/src/apps/mqtt/mqtt.c ****     /* We ALWAYS parse the header here first. Even if the header was not
 3061              		.loc 1 846 3 view .LVU857
 844:Middlewares/Third_Party/LwIP/src/apps/mqtt/mqtt.c **** 
 3062              		.loc 1 844 8 is_stmt 0 view .LVU858
 3063 000a 4FF0000A 		mov	r10, #0
 843:Middlewares/Third_Party/LwIP/src/apps/mqtt/mqtt.c ****   u8_t b = 0;
 3064              		.loc 1 843 8 view .LVU859
 3065 000e 5546     		mov	r5, r10
 842:Middlewares/Third_Party/LwIP/src/apps/mqtt/mqtt.c ****   u8_t fixed_hdr_idx = 0;
 3066              		.loc 1 842 9 view .LVU860
 3067 0010 D146     		mov	r9, r10
 841:Middlewares/Third_Party/LwIP/src/apps/mqtt/mqtt.c ****   u32_t msg_rem_len = 0;
 3068              		.loc 1 841 9 view .LVU861
 3069 0012 5746     		mov	r7, r10
 846:Middlewares/Third_Party/LwIP/src/apps/mqtt/mqtt.c ****     /* We ALWAYS parse the header here first. Even if the header was not
 3070              		.loc 1 846 9 view .LVU862
 3071 0014 4EE0     		b	.L242
 3072              	.LVL334:
ARM GAS  /tmp/ccVfyJBo.s 			page 87


 3073              	.L244:
 858:Middlewares/Third_Party/LwIP/src/apps/mqtt/mqtt.c ****         client->rx_buffer[client->msg_idx++] = b;
 3074              		.loc 1 858 9 is_stmt 1 view .LVU863
 858:Middlewares/Third_Party/LwIP/src/apps/mqtt/mqtt.c ****         client->rx_buffer[client->msg_idx++] = b;
 3075              		.loc 1 858 13 is_stmt 0 view .LVU864
 3076 0016 7C1C     		adds	r4, r7, #1
 3077 0018 A4B2     		uxth	r4, r4
 3078              	.LVL335:
 858:Middlewares/Third_Party/LwIP/src/apps/mqtt/mqtt.c ****         client->rx_buffer[client->msg_idx++] = b;
 3079              		.loc 1 858 13 view .LVU865
 3080 001a 3946     		mov	r1, r7
 3081 001c 0098     		ldr	r0, [sp]
 3082 001e FFF7FEFF 		bl	pbuf_get_at
 3083              	.LVL336:
 3084 0022 8246     		mov	r10, r0
 3085              	.LVL337:
 859:Middlewares/Third_Party/LwIP/src/apps/mqtt/mqtt.c ****       }
 3086              		.loc 1 859 9 is_stmt 1 view .LVU866
 859:Middlewares/Third_Party/LwIP/src/apps/mqtt/mqtt.c ****       }
 3087              		.loc 1 859 33 is_stmt 0 view .LVU867
 3088 0024 D8F86830 		ldr	r3, [r8, #104]
 859:Middlewares/Third_Party/LwIP/src/apps/mqtt/mqtt.c ****       }
 3089              		.loc 1 859 42 view .LVU868
 3090 0028 5A1C     		adds	r2, r3, #1
 3091 002a C8F86820 		str	r2, [r8, #104]
 859:Middlewares/Third_Party/LwIP/src/apps/mqtt/mqtt.c ****       }
 3092              		.loc 1 859 46 view .LVU869
 3093 002e 4344     		add	r3, r3, r8
 3094 0030 83F86C00 		strb	r0, [r3, #108]
 858:Middlewares/Third_Party/LwIP/src/apps/mqtt/mqtt.c ****         client->rx_buffer[client->msg_idx++] = b;
 3095              		.loc 1 858 13 view .LVU870
 3096 0034 2746     		mov	r7, r4
 3097 0036 51E0     		b	.L245
 3098              	.LVL338:
 3099              	.L257:
 873:Middlewares/Third_Party/LwIP/src/apps/mqtt/mqtt.c ****             client->msg_idx = 0;
 3100              		.loc 1 873 13 is_stmt 1 view .LVU871
 3101 0038 0023     		movs	r3, #0
 3102 003a 1A46     		mov	r2, r3
 3103 003c 2946     		mov	r1, r5
 3104 003e 4046     		mov	r0, r8
 3105 0040 FFF7FEFF 		bl	mqtt_message_received
 3106              	.LVL339:
 874:Middlewares/Third_Party/LwIP/src/apps/mqtt/mqtt.c ****             fixed_hdr_idx = 0;
 3107              		.loc 1 874 13 view .LVU872
 874:Middlewares/Third_Party/LwIP/src/apps/mqtt/mqtt.c ****             fixed_hdr_idx = 0;
 3108              		.loc 1 874 29 is_stmt 0 view .LVU873
 3109 0044 0025     		movs	r5, #0
 3110              	.LVL340:
 874:Middlewares/Third_Party/LwIP/src/apps/mqtt/mqtt.c ****             fixed_hdr_idx = 0;
 3111              		.loc 1 874 29 view .LVU874
 3112 0046 C8F86850 		str	r5, [r8, #104]
 875:Middlewares/Third_Party/LwIP/src/apps/mqtt/mqtt.c ****           } else {
 3113              		.loc 1 875 13 is_stmt 1 view .LVU875
 3114              	.LVL341:
 875:Middlewares/Third_Party/LwIP/src/apps/mqtt/mqtt.c ****           } else {
 3115              		.loc 1 875 13 is_stmt 0 view .LVU876
ARM GAS  /tmp/ccVfyJBo.s 			page 88


 3116 004a 33E0     		b	.L242
 3117              	.LVL342:
 3118              	.L243:
 3119              	.LBB13:
 885:Middlewares/Third_Party/LwIP/src/apps/mqtt/mqtt.c **** 
 3120              		.loc 1 885 7 is_stmt 1 view .LVU877
 887:Middlewares/Third_Party/LwIP/src/apps/mqtt/mqtt.c **** 
 3121              		.loc 1 887 7 view .LVU878
 887:Middlewares/Third_Party/LwIP/src/apps/mqtt/mqtt.c **** 
 3122              		.loc 1 887 26 is_stmt 0 view .LVU879
 3123 004c D8F86860 		ldr	r6, [r8, #104]
 887:Middlewares/Third_Party/LwIP/src/apps/mqtt/mqtt.c **** 
 3124              		.loc 1 887 36 view .LVU880
 3125 0050 761B     		subs	r6, r6, r5
 887:Middlewares/Third_Party/LwIP/src/apps/mqtt/mqtt.c **** 
 3126              		.loc 1 887 83 view .LVU881
 3127 0052 C5F18003 		rsb	r3, r5, #128
 887:Middlewares/Third_Party/LwIP/src/apps/mqtt/mqtt.c **** 
 3128              		.loc 1 887 53 view .LVU882
 3129 0056 B6FBF3F2 		udiv	r2, r6, r3
 3130 005a 03FB1266 		mls	r6, r3, r2, r6
 887:Middlewares/Third_Party/LwIP/src/apps/mqtt/mqtt.c **** 
 3131              		.loc 1 887 100 view .LVU883
 3132 005e ABB2     		uxth	r3, r5
 3133 0060 0193     		str	r3, [sp, #4]
 887:Middlewares/Third_Party/LwIP/src/apps/mqtt/mqtt.c **** 
 3134              		.loc 1 887 17 view .LVU884
 3135 0062 15FA86F6 		uxtah	r6, r5, r6
 3136 0066 B6B2     		uxth	r6, r6
 3137              	.LVL343:
 890:Middlewares/Third_Party/LwIP/src/apps/mqtt/mqtt.c **** 
 3138              		.loc 1 890 7 is_stmt 1 view .LVU885
 890:Middlewares/Third_Party/LwIP/src/apps/mqtt/mqtt.c **** 
 3139              		.loc 1 890 24 is_stmt 0 view .LVU886
 3140 0068 E41B     		subs	r4, r4, r7
 3141 006a A4B2     		uxth	r4, r4
 890:Middlewares/Third_Party/LwIP/src/apps/mqtt/mqtt.c **** 
 3142              		.loc 1 890 17 view .LVU887
 3143 006c 4C45     		cmp	r4, r9
 3144 006e 01D3     		bcc	.L248
 890:Middlewares/Third_Party/LwIP/src/apps/mqtt/mqtt.c **** 
 3145              		.loc 1 890 17 discriminator 2 view .LVU888
 3146 0070 1FFA89F4 		uxth	r4, r9
 3147              	.L248:
 3148              	.LVL344:
 893:Middlewares/Third_Party/LwIP/src/apps/mqtt/mqtt.c ****       if (cpy_len > buffer_space) {
 3149              		.loc 1 893 7 is_stmt 1 discriminator 4 view .LVU889
 893:Middlewares/Third_Party/LwIP/src/apps/mqtt/mqtt.c ****       if (cpy_len > buffer_space) {
 3150              		.loc 1 893 20 is_stmt 0 discriminator 4 view .LVU890
 3151 0074 C6F1800B 		rsb	fp, r6, #128
 3152 0078 1FFA8BFB 		uxth	fp, fp
 3153              	.LVL345:
 894:Middlewares/Third_Party/LwIP/src/apps/mqtt/mqtt.c ****         cpy_len = buffer_space;
 3154              		.loc 1 894 7 is_stmt 1 discriminator 4 view .LVU891
 894:Middlewares/Third_Party/LwIP/src/apps/mqtt/mqtt.c ****         cpy_len = buffer_space;
 3155              		.loc 1 894 10 is_stmt 0 discriminator 4 view .LVU892
 3156 007c 5C45     		cmp	r4, fp
ARM GAS  /tmp/ccVfyJBo.s 			page 89


 3157 007e 00D9     		bls	.L249
 895:Middlewares/Third_Party/LwIP/src/apps/mqtt/mqtt.c ****       }
 3158              		.loc 1 895 17 view .LVU893
 3159 0080 5C46     		mov	r4, fp
 3160              	.LVL346:
 3161              	.L249:
 897:Middlewares/Third_Party/LwIP/src/apps/mqtt/mqtt.c **** 
 3162              		.loc 1 897 7 is_stmt 1 view .LVU894
 897:Middlewares/Third_Party/LwIP/src/apps/mqtt/mqtt.c **** 
 3163              		.loc 1 897 28 is_stmt 0 view .LVU895
 3164 0082 08F16C01 		add	r1, r8, #108
 897:Middlewares/Third_Party/LwIP/src/apps/mqtt/mqtt.c **** 
 3165              		.loc 1 897 7 view .LVU896
 3166 0086 3B46     		mov	r3, r7
 3167 0088 2246     		mov	r2, r4
 3168 008a 3144     		add	r1, r1, r6
 3169 008c 0098     		ldr	r0, [sp]
 3170 008e FFF7FEFF 		bl	pbuf_copy_partial
 3171              	.LVL347:
 900:Middlewares/Third_Party/LwIP/src/apps/mqtt/mqtt.c ****       in_offset += cpy_len;
 3172              		.loc 1 900 7 is_stmt 1 view .LVU897
 900:Middlewares/Third_Party/LwIP/src/apps/mqtt/mqtt.c ****       in_offset += cpy_len;
 3173              		.loc 1 900 23 is_stmt 0 view .LVU898
 3174 0092 D8F86830 		ldr	r3, [r8, #104]
 3175 0096 2344     		add	r3, r3, r4
 3176 0098 C8F86830 		str	r3, [r8, #104]
 901:Middlewares/Third_Party/LwIP/src/apps/mqtt/mqtt.c ****       msg_rem_len -= cpy_len;
 3177              		.loc 1 901 7 is_stmt 1 view .LVU899
 901:Middlewares/Third_Party/LwIP/src/apps/mqtt/mqtt.c ****       msg_rem_len -= cpy_len;
 3178              		.loc 1 901 17 is_stmt 0 view .LVU900
 3179 009c 2744     		add	r7, r7, r4
 3180              	.LVL348:
 901:Middlewares/Third_Party/LwIP/src/apps/mqtt/mqtt.c ****       msg_rem_len -= cpy_len;
 3181              		.loc 1 901 17 view .LVU901
 3182 009e BFB2     		uxth	r7, r7
 3183              	.LVL349:
 902:Middlewares/Third_Party/LwIP/src/apps/mqtt/mqtt.c **** 
 3184              		.loc 1 902 7 is_stmt 1 view .LVU902
 904:Middlewares/Third_Party/LwIP/src/apps/mqtt/mqtt.c ****       if ((msg_rem_len == 0) || (cpy_len == buffer_space)) {
 3185              		.loc 1 904 160 view .LVU903
 905:Middlewares/Third_Party/LwIP/src/apps/mqtt/mqtt.c ****         /* Whole message received or buffer is full */
 3186              		.loc 1 905 7 view .LVU904
 905:Middlewares/Third_Party/LwIP/src/apps/mqtt/mqtt.c ****         /* Whole message received or buffer is full */
 3187              		.loc 1 905 24 is_stmt 0 view .LVU905
 3188 00a0 B9EB0409 		subs	r9, r9, r4
 3189              	.LVL350:
 905:Middlewares/Third_Party/LwIP/src/apps/mqtt/mqtt.c ****         /* Whole message received or buffer is full */
 3190              		.loc 1 905 24 view .LVU906
 3191 00a4 0CBF     		ite	eq
 3192 00a6 0123     		moveq	r3, #1
 3193 00a8 0023     		movne	r3, #0
 905:Middlewares/Third_Party/LwIP/src/apps/mqtt/mqtt.c ****         /* Whole message received or buffer is full */
 3194              		.loc 1 905 30 view .LVU907
 3195 00aa 5C45     		cmp	r4, fp
 3196 00ac 08BF     		it	eq
 3197 00ae 43F00103 		orreq	r3, r3, #1
 905:Middlewares/Third_Party/LwIP/src/apps/mqtt/mqtt.c ****         /* Whole message received or buffer is full */
ARM GAS  /tmp/ccVfyJBo.s 			page 90


 3198              		.loc 1 905 10 view .LVU908
 3199 00b2 5BBB     		cbnz	r3, .L255
 3200              	.LVL351:
 3201              	.L242:
 905:Middlewares/Third_Party/LwIP/src/apps/mqtt/mqtt.c ****         /* Whole message received or buffer is full */
 3202              		.loc 1 905 10 view .LVU909
 3203              	.LBE13:
 846:Middlewares/Third_Party/LwIP/src/apps/mqtt/mqtt.c ****     /* We ALWAYS parse the header here first. Even if the header was not
 3204              		.loc 1 846 9 is_stmt 1 view .LVU910
 846:Middlewares/Third_Party/LwIP/src/apps/mqtt/mqtt.c ****     /* We ALWAYS parse the header here first. Even if the header was not
 3205              		.loc 1 846 11 is_stmt 0 view .LVU911
 3206 00b4 009B     		ldr	r3, [sp]
 3207 00b6 1C89     		ldrh	r4, [r3, #8]
 846:Middlewares/Third_Party/LwIP/src/apps/mqtt/mqtt.c ****     /* We ALWAYS parse the header here first. Even if the header was not
 3208              		.loc 1 846 9 view .LVU912
 3209 00b8 BC42     		cmp	r4, r7
 3210 00ba 3AD9     		bls	.L256
 850:Middlewares/Third_Party/LwIP/src/apps/mqtt/mqtt.c **** 
 3211              		.loc 1 850 5 is_stmt 1 view .LVU913
 850:Middlewares/Third_Party/LwIP/src/apps/mqtt/mqtt.c **** 
 3212              		.loc 1 850 44 is_stmt 0 view .LVU914
 3213 00bc CAF3C013 		ubfx	r3, r10, #7, #1
 850:Middlewares/Third_Party/LwIP/src/apps/mqtt/mqtt.c **** 
 3214              		.loc 1 850 29 view .LVU915
 3215 00c0 012D     		cmp	r5, #1
 3216 00c2 98BF     		it	ls
 3217 00c4 43F00103 		orrls	r3, r3, #1
 850:Middlewares/Third_Party/LwIP/src/apps/mqtt/mqtt.c **** 
 3218              		.loc 1 850 8 view .LVU916
 3219 00c8 002B     		cmp	r3, #0
 3220 00ca BFD0     		beq	.L243
 852:Middlewares/Third_Party/LwIP/src/apps/mqtt/mqtt.c ****         /* parse header from old pbuf (buffered in client->rx_buffer) */
 3221              		.loc 1 852 7 is_stmt 1 view .LVU917
 852:Middlewares/Third_Party/LwIP/src/apps/mqtt/mqtt.c ****         /* parse header from old pbuf (buffered in client->rx_buffer) */
 3222              		.loc 1 852 33 is_stmt 0 view .LVU918
 3223 00cc D8F86830 		ldr	r3, [r8, #104]
 852:Middlewares/Third_Party/LwIP/src/apps/mqtt/mqtt.c ****         /* parse header from old pbuf (buffered in client->rx_buffer) */
 3224              		.loc 1 852 10 view .LVU919
 3225 00d0 9D42     		cmp	r5, r3
 3226 00d2 A0D2     		bcs	.L244
 854:Middlewares/Third_Party/LwIP/src/apps/mqtt/mqtt.c ****       } else {
 3227              		.loc 1 854 9 is_stmt 1 view .LVU920
 854:Middlewares/Third_Party/LwIP/src/apps/mqtt/mqtt.c ****       } else {
 3228              		.loc 1 854 11 is_stmt 0 view .LVU921
 3229 00d4 08EB0503 		add	r3, r8, r5
 3230 00d8 93F86CA0 		ldrb	r10, [r3, #108]	@ zero_extendqisi2
 3231              	.LVL352:
 3232              	.L245:
 861:Middlewares/Third_Party/LwIP/src/apps/mqtt/mqtt.c **** 
 3233              		.loc 1 861 7 is_stmt 1 view .LVU922
 861:Middlewares/Third_Party/LwIP/src/apps/mqtt/mqtt.c **** 
 3234              		.loc 1 861 20 is_stmt 0 view .LVU923
 3235 00dc 0135     		adds	r5, r5, #1
 3236              	.LVL353:
 861:Middlewares/Third_Party/LwIP/src/apps/mqtt/mqtt.c **** 
 3237              		.loc 1 861 20 view .LVU924
 3238 00de EDB2     		uxtb	r5, r5
ARM GAS  /tmp/ccVfyJBo.s 			page 91


 3239              	.LVL354:
 863:Middlewares/Third_Party/LwIP/src/apps/mqtt/mqtt.c ****         /* fixed header contains at least 2 bytes but can contain more, depending on
 3240              		.loc 1 863 7 is_stmt 1 view .LVU925
 863:Middlewares/Third_Party/LwIP/src/apps/mqtt/mqtt.c ****         /* fixed header contains at least 2 bytes but can contain more, depending on
 3241              		.loc 1 863 10 is_stmt 0 view .LVU926
 3242 00e0 012D     		cmp	r5, #1
 3243 00e2 E7D9     		bls	.L242
 867:Middlewares/Third_Party/LwIP/src/apps/mqtt/mqtt.c ****         if ((b & 0x80) == 0) {
 3244              		.loc 1 867 9 is_stmt 1 view .LVU927
 867:Middlewares/Third_Party/LwIP/src/apps/mqtt/mqtt.c ****         if ((b & 0x80) == 0) {
 3245              		.loc 1 867 24 is_stmt 0 view .LVU928
 3246 00e4 0AF07F03 		and	r3, r10, #127
 867:Middlewares/Third_Party/LwIP/src/apps/mqtt/mqtt.c ****         if ((b & 0x80) == 0) {
 3247              		.loc 1 867 61 view .LVU929
 3248 00e8 AA1E     		subs	r2, r5, #2
 867:Middlewares/Third_Party/LwIP/src/apps/mqtt/mqtt.c ****         if ((b & 0x80) == 0) {
 3249              		.loc 1 867 66 view .LVU930
 3250 00ea C2EBC202 		rsb	r2, r2, r2, lsl #3
 867:Middlewares/Third_Party/LwIP/src/apps/mqtt/mqtt.c ****         if ((b & 0x80) == 0) {
 3251              		.loc 1 867 42 view .LVU931
 3252 00ee 9340     		lsls	r3, r3, r2
 867:Middlewares/Third_Party/LwIP/src/apps/mqtt/mqtt.c ****         if ((b & 0x80) == 0) {
 3253              		.loc 1 867 21 view .LVU932
 3254 00f0 49EA0309 		orr	r9, r9, r3
 3255              	.LVL355:
 868:Middlewares/Third_Party/LwIP/src/apps/mqtt/mqtt.c ****           /* fixed header is done */
 3256              		.loc 1 868 9 is_stmt 1 view .LVU933
 868:Middlewares/Third_Party/LwIP/src/apps/mqtt/mqtt.c ****           /* fixed header is done */
 3257              		.loc 1 868 12 is_stmt 0 view .LVU934
 3258 00f4 1AF0800F 		tst	r10, #128
 3259 00f8 DCD1     		bne	.L242
 870:Middlewares/Third_Party/LwIP/src/apps/mqtt/mqtt.c ****           if (msg_rem_len == 0) {
 3260              		.loc 1 870 127 is_stmt 1 view .LVU935
 871:Middlewares/Third_Party/LwIP/src/apps/mqtt/mqtt.c ****             /* Complete message with no extra headers of payload received */
 3261              		.loc 1 871 11 view .LVU936
 871:Middlewares/Third_Party/LwIP/src/apps/mqtt/mqtt.c ****             /* Complete message with no extra headers of payload received */
 3262              		.loc 1 871 14 is_stmt 0 view .LVU937
 3263 00fa B9F1000F 		cmp	r9, #0
 3264 00fe 9BD0     		beq	.L257
 879:Middlewares/Third_Party/LwIP/src/apps/mqtt/mqtt.c ****           }
 3265              		.loc 1 879 13 is_stmt 1 view .LVU938
 879:Middlewares/Third_Party/LwIP/src/apps/mqtt/mqtt.c ****           }
 3266              		.loc 1 879 40 is_stmt 0 view .LVU939
 3267 0100 A944     		add	r9, r9, r5
 3268              	.LVL356:
 879:Middlewares/Third_Party/LwIP/src/apps/mqtt/mqtt.c ****           }
 3269              		.loc 1 879 65 view .LVU940
 3270 0102 D8F86830 		ldr	r3, [r8, #104]
 879:Middlewares/Third_Party/LwIP/src/apps/mqtt/mqtt.c ****           }
 3271              		.loc 1 879 25 view .LVU941
 3272 0106 A9EB0309 		sub	r9, r9, r3
 3273              	.LVL357:
 879:Middlewares/Third_Party/LwIP/src/apps/mqtt/mqtt.c ****           }
 3274              		.loc 1 879 25 view .LVU942
 3275 010a D3E7     		b	.L242
 3276              	.LVL358:
 3277              	.L255:
ARM GAS  /tmp/ccVfyJBo.s 			page 92


 3278              	.LBB15:
 3279              	.LBB14:
 907:Middlewares/Third_Party/LwIP/src/apps/mqtt/mqtt.c ****         if (res != MQTT_CONNECT_ACCEPTED) {
 3280              		.loc 1 907 9 is_stmt 1 view .LVU943
 907:Middlewares/Third_Party/LwIP/src/apps/mqtt/mqtt.c ****         if (res != MQTT_CONNECT_ACCEPTED) {
 3281              		.loc 1 907 96 is_stmt 0 view .LVU944
 3282 010c A219     		adds	r2, r4, r6
 3283 010e 92B2     		uxth	r2, r2
 907:Middlewares/Third_Party/LwIP/src/apps/mqtt/mqtt.c ****         if (res != MQTT_CONNECT_ACCEPTED) {
 3284              		.loc 1 907 40 view .LVU945
 3285 0110 019B     		ldr	r3, [sp, #4]
 3286 0112 D21A     		subs	r2, r2, r3
 3287 0114 4B46     		mov	r3, r9
 3288 0116 92B2     		uxth	r2, r2
 3289 0118 2946     		mov	r1, r5
 3290 011a 4046     		mov	r0, r8
 3291 011c FFF7FEFF 		bl	mqtt_message_received
 3292              	.LVL359:
 908:Middlewares/Third_Party/LwIP/src/apps/mqtt/mqtt.c ****           return res;
 3293              		.loc 1 908 9 is_stmt 1 view .LVU946
 908:Middlewares/Third_Party/LwIP/src/apps/mqtt/mqtt.c ****           return res;
 3294              		.loc 1 908 12 is_stmt 0 view .LVU947
 3295 0120 0346     		mov	r3, r0
 3296 0122 38B9     		cbnz	r0, .L250
 911:Middlewares/Third_Party/LwIP/src/apps/mqtt/mqtt.c ****           /* Reset parser state */
 3297              		.loc 1 911 9 is_stmt 1 view .LVU948
 911:Middlewares/Third_Party/LwIP/src/apps/mqtt/mqtt.c ****           /* Reset parser state */
 3298              		.loc 1 911 12 is_stmt 0 view .LVU949
 3299 0124 B9F1000F 		cmp	r9, #0
 3300 0128 C4D1     		bne	.L242
 913:Middlewares/Third_Party/LwIP/src/apps/mqtt/mqtt.c ****           /* msg_tot_len = 0; */
 3301              		.loc 1 913 11 is_stmt 1 view .LVU950
 913:Middlewares/Third_Party/LwIP/src/apps/mqtt/mqtt.c ****           /* msg_tot_len = 0; */
 3302              		.loc 1 913 27 is_stmt 0 view .LVU951
 3303 012a 0025     		movs	r5, #0
 3304              	.LVL360:
 913:Middlewares/Third_Party/LwIP/src/apps/mqtt/mqtt.c ****           /* msg_tot_len = 0; */
 3305              		.loc 1 913 27 view .LVU952
 3306 012c C8F86850 		str	r5, [r8, #104]
 915:Middlewares/Third_Party/LwIP/src/apps/mqtt/mqtt.c ****         }
 3307              		.loc 1 915 11 is_stmt 1 view .LVU953
 3308              	.LVL361:
 915:Middlewares/Third_Party/LwIP/src/apps/mqtt/mqtt.c ****         }
 3309              		.loc 1 915 11 is_stmt 0 view .LVU954
 3310 0130 C0E7     		b	.L242
 3311              	.LVL362:
 3312              	.L256:
 915:Middlewares/Third_Party/LwIP/src/apps/mqtt/mqtt.c ****         }
 3313              		.loc 1 915 11 view .LVU955
 3314              	.LBE14:
 3315              	.LBE15:
 920:Middlewares/Third_Party/LwIP/src/apps/mqtt/mqtt.c **** }
 3316              		.loc 1 920 10 view .LVU956
 3317 0132 0023     		movs	r3, #0
 3318              	.LVL363:
 3319              	.L250:
 921:Middlewares/Third_Party/LwIP/src/apps/mqtt/mqtt.c **** 
ARM GAS  /tmp/ccVfyJBo.s 			page 93


 3320              		.loc 1 921 1 view .LVU957
 3321 0134 1846     		mov	r0, r3
 3322 0136 03B0     		add	sp, sp, #12
 3323              	.LCFI34:
 3324              		.cfi_def_cfa_offset 36
 3325              	.LVL364:
 921:Middlewares/Third_Party/LwIP/src/apps/mqtt/mqtt.c **** 
 3326              		.loc 1 921 1 view .LVU958
 3327              		@ sp needed
 3328 0138 BDE8F08F 		pop	{r4, r5, r6, r7, r8, r9, r10, fp, pc}
 921:Middlewares/Third_Party/LwIP/src/apps/mqtt/mqtt.c **** 
 3329              		.loc 1 921 1 view .LVU959
 3330              		.cfi_endproc
 3331              	.LFE191:
 3333              		.section	.rodata.mqtt_tcp_recv_cb.str1.4,"aMS",%progbits,1
 3334              		.align	2
 3335              	.LC18:
 3336 0000 6D717474 		.ascii	"mqtt_tcp_recv_cb: client != NULL\000"
 3336      5F746370 
 3336      5F726563 
 3336      765F6362 
 3336      3A20636C 
 3337 0021 000000   		.align	2
 3338              	.LC19:
 3339 0024 6D717474 		.ascii	"mqtt_tcp_recv_cb: client->conn == pcb\000"
 3339      5F746370 
 3339      5F726563 
 3339      765F6362 
 3339      3A20636C 
 3340              		.section	.text.mqtt_tcp_recv_cb,"ax",%progbits
 3341              		.align	1
 3342              		.syntax unified
 3343              		.thumb
 3344              		.thumb_func
 3346              	mqtt_tcp_recv_cb:
 3347              	.LVL365:
 3348              	.LFB192:
 933:Middlewares/Third_Party/LwIP/src/apps/mqtt/mqtt.c ****   mqtt_client_t *client = (mqtt_client_t *)arg;
 3349              		.loc 1 933 1 is_stmt 1 view -0
 3350              		.cfi_startproc
 3351              		@ args = 0, pretend = 0, frame = 0
 3352              		@ frame_needed = 0, uses_anonymous_args = 0
 933:Middlewares/Third_Party/LwIP/src/apps/mqtt/mqtt.c ****   mqtt_client_t *client = (mqtt_client_t *)arg;
 3353              		.loc 1 933 1 is_stmt 0 view .LVU961
 3354 0000 F8B5     		push	{r3, r4, r5, r6, r7, lr}
 3355              	.LCFI35:
 3356              		.cfi_def_cfa_offset 24
 3357              		.cfi_offset 3, -24
 3358              		.cfi_offset 4, -20
 3359              		.cfi_offset 5, -16
 3360              		.cfi_offset 6, -12
 3361              		.cfi_offset 7, -8
 3362              		.cfi_offset 14, -4
 3363 0002 0E46     		mov	r6, r1
 3364 0004 1446     		mov	r4, r2
 3365 0006 1D46     		mov	r5, r3
 934:Middlewares/Third_Party/LwIP/src/apps/mqtt/mqtt.c ****   LWIP_ASSERT("mqtt_tcp_recv_cb: client != NULL", client != NULL);
ARM GAS  /tmp/ccVfyJBo.s 			page 94


 3366              		.loc 1 934 3 is_stmt 1 view .LVU962
 3367              	.LVL366:
 935:Middlewares/Third_Party/LwIP/src/apps/mqtt/mqtt.c ****   LWIP_ASSERT("mqtt_tcp_recv_cb: client->conn == pcb", client->conn == pcb);
 3368              		.loc 1 935 3 view .LVU963
 935:Middlewares/Third_Party/LwIP/src/apps/mqtt/mqtt.c ****   LWIP_ASSERT("mqtt_tcp_recv_cb: client->conn == pcb", client->conn == pcb);
 3369              		.loc 1 935 3 view .LVU964
 3370 0008 0746     		mov	r7, r0
 3371 000a E8B1     		cbz	r0, .L266
 3372              	.LVL367:
 3373              	.L259:
 935:Middlewares/Third_Party/LwIP/src/apps/mqtt/mqtt.c ****   LWIP_ASSERT("mqtt_tcp_recv_cb: client->conn == pcb", client->conn == pcb);
 3374              		.loc 1 935 3 discriminator 3 view .LVU965
 935:Middlewares/Third_Party/LwIP/src/apps/mqtt/mqtt.c ****   LWIP_ASSERT("mqtt_tcp_recv_cb: client->conn == pcb", client->conn == pcb);
 3375              		.loc 1 935 3 discriminator 3 view .LVU966
 936:Middlewares/Third_Party/LwIP/src/apps/mqtt/mqtt.c **** 
 3376              		.loc 1 936 3 discriminator 3 view .LVU967
 936:Middlewares/Third_Party/LwIP/src/apps/mqtt/mqtt.c **** 
 3377              		.loc 1 936 3 discriminator 3 view .LVU968
 3378 000c FB68     		ldr	r3, [r7, #12]
 3379 000e B342     		cmp	r3, r6
 3380 0010 06D0     		beq	.L260
 936:Middlewares/Third_Party/LwIP/src/apps/mqtt/mqtt.c **** 
 3381              		.loc 1 936 3 discriminator 1 view .LVU969
 936:Middlewares/Third_Party/LwIP/src/apps/mqtt/mqtt.c **** 
 3382              		.loc 1 936 3 discriminator 1 view .LVU970
 3383 0012 1A4B     		ldr	r3, .L270
 3384 0014 4FF46A72 		mov	r2, #936
 3385 0018 1949     		ldr	r1, .L270+4
 3386 001a 1A48     		ldr	r0, .L270+8
 3387 001c FFF7FEFF 		bl	printf
 3388              	.LVL368:
 3389              	.L260:
 936:Middlewares/Third_Party/LwIP/src/apps/mqtt/mqtt.c **** 
 3390              		.loc 1 936 3 discriminator 3 view .LVU971
 936:Middlewares/Third_Party/LwIP/src/apps/mqtt/mqtt.c **** 
 3391              		.loc 1 936 3 discriminator 3 view .LVU972
 938:Middlewares/Third_Party/LwIP/src/apps/mqtt/mqtt.c ****     LWIP_DEBUGF(MQTT_DEBUG_TRACE, ("mqtt_tcp_recv_cb: Recv pbuf=NULL, remote has closed connection\
 3392              		.loc 1 938 3 discriminator 3 view .LVU973
 938:Middlewares/Third_Party/LwIP/src/apps/mqtt/mqtt.c ****     LWIP_DEBUGF(MQTT_DEBUG_TRACE, ("mqtt_tcp_recv_cb: Recv pbuf=NULL, remote has closed connection\
 3393              		.loc 1 938 6 is_stmt 0 discriminator 3 view .LVU974
 3394 0020 D4B1     		cbz	r4, .L267
 3395              	.LBB16:
 942:Middlewares/Third_Party/LwIP/src/apps/mqtt/mqtt.c ****     if (err != ERR_OK) {
 3396              		.loc 1 942 5 is_stmt 1 view .LVU975
 943:Middlewares/Third_Party/LwIP/src/apps/mqtt/mqtt.c ****       LWIP_DEBUGF(MQTT_DEBUG_WARN, ("mqtt_tcp_recv_cb: Recv err=%d\n", err));
 3397              		.loc 1 943 5 view .LVU976
 943:Middlewares/Third_Party/LwIP/src/apps/mqtt/mqtt.c ****       LWIP_DEBUGF(MQTT_DEBUG_WARN, ("mqtt_tcp_recv_cb: Recv err=%d\n", err));
 3398              		.loc 1 943 8 is_stmt 0 view .LVU977
 3399 0022 05BB     		cbnz	r5, .L268
 950:Middlewares/Third_Party/LwIP/src/apps/mqtt/mqtt.c ****     res = mqtt_parse_incoming(client, p);
 3400              		.loc 1 950 5 is_stmt 1 view .LVU978
 3401 0024 2189     		ldrh	r1, [r4, #8]
 3402 0026 3046     		mov	r0, r6
 3403 0028 FFF7FEFF 		bl	tcp_recved
 3404              	.LVL369:
 951:Middlewares/Third_Party/LwIP/src/apps/mqtt/mqtt.c ****     pbuf_free(p);
 3405              		.loc 1 951 5 view .LVU979
ARM GAS  /tmp/ccVfyJBo.s 			page 95


 951:Middlewares/Third_Party/LwIP/src/apps/mqtt/mqtt.c ****     pbuf_free(p);
 3406              		.loc 1 951 11 is_stmt 0 view .LVU980
 3407 002c 2146     		mov	r1, r4
 3408 002e 3846     		mov	r0, r7
 3409 0030 FFF7FEFF 		bl	mqtt_parse_incoming
 3410              	.LVL370:
 3411 0034 0646     		mov	r6, r0
 3412              	.LVL371:
 952:Middlewares/Third_Party/LwIP/src/apps/mqtt/mqtt.c **** 
 3413              		.loc 1 952 5 is_stmt 1 view .LVU981
 3414 0036 2046     		mov	r0, r4
 3415 0038 FFF7FEFF 		bl	pbuf_free
 3416              	.LVL372:
 954:Middlewares/Third_Party/LwIP/src/apps/mqtt/mqtt.c ****       mqtt_close(client, res);
 3417              		.loc 1 954 5 view .LVU982
 954:Middlewares/Third_Party/LwIP/src/apps/mqtt/mqtt.c ****       mqtt_close(client, res);
 3418              		.loc 1 954 8 is_stmt 0 view .LVU983
 3419 003c C6B9     		cbnz	r6, .L269
 3420              	.L264:
 958:Middlewares/Third_Party/LwIP/src/apps/mqtt/mqtt.c ****       /* Reset server alive watchdog */
 3421              		.loc 1 958 5 is_stmt 1 view .LVU984
 958:Middlewares/Third_Party/LwIP/src/apps/mqtt/mqtt.c ****       /* Reset server alive watchdog */
 3422              		.loc 1 958 15 is_stmt 0 view .LVU985
 3423 003e 7B88     		ldrh	r3, [r7, #2]
 958:Middlewares/Third_Party/LwIP/src/apps/mqtt/mqtt.c ****       /* Reset server alive watchdog */
 3424              		.loc 1 958 8 view .LVU986
 3425 0040 A3B1     		cbz	r3, .L262
 960:Middlewares/Third_Party/LwIP/src/apps/mqtt/mqtt.c ****     }
 3426              		.loc 1 960 7 is_stmt 1 view .LVU987
 960:Middlewares/Third_Party/LwIP/src/apps/mqtt/mqtt.c ****     }
 3427              		.loc 1 960 31 is_stmt 0 view .LVU988
 3428 0042 0023     		movs	r3, #0
 3429 0044 BB80     		strh	r3, [r7, #4]	@ movhi
 3430 0046 11E0     		b	.L262
 3431              	.LVL373:
 3432              	.L266:
 960:Middlewares/Third_Party/LwIP/src/apps/mqtt/mqtt.c ****     }
 3433              		.loc 1 960 31 view .LVU989
 3434              	.LBE16:
 935:Middlewares/Third_Party/LwIP/src/apps/mqtt/mqtt.c ****   LWIP_ASSERT("mqtt_tcp_recv_cb: client->conn == pcb", client->conn == pcb);
 3435              		.loc 1 935 3 is_stmt 1 discriminator 1 view .LVU990
 935:Middlewares/Third_Party/LwIP/src/apps/mqtt/mqtt.c ****   LWIP_ASSERT("mqtt_tcp_recv_cb: client->conn == pcb", client->conn == pcb);
 3436              		.loc 1 935 3 discriminator 1 view .LVU991
 3437 0048 0C4B     		ldr	r3, .L270
 3438              	.LVL374:
 935:Middlewares/Third_Party/LwIP/src/apps/mqtt/mqtt.c ****   LWIP_ASSERT("mqtt_tcp_recv_cb: client->conn == pcb", client->conn == pcb);
 3439              		.loc 1 935 3 is_stmt 0 discriminator 1 view .LVU992
 3440 004a 40F2A732 		movw	r2, #935
 3441              	.LVL375:
 935:Middlewares/Third_Party/LwIP/src/apps/mqtt/mqtt.c ****   LWIP_ASSERT("mqtt_tcp_recv_cb: client->conn == pcb", client->conn == pcb);
 3442              		.loc 1 935 3 discriminator 1 view .LVU993
 3443 004e 0E49     		ldr	r1, .L270+12
 3444              	.LVL376:
 935:Middlewares/Third_Party/LwIP/src/apps/mqtt/mqtt.c ****   LWIP_ASSERT("mqtt_tcp_recv_cb: client->conn == pcb", client->conn == pcb);
 3445              		.loc 1 935 3 discriminator 1 view .LVU994
 3446 0050 0C48     		ldr	r0, .L270+8
 3447              	.LVL377:
ARM GAS  /tmp/ccVfyJBo.s 			page 96


 935:Middlewares/Third_Party/LwIP/src/apps/mqtt/mqtt.c ****   LWIP_ASSERT("mqtt_tcp_recv_cb: client->conn == pcb", client->conn == pcb);
 3448              		.loc 1 935 3 discriminator 1 view .LVU995
 3449 0052 FFF7FEFF 		bl	printf
 3450              	.LVL378:
 3451 0056 D9E7     		b	.L259
 3452              	.L267:
 939:Middlewares/Third_Party/LwIP/src/apps/mqtt/mqtt.c ****     mqtt_close(client, MQTT_CONNECT_DISCONNECTED);
 3453              		.loc 1 939 104 is_stmt 1 view .LVU996
 940:Middlewares/Third_Party/LwIP/src/apps/mqtt/mqtt.c ****   } else {
 3454              		.loc 1 940 5 view .LVU997
 3455 0058 4FF48071 		mov	r1, #256
 3456 005c 3846     		mov	r0, r7
 3457 005e FFF7FEFF 		bl	mqtt_close
 3458              	.LVL379:
 964:Middlewares/Third_Party/LwIP/src/apps/mqtt/mqtt.c **** }
 3459              		.loc 1 964 10 is_stmt 0 view .LVU998
 3460 0062 0025     		movs	r5, #0
 3461 0064 02E0     		b	.L262
 3462              	.L268:
 3463              	.LBB17:
 944:Middlewares/Third_Party/LwIP/src/apps/mqtt/mqtt.c ****       pbuf_free(p);
 3464              		.loc 1 944 77 is_stmt 1 view .LVU999
 945:Middlewares/Third_Party/LwIP/src/apps/mqtt/mqtt.c ****       return err;
 3465              		.loc 1 945 7 view .LVU1000
 3466 0066 2046     		mov	r0, r4
 3467 0068 FFF7FEFF 		bl	pbuf_free
 3468              	.LVL380:
 946:Middlewares/Third_Party/LwIP/src/apps/mqtt/mqtt.c ****     }
 3469              		.loc 1 946 7 view .LVU1001
 3470              	.L262:
 946:Middlewares/Third_Party/LwIP/src/apps/mqtt/mqtt.c ****     }
 3471              		.loc 1 946 7 is_stmt 0 view .LVU1002
 3472              	.LBE17:
 965:Middlewares/Third_Party/LwIP/src/apps/mqtt/mqtt.c **** 
 3473              		.loc 1 965 1 view .LVU1003
 3474 006c 2846     		mov	r0, r5
 3475 006e F8BD     		pop	{r3, r4, r5, r6, r7, pc}
 3476              	.LVL381:
 3477              	.L269:
 3478              	.LBB18:
 955:Middlewares/Third_Party/LwIP/src/apps/mqtt/mqtt.c ****     }
 3479              		.loc 1 955 7 is_stmt 1 view .LVU1004
 3480 0070 3146     		mov	r1, r6
 3481 0072 3846     		mov	r0, r7
 3482 0074 FFF7FEFF 		bl	mqtt_close
 3483              	.LVL382:
 3484 0078 E1E7     		b	.L264
 3485              	.L271:
 3486 007a 00BF     		.align	2
 3487              	.L270:
 3488 007c 00000000 		.word	.LC0
 3489 0080 24000000 		.word	.LC19
 3490 0084 58000000 		.word	.LC2
 3491 0088 00000000 		.word	.LC18
 3492              	.LBE18:
 3493              		.cfi_endproc
 3494              	.LFE192:
ARM GAS  /tmp/ccVfyJBo.s 			page 97


 3496              		.section	.rodata.mqtt_publish.str1.4,"aMS",%progbits,1
 3497              		.align	2
 3498              	.LC20:
 3499 0000 6D717474 		.ascii	"mqtt_publish: client != NULL\000"
 3499      5F707562 
 3499      6C697368 
 3499      3A20636C 
 3499      69656E74 
 3500 001d 000000   		.align	2
 3501              	.LC21:
 3502 0020 6D717474 		.ascii	"mqtt_publish: topic != NULL\000"
 3502      5F707562 
 3502      6C697368 
 3502      3A20746F 
 3502      70696320 
 3503              		.align	2
 3504              	.LC22:
 3505 003c 6D717474 		.ascii	"mqtt_publish: TCP disconnected\000"
 3505      5F707562 
 3505      6C697368 
 3505      3A205443 
 3505      50206469 
 3506 005b 00       		.align	2
 3507              	.LC23:
 3508 005c 6D717474 		.ascii	"mqtt_publish: topic length overflow\000"
 3508      5F707562 
 3508      6C697368 
 3508      3A20746F 
 3508      70696320 
 3509              		.align	2
 3510              	.LC24:
 3511 0080 6D717474 		.ascii	"mqtt_publish: total length overflow\000"
 3511      5F707562 
 3511      6C697368 
 3511      3A20746F 
 3511      74616C20 
 3512              		.section	.text.mqtt_publish,"ax",%progbits
 3513              		.align	1
 3514              		.global	mqtt_publish
 3515              		.syntax unified
 3516              		.thumb
 3517              		.thumb_func
 3519              	mqtt_publish:
 3520              	.LVL383:
 3521              	.LFB197:
1074:Middlewares/Third_Party/LwIP/src/apps/mqtt/mqtt.c **** 
1075:Middlewares/Third_Party/LwIP/src/apps/mqtt/mqtt.c **** 
1076:Middlewares/Third_Party/LwIP/src/apps/mqtt/mqtt.c **** 
1077:Middlewares/Third_Party/LwIP/src/apps/mqtt/mqtt.c **** /*-------------------------------------------------------------------------------------------------
1078:Middlewares/Third_Party/LwIP/src/apps/mqtt/mqtt.c **** /* Public API */
1079:Middlewares/Third_Party/LwIP/src/apps/mqtt/mqtt.c **** 
1080:Middlewares/Third_Party/LwIP/src/apps/mqtt/mqtt.c **** 
1081:Middlewares/Third_Party/LwIP/src/apps/mqtt/mqtt.c **** /**
1082:Middlewares/Third_Party/LwIP/src/apps/mqtt/mqtt.c ****  * @ingroup mqtt
1083:Middlewares/Third_Party/LwIP/src/apps/mqtt/mqtt.c ****  * MQTT publish function.
1084:Middlewares/Third_Party/LwIP/src/apps/mqtt/mqtt.c ****  * @param client MQTT client
1085:Middlewares/Third_Party/LwIP/src/apps/mqtt/mqtt.c ****  * @param topic Publish topic string
ARM GAS  /tmp/ccVfyJBo.s 			page 98


1086:Middlewares/Third_Party/LwIP/src/apps/mqtt/mqtt.c ****  * @param payload Data to publish (NULL is allowed)
1087:Middlewares/Third_Party/LwIP/src/apps/mqtt/mqtt.c ****  * @param payload_length Length of payload (0 is allowed)
1088:Middlewares/Third_Party/LwIP/src/apps/mqtt/mqtt.c ****  * @param qos Quality of service, 0 1 or 2
1089:Middlewares/Third_Party/LwIP/src/apps/mqtt/mqtt.c ****  * @param retain MQTT retain flag
1090:Middlewares/Third_Party/LwIP/src/apps/mqtt/mqtt.c ****  * @param cb Callback to call when publish is complete or has timed out
1091:Middlewares/Third_Party/LwIP/src/apps/mqtt/mqtt.c ****  * @param arg User supplied argument to publish callback
1092:Middlewares/Third_Party/LwIP/src/apps/mqtt/mqtt.c ****  * @return ERR_OK if successful
1093:Middlewares/Third_Party/LwIP/src/apps/mqtt/mqtt.c ****  *         ERR_CONN if client is disconnected
1094:Middlewares/Third_Party/LwIP/src/apps/mqtt/mqtt.c ****  *         ERR_MEM if short on memory
1095:Middlewares/Third_Party/LwIP/src/apps/mqtt/mqtt.c ****  */
1096:Middlewares/Third_Party/LwIP/src/apps/mqtt/mqtt.c **** err_t
1097:Middlewares/Third_Party/LwIP/src/apps/mqtt/mqtt.c **** mqtt_publish(mqtt_client_t *client, const char *topic, const void *payload, u16_t payload_length, u
1098:Middlewares/Third_Party/LwIP/src/apps/mqtt/mqtt.c ****              mqtt_request_cb_t cb, void *arg)
1099:Middlewares/Third_Party/LwIP/src/apps/mqtt/mqtt.c **** {
 3522              		.loc 1 1099 1 view -0
 3523              		.cfi_startproc
 3524              		@ args = 16, pretend = 0, frame = 8
 3525              		@ frame_needed = 0, uses_anonymous_args = 0
 3526              		.loc 1 1099 1 is_stmt 0 view .LVU1006
 3527 0000 2DE9F04F 		push	{r4, r5, r6, r7, r8, r9, r10, fp, lr}
 3528              	.LCFI36:
 3529              		.cfi_def_cfa_offset 36
 3530              		.cfi_offset 4, -36
 3531              		.cfi_offset 5, -32
 3532              		.cfi_offset 6, -28
 3533              		.cfi_offset 7, -24
 3534              		.cfi_offset 8, -20
 3535              		.cfi_offset 9, -16
 3536              		.cfi_offset 10, -12
 3537              		.cfi_offset 11, -8
 3538              		.cfi_offset 14, -4
 3539 0004 85B0     		sub	sp, sp, #20
 3540              	.LCFI37:
 3541              		.cfi_def_cfa_offset 56
 3542 0006 0F46     		mov	r7, r1
 3543 0008 0292     		str	r2, [sp, #8]
 3544 000a 9946     		mov	r9, r3
 3545 000c 9DF838A0 		ldrb	r10, [sp, #56]	@ zero_extendqisi2
1100:Middlewares/Third_Party/LwIP/src/apps/mqtt/mqtt.c ****   struct mqtt_request_t *r;
 3546              		.loc 1 1100 3 is_stmt 1 view .LVU1007
1101:Middlewares/Third_Party/LwIP/src/apps/mqtt/mqtt.c ****   u16_t pkt_id;
 3547              		.loc 1 1101 3 view .LVU1008
1102:Middlewares/Third_Party/LwIP/src/apps/mqtt/mqtt.c ****   size_t topic_strlen;
 3548              		.loc 1 1102 3 view .LVU1009
1103:Middlewares/Third_Party/LwIP/src/apps/mqtt/mqtt.c ****   size_t total_len;
 3549              		.loc 1 1103 3 view .LVU1010
1104:Middlewares/Third_Party/LwIP/src/apps/mqtt/mqtt.c ****   u16_t topic_len;
 3550              		.loc 1 1104 3 view .LVU1011
1105:Middlewares/Third_Party/LwIP/src/apps/mqtt/mqtt.c ****   u16_t remaining_length;
 3551              		.loc 1 1105 3 view .LVU1012
1106:Middlewares/Third_Party/LwIP/src/apps/mqtt/mqtt.c **** 
1107:Middlewares/Third_Party/LwIP/src/apps/mqtt/mqtt.c ****   LWIP_ASSERT_CORE_LOCKED();
 3552              		.loc 1 1107 28 view .LVU1013
1108:Middlewares/Third_Party/LwIP/src/apps/mqtt/mqtt.c ****   LWIP_ASSERT("mqtt_publish: client != NULL", client);
 3553              		.loc 1 1108 3 view .LVU1014
 3554              		.loc 1 1108 3 view .LVU1015
 3555 0010 0646     		mov	r6, r0
ARM GAS  /tmp/ccVfyJBo.s 			page 99


 3556 0012 0028     		cmp	r0, #0
 3557 0014 50D0     		beq	.L286
 3558              	.LVL384:
 3559              	.L273:
 3560              		.loc 1 1108 3 discriminator 3 view .LVU1016
 3561              		.loc 1 1108 3 discriminator 3 view .LVU1017
1109:Middlewares/Third_Party/LwIP/src/apps/mqtt/mqtt.c ****   LWIP_ASSERT("mqtt_publish: topic != NULL", topic);
 3562              		.loc 1 1109 3 discriminator 3 view .LVU1018
 3563              		.loc 1 1109 3 discriminator 3 view .LVU1019
 3564 0016 002F     		cmp	r7, #0
 3565 0018 56D0     		beq	.L287
 3566              	.L274:
 3567              		.loc 1 1109 3 discriminator 3 view .LVU1020
 3568              		.loc 1 1109 3 discriminator 3 view .LVU1021
1110:Middlewares/Third_Party/LwIP/src/apps/mqtt/mqtt.c ****   LWIP_ERROR("mqtt_publish: TCP disconnected", (client->conn_state != TCP_DISCONNECTED), return ERR
 3569              		.loc 1 1110 3 discriminator 3 view .LVU1022
 3570              		.loc 1 1110 3 discriminator 3 view .LVU1023
 3571 001a B37A     		ldrb	r3, [r6, #10]	@ zero_extendqisi2
 3572 001c 002B     		cmp	r3, #0
 3573 001e 5BD0     		beq	.L288
 3574              		.loc 1 1110 3 discriminator 2 view .LVU1024
1111:Middlewares/Third_Party/LwIP/src/apps/mqtt/mqtt.c **** 
1112:Middlewares/Third_Party/LwIP/src/apps/mqtt/mqtt.c ****   topic_strlen = strlen(topic);
 3575              		.loc 1 1112 3 discriminator 2 view .LVU1025
 3576              		.loc 1 1112 18 is_stmt 0 discriminator 2 view .LVU1026
 3577 0020 3846     		mov	r0, r7
 3578 0022 FFF7FEFF 		bl	strlen
 3579              	.LVL385:
1113:Middlewares/Third_Party/LwIP/src/apps/mqtt/mqtt.c ****   LWIP_ERROR("mqtt_publish: topic length overflow", (topic_strlen <= (0xFFFF - 2)), return ERR_ARG)
 3580              		.loc 1 1113 3 is_stmt 1 discriminator 2 view .LVU1027
 3581              		.loc 1 1113 3 discriminator 2 view .LVU1028
 3582 0026 4FF6FD73 		movw	r3, #65533
 3583 002a 9842     		cmp	r0, r3
 3584 002c 5ED8     		bhi	.L289
 3585              		.loc 1 1113 3 discriminator 2 view .LVU1029
1114:Middlewares/Third_Party/LwIP/src/apps/mqtt/mqtt.c ****   topic_len = (u16_t)topic_strlen;
 3586              		.loc 1 1114 3 discriminator 2 view .LVU1030
 3587              		.loc 1 1114 13 is_stmt 0 discriminator 2 view .LVU1031
 3588 002e 85B2     		uxth	r5, r0
 3589              	.LVL386:
1115:Middlewares/Third_Party/LwIP/src/apps/mqtt/mqtt.c ****   total_len = 2 + topic_len + payload_length;
 3590              		.loc 1 1115 3 is_stmt 1 discriminator 2 view .LVU1032
 3591              		.loc 1 1115 17 is_stmt 0 discriminator 2 view .LVU1033
 3592 0030 AC1C     		adds	r4, r5, #2
 3593              		.loc 1 1115 29 discriminator 2 view .LVU1034
 3594 0032 4C44     		add	r4, r4, r9
 3595              	.LVL387:
1116:Middlewares/Third_Party/LwIP/src/apps/mqtt/mqtt.c **** 
1117:Middlewares/Third_Party/LwIP/src/apps/mqtt/mqtt.c ****   if (qos > 0) {
 3596              		.loc 1 1117 3 is_stmt 1 discriminator 2 view .LVU1035
 3597              		.loc 1 1117 6 is_stmt 0 discriminator 2 view .LVU1036
 3598 0034 BAF1000F 		cmp	r10, #0
 3599 0038 62D1     		bne	.L290
1118:Middlewares/Third_Party/LwIP/src/apps/mqtt/mqtt.c ****     total_len += 2;
1119:Middlewares/Third_Party/LwIP/src/apps/mqtt/mqtt.c ****     /* Generate pkt_id id for QoS1 and 2 */
1120:Middlewares/Third_Party/LwIP/src/apps/mqtt/mqtt.c ****     pkt_id = msg_generate_packet_id(client);
1121:Middlewares/Third_Party/LwIP/src/apps/mqtt/mqtt.c ****   } else {
ARM GAS  /tmp/ccVfyJBo.s 			page 100


1122:Middlewares/Third_Party/LwIP/src/apps/mqtt/mqtt.c ****     /* Use reserved value pkt_id 0 for QoS 0 in request handle */
1123:Middlewares/Third_Party/LwIP/src/apps/mqtt/mqtt.c ****     pkt_id = 0;
 3600              		.loc 1 1123 12 view .LVU1037
 3601 003a 4FF0000B 		mov	fp, #0
 3602              	.LVL388:
 3603              	.L278:
1124:Middlewares/Third_Party/LwIP/src/apps/mqtt/mqtt.c ****   }
1125:Middlewares/Third_Party/LwIP/src/apps/mqtt/mqtt.c ****   LWIP_ERROR("mqtt_publish: total length overflow", (total_len <= 0xFFFF), return ERR_ARG);
 3604              		.loc 1 1125 3 is_stmt 1 view .LVU1038
 3605              		.loc 1 1125 3 view .LVU1039
 3606 003e B4F5803F 		cmp	r4, #65536
 3607 0042 63D2     		bcs	.L291
 3608              		.loc 1 1125 3 discriminator 2 view .LVU1040
1126:Middlewares/Third_Party/LwIP/src/apps/mqtt/mqtt.c ****   remaining_length = (u16_t)total_len;
 3609              		.loc 1 1126 3 discriminator 2 view .LVU1041
 3610              		.loc 1 1126 20 is_stmt 0 discriminator 2 view .LVU1042
 3611 0044 A4B2     		uxth	r4, r4
 3612              	.LVL389:
1127:Middlewares/Third_Party/LwIP/src/apps/mqtt/mqtt.c **** 
1128:Middlewares/Third_Party/LwIP/src/apps/mqtt/mqtt.c ****   LWIP_DEBUGF(MQTT_DEBUG_TRACE, ("mqtt_publish: Publish with payload length %d to topic \"%s\"\n", 
 3613              		.loc 1 1128 123 is_stmt 1 discriminator 2 view .LVU1043
1129:Middlewares/Third_Party/LwIP/src/apps/mqtt/mqtt.c **** 
1130:Middlewares/Third_Party/LwIP/src/apps/mqtt/mqtt.c ****   r = mqtt_create_request(client->req_list, LWIP_ARRAYSIZE(client->req_list), pkt_id, cb, arg);
 3614              		.loc 1 1130 3 discriminator 2 view .LVU1044
 3615              		.loc 1 1130 7 is_stmt 0 discriminator 2 view .LVU1045
 3616 0046 119B     		ldr	r3, [sp, #68]
 3617 0048 0093     		str	r3, [sp]
 3618 004a 109B     		ldr	r3, [sp, #64]
 3619 004c 5A46     		mov	r2, fp
 3620 004e 0421     		movs	r1, #4
 3621 0050 06F11C00 		add	r0, r6, #28
 3622 0054 FFF7FEFF 		bl	mqtt_create_request
 3623              	.LVL390:
1131:Middlewares/Third_Party/LwIP/src/apps/mqtt/mqtt.c ****   if (r == NULL) {
 3624              		.loc 1 1131 3 is_stmt 1 discriminator 2 view .LVU1046
 3625              		.loc 1 1131 6 is_stmt 0 discriminator 2 view .LVU1047
 3626 0058 0390     		str	r0, [sp, #12]
 3627 005a 0028     		cmp	r0, #0
 3628 005c 71D0     		beq	.L284
1132:Middlewares/Third_Party/LwIP/src/apps/mqtt/mqtt.c ****     return ERR_MEM;
1133:Middlewares/Third_Party/LwIP/src/apps/mqtt/mqtt.c ****   }
1134:Middlewares/Third_Party/LwIP/src/apps/mqtt/mqtt.c **** 
1135:Middlewares/Third_Party/LwIP/src/apps/mqtt/mqtt.c ****   if (mqtt_output_check_space(&client->output, remaining_length) == 0) {
 3629              		.loc 1 1135 3 is_stmt 1 view .LVU1048
 3630              		.loc 1 1135 7 is_stmt 0 view .LVU1049
 3631 005e 06F1EC08 		add	r8, r6, #236
 3632 0062 2146     		mov	r1, r4
 3633 0064 4046     		mov	r0, r8
 3634              	.LVL391:
 3635              		.loc 1 1135 7 view .LVU1050
 3636 0066 FFF7FEFF 		bl	mqtt_output_check_space
 3637              	.LVL392:
 3638              		.loc 1 1135 6 view .LVU1051
 3639 006a 0028     		cmp	r0, #0
 3640 006c 58D0     		beq	.L292
1136:Middlewares/Third_Party/LwIP/src/apps/mqtt/mqtt.c ****     mqtt_delete_request(r);
1137:Middlewares/Third_Party/LwIP/src/apps/mqtt/mqtt.c ****     return ERR_MEM;
ARM GAS  /tmp/ccVfyJBo.s 			page 101


1138:Middlewares/Third_Party/LwIP/src/apps/mqtt/mqtt.c ****   }
1139:Middlewares/Third_Party/LwIP/src/apps/mqtt/mqtt.c ****   /* Append fixed header */
1140:Middlewares/Third_Party/LwIP/src/apps/mqtt/mqtt.c ****   mqtt_output_append_fixed_header(&client->output, MQTT_MSG_TYPE_PUBLISH, 0, qos, retain, remaining
 3641              		.loc 1 1140 3 is_stmt 1 view .LVU1052
 3642 006e 0194     		str	r4, [sp, #4]
 3643 0070 9DF83C30 		ldrb	r3, [sp, #60]	@ zero_extendqisi2
 3644 0074 0093     		str	r3, [sp]
 3645 0076 5346     		mov	r3, r10
 3646 0078 0022     		movs	r2, #0
 3647 007a 0321     		movs	r1, #3
 3648 007c 4046     		mov	r0, r8
 3649 007e FFF7FEFF 		bl	mqtt_output_append_fixed_header
 3650              	.LVL393:
1141:Middlewares/Third_Party/LwIP/src/apps/mqtt/mqtt.c **** 
1142:Middlewares/Third_Party/LwIP/src/apps/mqtt/mqtt.c ****   /* Append Topic */
1143:Middlewares/Third_Party/LwIP/src/apps/mqtt/mqtt.c ****   mqtt_output_append_string(&client->output, topic, topic_len);
 3651              		.loc 1 1143 3 view .LVU1053
 3652 0082 2A46     		mov	r2, r5
 3653 0084 3946     		mov	r1, r7
 3654 0086 4046     		mov	r0, r8
 3655 0088 FFF7FEFF 		bl	mqtt_output_append_string
 3656              	.LVL394:
1144:Middlewares/Third_Party/LwIP/src/apps/mqtt/mqtt.c **** 
1145:Middlewares/Third_Party/LwIP/src/apps/mqtt/mqtt.c ****   /* Append packet if for QoS 1 and 2*/
1146:Middlewares/Third_Party/LwIP/src/apps/mqtt/mqtt.c ****   if (qos > 0) {
 3657              		.loc 1 1146 3 view .LVU1054
 3658              		.loc 1 1146 6 is_stmt 0 view .LVU1055
 3659 008c BAF1000F 		cmp	r10, #0
 3660 0090 4CD1     		bne	.L293
 3661              	.L281:
1147:Middlewares/Third_Party/LwIP/src/apps/mqtt/mqtt.c ****     mqtt_output_append_u16(&client->output, pkt_id);
1148:Middlewares/Third_Party/LwIP/src/apps/mqtt/mqtt.c ****   }
1149:Middlewares/Third_Party/LwIP/src/apps/mqtt/mqtt.c **** 
1150:Middlewares/Third_Party/LwIP/src/apps/mqtt/mqtt.c ****   /* Append optional publish payload */
1151:Middlewares/Third_Party/LwIP/src/apps/mqtt/mqtt.c ****   if ((payload != NULL) && (payload_length > 0)) {
 3662              		.loc 1 1151 3 is_stmt 1 view .LVU1056
 3663              		.loc 1 1151 6 is_stmt 0 view .LVU1057
 3664 0092 029B     		ldr	r3, [sp, #8]
 3665 0094 002B     		cmp	r3, #0
 3666 0096 18BF     		it	ne
 3667 0098 B9F1000F 		cmpne	r9, #0
 3668 009c 4BD1     		bne	.L294
 3669              	.L282:
1152:Middlewares/Third_Party/LwIP/src/apps/mqtt/mqtt.c ****     mqtt_output_append_buf(&client->output, payload, payload_length);
1153:Middlewares/Third_Party/LwIP/src/apps/mqtt/mqtt.c ****   }
1154:Middlewares/Third_Party/LwIP/src/apps/mqtt/mqtt.c **** 
1155:Middlewares/Third_Party/LwIP/src/apps/mqtt/mqtt.c ****   mqtt_append_request(&client->pend_req_queue, r);
 3670              		.loc 1 1155 3 is_stmt 1 view .LVU1058
 3671 009e 0399     		ldr	r1, [sp, #12]
 3672 00a0 06F11800 		add	r0, r6, #24
 3673 00a4 FFF7FEFF 		bl	mqtt_append_request
 3674              	.LVL395:
1156:Middlewares/Third_Party/LwIP/src/apps/mqtt/mqtt.c ****   mqtt_output_send(&client->output, client->conn);
 3675              		.loc 1 1156 3 view .LVU1059
 3676 00a8 F168     		ldr	r1, [r6, #12]
 3677 00aa 4046     		mov	r0, r8
 3678 00ac FFF7FEFF 		bl	mqtt_output_send
ARM GAS  /tmp/ccVfyJBo.s 			page 102


 3679              	.LVL396:
1157:Middlewares/Third_Party/LwIP/src/apps/mqtt/mqtt.c ****   return ERR_OK;
 3680              		.loc 1 1157 3 view .LVU1060
 3681              		.loc 1 1157 10 is_stmt 0 view .LVU1061
 3682 00b0 0020     		movs	r0, #0
 3683              	.LVL397:
 3684              	.L276:
1158:Middlewares/Third_Party/LwIP/src/apps/mqtt/mqtt.c **** }
 3685              		.loc 1 1158 1 view .LVU1062
 3686 00b2 05B0     		add	sp, sp, #20
 3687              	.LCFI38:
 3688              		.cfi_remember_state
 3689              		.cfi_def_cfa_offset 36
 3690              		@ sp needed
 3691 00b4 BDE8F08F 		pop	{r4, r5, r6, r7, r8, r9, r10, fp, pc}
 3692              	.LVL398:
 3693              	.L286:
 3694              	.LCFI39:
 3695              		.cfi_restore_state
1108:Middlewares/Third_Party/LwIP/src/apps/mqtt/mqtt.c ****   LWIP_ASSERT("mqtt_publish: topic != NULL", topic);
 3696              		.loc 1 1108 3 is_stmt 1 discriminator 1 view .LVU1063
1108:Middlewares/Third_Party/LwIP/src/apps/mqtt/mqtt.c ****   LWIP_ASSERT("mqtt_publish: topic != NULL", topic);
 3697              		.loc 1 1108 3 discriminator 1 view .LVU1064
 3698 00b8 234B     		ldr	r3, .L295
 3699              	.LVL399:
1108:Middlewares/Third_Party/LwIP/src/apps/mqtt/mqtt.c ****   LWIP_ASSERT("mqtt_publish: topic != NULL", topic);
 3700              		.loc 1 1108 3 is_stmt 0 discriminator 1 view .LVU1065
 3701 00ba 40F25442 		movw	r2, #1108
 3702              	.LVL400:
1108:Middlewares/Third_Party/LwIP/src/apps/mqtt/mqtt.c ****   LWIP_ASSERT("mqtt_publish: topic != NULL", topic);
 3703              		.loc 1 1108 3 discriminator 1 view .LVU1066
 3704 00be 2349     		ldr	r1, .L295+4
 3705              	.LVL401:
1108:Middlewares/Third_Party/LwIP/src/apps/mqtt/mqtt.c ****   LWIP_ASSERT("mqtt_publish: topic != NULL", topic);
 3706              		.loc 1 1108 3 discriminator 1 view .LVU1067
 3707 00c0 2348     		ldr	r0, .L295+8
 3708              	.LVL402:
1108:Middlewares/Third_Party/LwIP/src/apps/mqtt/mqtt.c ****   LWIP_ASSERT("mqtt_publish: topic != NULL", topic);
 3709              		.loc 1 1108 3 discriminator 1 view .LVU1068
 3710 00c2 FFF7FEFF 		bl	printf
 3711              	.LVL403:
 3712 00c6 A6E7     		b	.L273
 3713              	.L287:
1109:Middlewares/Third_Party/LwIP/src/apps/mqtt/mqtt.c ****   LWIP_ERROR("mqtt_publish: TCP disconnected", (client->conn_state != TCP_DISCONNECTED), return ERR
 3714              		.loc 1 1109 3 is_stmt 1 discriminator 1 view .LVU1069
1109:Middlewares/Third_Party/LwIP/src/apps/mqtt/mqtt.c ****   LWIP_ERROR("mqtt_publish: TCP disconnected", (client->conn_state != TCP_DISCONNECTED), return ERR
 3715              		.loc 1 1109 3 discriminator 1 view .LVU1070
 3716 00c8 1F4B     		ldr	r3, .L295
 3717 00ca 40F25542 		movw	r2, #1109
 3718 00ce 2149     		ldr	r1, .L295+12
 3719 00d0 1F48     		ldr	r0, .L295+8
 3720 00d2 FFF7FEFF 		bl	printf
 3721              	.LVL404:
 3722 00d6 A0E7     		b	.L274
 3723              	.L288:
1110:Middlewares/Third_Party/LwIP/src/apps/mqtt/mqtt.c **** 
 3724              		.loc 1 1110 3 discriminator 1 view .LVU1071
ARM GAS  /tmp/ccVfyJBo.s 			page 103


1110:Middlewares/Third_Party/LwIP/src/apps/mqtt/mqtt.c **** 
 3725              		.loc 1 1110 3 discriminator 1 view .LVU1072
 3726 00d8 1B4B     		ldr	r3, .L295
 3727 00da 40F25642 		movw	r2, #1110
 3728 00de 1E49     		ldr	r1, .L295+16
 3729 00e0 1B48     		ldr	r0, .L295+8
 3730 00e2 FFF7FEFF 		bl	printf
 3731              	.LVL405:
1110:Middlewares/Third_Party/LwIP/src/apps/mqtt/mqtt.c **** 
 3732              		.loc 1 1110 3 discriminator 1 view .LVU1073
1110:Middlewares/Third_Party/LwIP/src/apps/mqtt/mqtt.c **** 
 3733              		.loc 1 1110 3 discriminator 1 view .LVU1074
 3734 00e6 6FF00A00 		mvn	r0, #10
 3735 00ea E2E7     		b	.L276
 3736              	.LVL406:
 3737              	.L289:
1113:Middlewares/Third_Party/LwIP/src/apps/mqtt/mqtt.c ****   topic_len = (u16_t)topic_strlen;
 3738              		.loc 1 1113 3 discriminator 1 view .LVU1075
1113:Middlewares/Third_Party/LwIP/src/apps/mqtt/mqtt.c ****   topic_len = (u16_t)topic_strlen;
 3739              		.loc 1 1113 3 discriminator 1 view .LVU1076
 3740 00ec 164B     		ldr	r3, .L295
 3741 00ee 40F25942 		movw	r2, #1113
 3742 00f2 1A49     		ldr	r1, .L295+20
 3743 00f4 1648     		ldr	r0, .L295+8
 3744              	.LVL407:
1113:Middlewares/Third_Party/LwIP/src/apps/mqtt/mqtt.c ****   topic_len = (u16_t)topic_strlen;
 3745              		.loc 1 1113 3 is_stmt 0 discriminator 1 view .LVU1077
 3746 00f6 FFF7FEFF 		bl	printf
 3747              	.LVL408:
1113:Middlewares/Third_Party/LwIP/src/apps/mqtt/mqtt.c ****   topic_len = (u16_t)topic_strlen;
 3748              		.loc 1 1113 3 is_stmt 1 discriminator 1 view .LVU1078
1113:Middlewares/Third_Party/LwIP/src/apps/mqtt/mqtt.c ****   topic_len = (u16_t)topic_strlen;
 3749              		.loc 1 1113 3 discriminator 1 view .LVU1079
 3750 00fa 6FF00F00 		mvn	r0, #15
 3751 00fe D8E7     		b	.L276
 3752              	.LVL409:
 3753              	.L290:
1118:Middlewares/Third_Party/LwIP/src/apps/mqtt/mqtt.c ****     /* Generate pkt_id id for QoS1 and 2 */
 3754              		.loc 1 1118 5 view .LVU1080
1118:Middlewares/Third_Party/LwIP/src/apps/mqtt/mqtt.c ****     /* Generate pkt_id id for QoS1 and 2 */
 3755              		.loc 1 1118 15 is_stmt 0 view .LVU1081
 3756 0100 0234     		adds	r4, r4, #2
 3757              	.LVL410:
1120:Middlewares/Third_Party/LwIP/src/apps/mqtt/mqtt.c ****   } else {
 3758              		.loc 1 1120 5 is_stmt 1 view .LVU1082
1120:Middlewares/Third_Party/LwIP/src/apps/mqtt/mqtt.c ****   } else {
 3759              		.loc 1 1120 14 is_stmt 0 view .LVU1083
 3760 0102 3046     		mov	r0, r6
 3761              	.LVL411:
1120:Middlewares/Third_Party/LwIP/src/apps/mqtt/mqtt.c ****   } else {
 3762              		.loc 1 1120 14 view .LVU1084
 3763 0104 FFF7FEFF 		bl	msg_generate_packet_id
 3764              	.LVL412:
 3765 0108 8346     		mov	fp, r0
 3766              	.LVL413:
1120:Middlewares/Third_Party/LwIP/src/apps/mqtt/mqtt.c ****   } else {
 3767              		.loc 1 1120 14 view .LVU1085
ARM GAS  /tmp/ccVfyJBo.s 			page 104


 3768 010a 98E7     		b	.L278
 3769              	.L291:
1125:Middlewares/Third_Party/LwIP/src/apps/mqtt/mqtt.c ****   remaining_length = (u16_t)total_len;
 3770              		.loc 1 1125 3 is_stmt 1 discriminator 1 view .LVU1086
1125:Middlewares/Third_Party/LwIP/src/apps/mqtt/mqtt.c ****   remaining_length = (u16_t)total_len;
 3771              		.loc 1 1125 3 discriminator 1 view .LVU1087
 3772 010c 0E4B     		ldr	r3, .L295
 3773 010e 40F26542 		movw	r2, #1125
 3774 0112 1349     		ldr	r1, .L295+24
 3775 0114 0E48     		ldr	r0, .L295+8
 3776 0116 FFF7FEFF 		bl	printf
 3777              	.LVL414:
1125:Middlewares/Third_Party/LwIP/src/apps/mqtt/mqtt.c ****   remaining_length = (u16_t)total_len;
 3778              		.loc 1 1125 3 discriminator 1 view .LVU1088
1125:Middlewares/Third_Party/LwIP/src/apps/mqtt/mqtt.c ****   remaining_length = (u16_t)total_len;
 3779              		.loc 1 1125 3 discriminator 1 view .LVU1089
 3780 011a 6FF00F00 		mvn	r0, #15
 3781 011e C8E7     		b	.L276
 3782              	.LVL415:
 3783              	.L292:
1136:Middlewares/Third_Party/LwIP/src/apps/mqtt/mqtt.c ****     return ERR_MEM;
 3784              		.loc 1 1136 5 view .LVU1090
 3785 0120 0398     		ldr	r0, [sp, #12]
 3786 0122 FFF7FEFF 		bl	mqtt_delete_request
 3787              	.LVL416:
1137:Middlewares/Third_Party/LwIP/src/apps/mqtt/mqtt.c ****   }
 3788              		.loc 1 1137 5 view .LVU1091
1137:Middlewares/Third_Party/LwIP/src/apps/mqtt/mqtt.c ****   }
 3789              		.loc 1 1137 12 is_stmt 0 view .LVU1092
 3790 0126 4FF0FF30 		mov	r0, #-1
 3791 012a C2E7     		b	.L276
 3792              	.L293:
1147:Middlewares/Third_Party/LwIP/src/apps/mqtt/mqtt.c ****   }
 3793              		.loc 1 1147 5 is_stmt 1 view .LVU1093
 3794 012c 5946     		mov	r1, fp
 3795 012e 4046     		mov	r0, r8
 3796 0130 FFF7FEFF 		bl	mqtt_output_append_u16
 3797              	.LVL417:
 3798 0134 ADE7     		b	.L281
 3799              	.L294:
1152:Middlewares/Third_Party/LwIP/src/apps/mqtt/mqtt.c ****   }
 3800              		.loc 1 1152 5 view .LVU1094
 3801 0136 4A46     		mov	r2, r9
 3802 0138 1946     		mov	r1, r3
 3803 013a 4046     		mov	r0, r8
 3804 013c FFF7FEFF 		bl	mqtt_output_append_buf
 3805              	.LVL418:
 3806 0140 ADE7     		b	.L282
 3807              	.LVL419:
 3808              	.L284:
1132:Middlewares/Third_Party/LwIP/src/apps/mqtt/mqtt.c ****   }
 3809              		.loc 1 1132 12 is_stmt 0 view .LVU1095
 3810 0142 4FF0FF30 		mov	r0, #-1
 3811              	.LVL420:
1132:Middlewares/Third_Party/LwIP/src/apps/mqtt/mqtt.c ****   }
 3812              		.loc 1 1132 12 view .LVU1096
 3813 0146 B4E7     		b	.L276
ARM GAS  /tmp/ccVfyJBo.s 			page 105


 3814              	.L296:
 3815              		.align	2
 3816              	.L295:
 3817 0148 00000000 		.word	.LC0
 3818 014c 00000000 		.word	.LC20
 3819 0150 58000000 		.word	.LC2
 3820 0154 20000000 		.word	.LC21
 3821 0158 3C000000 		.word	.LC22
 3822 015c 5C000000 		.word	.LC23
 3823 0160 80000000 		.word	.LC24
 3824              		.cfi_endproc
 3825              	.LFE197:
 3827              		.section	.rodata.mqtt_sub_unsub.str1.4,"aMS",%progbits,1
 3828              		.align	2
 3829              	.LC25:
 3830 0000 6D717474 		.ascii	"mqtt_sub_unsub: client != NULL\000"
 3830      5F737562 
 3830      5F756E73 
 3830      75623A20 
 3830      636C6965 
 3831 001f 00       		.align	2
 3832              	.LC26:
 3833 0020 6D717474 		.ascii	"mqtt_sub_unsub: topic != NULL\000"
 3833      5F737562 
 3833      5F756E73 
 3833      75623A20 
 3833      746F7069 
 3834 003e 0000     		.align	2
 3835              	.LC27:
 3836 0040 6D717474 		.ascii	"mqtt_sub_unsub: topic length overflow\000"
 3836      5F737562 
 3836      5F756E73 
 3836      75623A20 
 3836      746F7069 
 3837 0066 0000     		.align	2
 3838              	.LC28:
 3839 0068 6D717474 		.ascii	"mqtt_sub_unsub: total length overflow\000"
 3839      5F737562 
 3839      5F756E73 
 3839      75623A20 
 3839      746F7461 
 3840 008e 0000     		.align	2
 3841              	.LC29:
 3842 0090 6D717474 		.ascii	"mqtt_sub_unsub: qos < 3\000"
 3842      5F737562 
 3842      5F756E73 
 3842      75623A20 
 3842      716F7320 
 3843              		.section	.text.mqtt_sub_unsub,"ax",%progbits
 3844              		.align	1
 3845              		.global	mqtt_sub_unsub
 3846              		.syntax unified
 3847              		.thumb
 3848              		.thumb_func
 3850              	mqtt_sub_unsub:
 3851              	.LVL421:
 3852              	.LFB198:
ARM GAS  /tmp/ccVfyJBo.s 			page 106


1159:Middlewares/Third_Party/LwIP/src/apps/mqtt/mqtt.c **** 
1160:Middlewares/Third_Party/LwIP/src/apps/mqtt/mqtt.c **** 
1161:Middlewares/Third_Party/LwIP/src/apps/mqtt/mqtt.c **** /**
1162:Middlewares/Third_Party/LwIP/src/apps/mqtt/mqtt.c ****  * @ingroup mqtt
1163:Middlewares/Third_Party/LwIP/src/apps/mqtt/mqtt.c ****  * MQTT subscribe/unsubscribe function.
1164:Middlewares/Third_Party/LwIP/src/apps/mqtt/mqtt.c ****  * @param client MQTT client
1165:Middlewares/Third_Party/LwIP/src/apps/mqtt/mqtt.c ****  * @param topic topic to subscribe to
1166:Middlewares/Third_Party/LwIP/src/apps/mqtt/mqtt.c ****  * @param qos Quality of service, 0 1 or 2 (only used for subscribe)
1167:Middlewares/Third_Party/LwIP/src/apps/mqtt/mqtt.c ****  * @param cb Callback to call when subscribe/unsubscribe reponse is received
1168:Middlewares/Third_Party/LwIP/src/apps/mqtt/mqtt.c ****  * @param arg User supplied argument to publish callback
1169:Middlewares/Third_Party/LwIP/src/apps/mqtt/mqtt.c ****  * @param sub 1 for subscribe, 0 for unsubscribe
1170:Middlewares/Third_Party/LwIP/src/apps/mqtt/mqtt.c ****  * @return ERR_OK if successful, @see err_t enum for other results
1171:Middlewares/Third_Party/LwIP/src/apps/mqtt/mqtt.c ****  */
1172:Middlewares/Third_Party/LwIP/src/apps/mqtt/mqtt.c **** err_t
1173:Middlewares/Third_Party/LwIP/src/apps/mqtt/mqtt.c **** mqtt_sub_unsub(mqtt_client_t *client, const char *topic, u8_t qos, mqtt_request_cb_t cb, void *arg,
1174:Middlewares/Third_Party/LwIP/src/apps/mqtt/mqtt.c **** {
 3853              		.loc 1 1174 1 is_stmt 1 view -0
 3854              		.cfi_startproc
 3855              		@ args = 8, pretend = 0, frame = 8
 3856              		@ frame_needed = 0, uses_anonymous_args = 0
 3857              		.loc 1 1174 1 is_stmt 0 view .LVU1098
 3858 0000 2DE9F04F 		push	{r4, r5, r6, r7, r8, r9, r10, fp, lr}
 3859              	.LCFI40:
 3860              		.cfi_def_cfa_offset 36
 3861              		.cfi_offset 4, -36
 3862              		.cfi_offset 5, -32
 3863              		.cfi_offset 6, -28
 3864              		.cfi_offset 7, -24
 3865              		.cfi_offset 8, -20
 3866              		.cfi_offset 9, -16
 3867              		.cfi_offset 10, -12
 3868              		.cfi_offset 11, -8
 3869              		.cfi_offset 14, -4
 3870 0004 85B0     		sub	sp, sp, #20
 3871              	.LCFI41:
 3872              		.cfi_def_cfa_offset 56
 3873 0006 8846     		mov	r8, r1
 3874 0008 9246     		mov	r10, r2
 3875 000a 1F46     		mov	r7, r3
 3876 000c 9DF83CB0 		ldrb	fp, [sp, #60]	@ zero_extendqisi2
1175:Middlewares/Third_Party/LwIP/src/apps/mqtt/mqtt.c ****   size_t topic_strlen;
 3877              		.loc 1 1175 3 is_stmt 1 view .LVU1099
1176:Middlewares/Third_Party/LwIP/src/apps/mqtt/mqtt.c ****   size_t total_len;
 3878              		.loc 1 1176 3 view .LVU1100
1177:Middlewares/Third_Party/LwIP/src/apps/mqtt/mqtt.c ****   u16_t topic_len;
 3879              		.loc 1 1177 3 view .LVU1101
1178:Middlewares/Third_Party/LwIP/src/apps/mqtt/mqtt.c ****   u16_t remaining_length;
 3880              		.loc 1 1178 3 view .LVU1102
1179:Middlewares/Third_Party/LwIP/src/apps/mqtt/mqtt.c ****   u16_t pkt_id;
 3881              		.loc 1 1179 3 view .LVU1103
1180:Middlewares/Third_Party/LwIP/src/apps/mqtt/mqtt.c ****   struct mqtt_request_t *r;
 3882              		.loc 1 1180 3 view .LVU1104
1181:Middlewares/Third_Party/LwIP/src/apps/mqtt/mqtt.c **** 
1182:Middlewares/Third_Party/LwIP/src/apps/mqtt/mqtt.c ****   LWIP_ASSERT_CORE_LOCKED();
 3883              		.loc 1 1182 28 view .LVU1105
1183:Middlewares/Third_Party/LwIP/src/apps/mqtt/mqtt.c ****   LWIP_ASSERT("mqtt_sub_unsub: client != NULL", client);
 3884              		.loc 1 1183 3 view .LVU1106
ARM GAS  /tmp/ccVfyJBo.s 			page 107


 3885              		.loc 1 1183 3 view .LVU1107
 3886 0010 0646     		mov	r6, r0
 3887 0012 0028     		cmp	r0, #0
 3888 0014 55D0     		beq	.L311
 3889              	.LVL422:
 3890              	.L298:
 3891              		.loc 1 1183 3 discriminator 3 view .LVU1108
 3892              		.loc 1 1183 3 discriminator 3 view .LVU1109
1184:Middlewares/Third_Party/LwIP/src/apps/mqtt/mqtt.c ****   LWIP_ASSERT("mqtt_sub_unsub: topic != NULL", topic);
 3893              		.loc 1 1184 3 discriminator 3 view .LVU1110
 3894              		.loc 1 1184 3 discriminator 3 view .LVU1111
 3895 0016 B8F1000F 		cmp	r8, #0
 3896 001a 5AD0     		beq	.L312
 3897              	.L299:
 3898              		.loc 1 1184 3 discriminator 3 view .LVU1112
 3899              		.loc 1 1184 3 discriminator 3 view .LVU1113
1185:Middlewares/Third_Party/LwIP/src/apps/mqtt/mqtt.c **** 
1186:Middlewares/Third_Party/LwIP/src/apps/mqtt/mqtt.c ****   topic_strlen = strlen(topic);
 3900              		.loc 1 1186 3 discriminator 3 view .LVU1114
 3901              		.loc 1 1186 18 is_stmt 0 discriminator 3 view .LVU1115
 3902 001c 4046     		mov	r0, r8
 3903 001e FFF7FEFF 		bl	strlen
 3904              	.LVL423:
1187:Middlewares/Third_Party/LwIP/src/apps/mqtt/mqtt.c ****   LWIP_ERROR("mqtt_sub_unsub: topic length overflow", (topic_strlen <= (0xFFFF - 2)), return ERR_AR
 3905              		.loc 1 1187 3 is_stmt 1 discriminator 3 view .LVU1116
 3906              		.loc 1 1187 3 discriminator 3 view .LVU1117
 3907 0022 4FF6FD73 		movw	r3, #65533
 3908 0026 9842     		cmp	r0, r3
 3909 0028 5BD8     		bhi	.L313
 3910              		.loc 1 1187 3 discriminator 2 view .LVU1118
1188:Middlewares/Third_Party/LwIP/src/apps/mqtt/mqtt.c ****   topic_len = (u16_t)topic_strlen;
 3911              		.loc 1 1188 3 discriminator 2 view .LVU1119
 3912              		.loc 1 1188 13 is_stmt 0 discriminator 2 view .LVU1120
 3913 002a 84B2     		uxth	r4, r0
 3914              	.LVL424:
1189:Middlewares/Third_Party/LwIP/src/apps/mqtt/mqtt.c ****   /* Topic string, pkt_id, qos for subscribe */
1190:Middlewares/Third_Party/LwIP/src/apps/mqtt/mqtt.c ****   total_len =  topic_len + 2 + 2 + (sub != 0);
 3915              		.loc 1 1190 3 is_stmt 1 discriminator 2 view .LVU1121
 3916              		.loc 1 1190 30 is_stmt 0 discriminator 2 view .LVU1122
 3917 002c 251D     		adds	r5, r4, #4
 3918              		.loc 1 1190 34 discriminator 2 view .LVU1123
 3919 002e BBF1000F 		cmp	fp, #0
 3920 0032 18BF     		it	ne
 3921 0034 0135     		addne	r5, r5, #1
 3922              	.LVL425:
1191:Middlewares/Third_Party/LwIP/src/apps/mqtt/mqtt.c ****   LWIP_ERROR("mqtt_sub_unsub: total length overflow", (total_len <= 0xFFFF), return ERR_ARG);
 3923              		.loc 1 1191 3 is_stmt 1 discriminator 2 view .LVU1124
 3924              		.loc 1 1191 3 discriminator 2 view .LVU1125
 3925 0036 B5F5803F 		cmp	r5, #65536
 3926 003a 5CD2     		bcs	.L314
 3927              		.loc 1 1191 3 discriminator 2 view .LVU1126
1192:Middlewares/Third_Party/LwIP/src/apps/mqtt/mqtt.c ****   remaining_length = (u16_t)total_len;
 3928              		.loc 1 1192 3 discriminator 2 view .LVU1127
 3929              		.loc 1 1192 20 is_stmt 0 discriminator 2 view .LVU1128
 3930 003c ADB2     		uxth	r5, r5
 3931              	.LVL426:
1193:Middlewares/Third_Party/LwIP/src/apps/mqtt/mqtt.c **** 
ARM GAS  /tmp/ccVfyJBo.s 			page 108


1194:Middlewares/Third_Party/LwIP/src/apps/mqtt/mqtt.c ****   LWIP_ASSERT("mqtt_sub_unsub: qos < 3", qos < 3);
 3932              		.loc 1 1194 3 is_stmt 1 discriminator 2 view .LVU1129
 3933              		.loc 1 1194 3 discriminator 2 view .LVU1130
 3934 003e BAF1020F 		cmp	r10, #2
 3935 0042 62D8     		bhi	.L315
 3936              	.LVL427:
 3937              	.L303:
 3938              		.loc 1 1194 3 discriminator 3 view .LVU1131
 3939              		.loc 1 1194 3 discriminator 3 view .LVU1132
1195:Middlewares/Third_Party/LwIP/src/apps/mqtt/mqtt.c ****   if (client->conn_state == TCP_DISCONNECTED) {
 3940              		.loc 1 1195 3 discriminator 3 view .LVU1133
 3941              		.loc 1 1195 13 is_stmt 0 discriminator 3 view .LVU1134
 3942 0044 B37A     		ldrb	r3, [r6, #10]	@ zero_extendqisi2
 3943              		.loc 1 1195 6 discriminator 3 view .LVU1135
 3944 0046 002B     		cmp	r3, #0
 3945 0048 77D0     		beq	.L307
1196:Middlewares/Third_Party/LwIP/src/apps/mqtt/mqtt.c ****     LWIP_DEBUGF(MQTT_DEBUG_WARN, ("mqtt_sub_unsub: Can not (un)subscribe in disconnected state\n"))
1197:Middlewares/Third_Party/LwIP/src/apps/mqtt/mqtt.c ****     return ERR_CONN;
1198:Middlewares/Third_Party/LwIP/src/apps/mqtt/mqtt.c ****   }
1199:Middlewares/Third_Party/LwIP/src/apps/mqtt/mqtt.c **** 
1200:Middlewares/Third_Party/LwIP/src/apps/mqtt/mqtt.c ****   pkt_id = msg_generate_packet_id(client);
 3946              		.loc 1 1200 3 is_stmt 1 view .LVU1136
 3947              		.loc 1 1200 12 is_stmt 0 view .LVU1137
 3948 004a 3046     		mov	r0, r6
 3949 004c FFF7FEFF 		bl	msg_generate_packet_id
 3950              	.LVL428:
 3951 0050 8146     		mov	r9, r0
 3952              	.LVL429:
1201:Middlewares/Third_Party/LwIP/src/apps/mqtt/mqtt.c ****   r = mqtt_create_request(client->req_list, LWIP_ARRAYSIZE(client->req_list), pkt_id, cb, arg);
 3953              		.loc 1 1201 3 is_stmt 1 view .LVU1138
 3954              		.loc 1 1201 7 is_stmt 0 view .LVU1139
 3955 0052 0E9B     		ldr	r3, [sp, #56]
 3956 0054 0093     		str	r3, [sp]
 3957 0056 3B46     		mov	r3, r7
 3958 0058 0246     		mov	r2, r0
 3959 005a 0421     		movs	r1, #4
 3960 005c 06F11C00 		add	r0, r6, #28
 3961              	.LVL430:
 3962              		.loc 1 1201 7 view .LVU1140
 3963 0060 FFF7FEFF 		bl	mqtt_create_request
 3964              	.LVL431:
1202:Middlewares/Third_Party/LwIP/src/apps/mqtt/mqtt.c ****   if (r == NULL) {
 3965              		.loc 1 1202 3 is_stmt 1 view .LVU1141
 3966              		.loc 1 1202 6 is_stmt 0 view .LVU1142
 3967 0064 0390     		str	r0, [sp, #12]
 3968 0066 0028     		cmp	r0, #0
 3969 0068 6AD0     		beq	.L308
1203:Middlewares/Third_Party/LwIP/src/apps/mqtt/mqtt.c ****     return ERR_MEM;
1204:Middlewares/Third_Party/LwIP/src/apps/mqtt/mqtt.c ****   }
1205:Middlewares/Third_Party/LwIP/src/apps/mqtt/mqtt.c **** 
1206:Middlewares/Third_Party/LwIP/src/apps/mqtt/mqtt.c ****   if (mqtt_output_check_space(&client->output, remaining_length) == 0) {
 3970              		.loc 1 1206 3 is_stmt 1 view .LVU1143
 3971              		.loc 1 1206 7 is_stmt 0 view .LVU1144
 3972 006a 06F1EC07 		add	r7, r6, #236
 3973              	.LVL432:
 3974              		.loc 1 1206 7 view .LVU1145
 3975 006e 2946     		mov	r1, r5
ARM GAS  /tmp/ccVfyJBo.s 			page 109


 3976 0070 3846     		mov	r0, r7
 3977              	.LVL433:
 3978              		.loc 1 1206 7 view .LVU1146
 3979 0072 FFF7FEFF 		bl	mqtt_output_check_space
 3980              	.LVL434:
 3981              		.loc 1 1206 6 view .LVU1147
 3982 0076 0028     		cmp	r0, #0
 3983 0078 4FD0     		beq	.L316
1207:Middlewares/Third_Party/LwIP/src/apps/mqtt/mqtt.c ****     mqtt_delete_request(r);
1208:Middlewares/Third_Party/LwIP/src/apps/mqtt/mqtt.c ****     return ERR_MEM;
1209:Middlewares/Third_Party/LwIP/src/apps/mqtt/mqtt.c ****   }
1210:Middlewares/Third_Party/LwIP/src/apps/mqtt/mqtt.c **** 
1211:Middlewares/Third_Party/LwIP/src/apps/mqtt/mqtt.c ****   LWIP_DEBUGF(MQTT_DEBUG_TRACE, ("mqtt_sub_unsub: Client (un)subscribe to topic \"%s\", id: %d\n", 
 3984              		.loc 1 1211 115 is_stmt 1 view .LVU1148
1212:Middlewares/Third_Party/LwIP/src/apps/mqtt/mqtt.c **** 
1213:Middlewares/Third_Party/LwIP/src/apps/mqtt/mqtt.c ****   mqtt_output_append_fixed_header(&client->output, sub ? MQTT_MSG_TYPE_SUBSCRIBE : MQTT_MSG_TYPE_UN
 3985              		.loc 1 1213 3 view .LVU1149
 3986 007a BBF1000F 		cmp	fp, #0
 3987 007e 52D0     		beq	.L309
 3988 0080 0821     		movs	r1, #8
 3989              	.L305:
 3990              		.loc 1 1213 3 is_stmt 0 discriminator 4 view .LVU1150
 3991 0082 0195     		str	r5, [sp, #4]
 3992 0084 0022     		movs	r2, #0
 3993 0086 0092     		str	r2, [sp]
 3994 0088 0123     		movs	r3, #1
 3995 008a 3846     		mov	r0, r7
 3996 008c FFF7FEFF 		bl	mqtt_output_append_fixed_header
 3997              	.LVL435:
1214:Middlewares/Third_Party/LwIP/src/apps/mqtt/mqtt.c ****   /* Packet id */
1215:Middlewares/Third_Party/LwIP/src/apps/mqtt/mqtt.c ****   mqtt_output_append_u16(&client->output, pkt_id);
 3998              		.loc 1 1215 3 is_stmt 1 discriminator 4 view .LVU1151
 3999 0090 4946     		mov	r1, r9
 4000 0092 3846     		mov	r0, r7
 4001 0094 FFF7FEFF 		bl	mqtt_output_append_u16
 4002              	.LVL436:
1216:Middlewares/Third_Party/LwIP/src/apps/mqtt/mqtt.c ****   /* Topic */
1217:Middlewares/Third_Party/LwIP/src/apps/mqtt/mqtt.c ****   mqtt_output_append_string(&client->output, topic, topic_len);
 4003              		.loc 1 1217 3 discriminator 4 view .LVU1152
 4004 0098 2246     		mov	r2, r4
 4005 009a 4146     		mov	r1, r8
 4006 009c 3846     		mov	r0, r7
 4007 009e FFF7FEFF 		bl	mqtt_output_append_string
 4008              	.LVL437:
1218:Middlewares/Third_Party/LwIP/src/apps/mqtt/mqtt.c ****   /* QoS */
1219:Middlewares/Third_Party/LwIP/src/apps/mqtt/mqtt.c ****   if (sub != 0) {
 4009              		.loc 1 1219 3 discriminator 4 view .LVU1153
 4010              		.loc 1 1219 6 is_stmt 0 discriminator 4 view .LVU1154
 4011 00a2 BBF1000F 		cmp	fp, #0
 4012 00a6 40D1     		bne	.L317
 4013              	.L306:
1220:Middlewares/Third_Party/LwIP/src/apps/mqtt/mqtt.c ****     mqtt_output_append_u8(&client->output, LWIP_MIN(qos, 2));
1221:Middlewares/Third_Party/LwIP/src/apps/mqtt/mqtt.c ****   }
1222:Middlewares/Third_Party/LwIP/src/apps/mqtt/mqtt.c **** 
1223:Middlewares/Third_Party/LwIP/src/apps/mqtt/mqtt.c ****   mqtt_append_request(&client->pend_req_queue, r);
 4014              		.loc 1 1223 3 is_stmt 1 view .LVU1155
 4015 00a8 0399     		ldr	r1, [sp, #12]
ARM GAS  /tmp/ccVfyJBo.s 			page 110


 4016 00aa 06F11800 		add	r0, r6, #24
 4017 00ae FFF7FEFF 		bl	mqtt_append_request
 4018              	.LVL438:
1224:Middlewares/Third_Party/LwIP/src/apps/mqtt/mqtt.c ****   mqtt_output_send(&client->output, client->conn);
 4019              		.loc 1 1224 3 view .LVU1156
 4020 00b2 F168     		ldr	r1, [r6, #12]
 4021 00b4 3846     		mov	r0, r7
 4022 00b6 FFF7FEFF 		bl	mqtt_output_send
 4023              	.LVL439:
1225:Middlewares/Third_Party/LwIP/src/apps/mqtt/mqtt.c ****   return ERR_OK;
 4024              		.loc 1 1225 3 view .LVU1157
 4025              		.loc 1 1225 10 is_stmt 0 view .LVU1158
 4026 00ba 0020     		movs	r0, #0
 4027              	.LVL440:
 4028              	.L301:
1226:Middlewares/Third_Party/LwIP/src/apps/mqtt/mqtt.c **** }
 4029              		.loc 1 1226 1 view .LVU1159
 4030 00bc 05B0     		add	sp, sp, #20
 4031              	.LCFI42:
 4032              		.cfi_remember_state
 4033              		.cfi_def_cfa_offset 36
 4034              		@ sp needed
 4035 00be BDE8F08F 		pop	{r4, r5, r6, r7, r8, r9, r10, fp, pc}
 4036              	.LVL441:
 4037              	.L311:
 4038              	.LCFI43:
 4039              		.cfi_restore_state
1183:Middlewares/Third_Party/LwIP/src/apps/mqtt/mqtt.c ****   LWIP_ASSERT("mqtt_sub_unsub: topic != NULL", topic);
 4040              		.loc 1 1183 3 is_stmt 1 discriminator 1 view .LVU1160
1183:Middlewares/Third_Party/LwIP/src/apps/mqtt/mqtt.c ****   LWIP_ASSERT("mqtt_sub_unsub: topic != NULL", topic);
 4041              		.loc 1 1183 3 discriminator 1 view .LVU1161
 4042 00c2 214B     		ldr	r3, .L318
 4043              	.LVL442:
1183:Middlewares/Third_Party/LwIP/src/apps/mqtt/mqtt.c ****   LWIP_ASSERT("mqtt_sub_unsub: topic != NULL", topic);
 4044              		.loc 1 1183 3 is_stmt 0 discriminator 1 view .LVU1162
 4045 00c4 40F29F42 		movw	r2, #1183
 4046              	.LVL443:
1183:Middlewares/Third_Party/LwIP/src/apps/mqtt/mqtt.c ****   LWIP_ASSERT("mqtt_sub_unsub: topic != NULL", topic);
 4047              		.loc 1 1183 3 discriminator 1 view .LVU1163
 4048 00c8 2049     		ldr	r1, .L318+4
 4049              	.LVL444:
1183:Middlewares/Third_Party/LwIP/src/apps/mqtt/mqtt.c ****   LWIP_ASSERT("mqtt_sub_unsub: topic != NULL", topic);
 4050              		.loc 1 1183 3 discriminator 1 view .LVU1164
 4051 00ca 2148     		ldr	r0, .L318+8
 4052              	.LVL445:
1183:Middlewares/Third_Party/LwIP/src/apps/mqtt/mqtt.c ****   LWIP_ASSERT("mqtt_sub_unsub: topic != NULL", topic);
 4053              		.loc 1 1183 3 discriminator 1 view .LVU1165
 4054 00cc FFF7FEFF 		bl	printf
 4055              	.LVL446:
 4056 00d0 A1E7     		b	.L298
 4057              	.L312:
1184:Middlewares/Third_Party/LwIP/src/apps/mqtt/mqtt.c **** 
 4058              		.loc 1 1184 3 is_stmt 1 discriminator 1 view .LVU1166
1184:Middlewares/Third_Party/LwIP/src/apps/mqtt/mqtt.c **** 
 4059              		.loc 1 1184 3 discriminator 1 view .LVU1167
 4060 00d2 1D4B     		ldr	r3, .L318
 4061 00d4 4FF49462 		mov	r2, #1184
ARM GAS  /tmp/ccVfyJBo.s 			page 111


 4062 00d8 1E49     		ldr	r1, .L318+12
 4063 00da 1D48     		ldr	r0, .L318+8
 4064 00dc FFF7FEFF 		bl	printf
 4065              	.LVL447:
 4066 00e0 9CE7     		b	.L299
 4067              	.LVL448:
 4068              	.L313:
1187:Middlewares/Third_Party/LwIP/src/apps/mqtt/mqtt.c ****   topic_len = (u16_t)topic_strlen;
 4069              		.loc 1 1187 3 discriminator 1 view .LVU1168
1187:Middlewares/Third_Party/LwIP/src/apps/mqtt/mqtt.c ****   topic_len = (u16_t)topic_strlen;
 4070              		.loc 1 1187 3 discriminator 1 view .LVU1169
 4071 00e2 194B     		ldr	r3, .L318
 4072 00e4 40F2A342 		movw	r2, #1187
 4073 00e8 1B49     		ldr	r1, .L318+16
 4074 00ea 1948     		ldr	r0, .L318+8
 4075              	.LVL449:
1187:Middlewares/Third_Party/LwIP/src/apps/mqtt/mqtt.c ****   topic_len = (u16_t)topic_strlen;
 4076              		.loc 1 1187 3 is_stmt 0 discriminator 1 view .LVU1170
 4077 00ec FFF7FEFF 		bl	printf
 4078              	.LVL450:
1187:Middlewares/Third_Party/LwIP/src/apps/mqtt/mqtt.c ****   topic_len = (u16_t)topic_strlen;
 4079              		.loc 1 1187 3 is_stmt 1 discriminator 1 view .LVU1171
1187:Middlewares/Third_Party/LwIP/src/apps/mqtt/mqtt.c ****   topic_len = (u16_t)topic_strlen;
 4080              		.loc 1 1187 3 discriminator 1 view .LVU1172
 4081 00f0 6FF00F00 		mvn	r0, #15
 4082 00f4 E2E7     		b	.L301
 4083              	.LVL451:
 4084              	.L314:
1191:Middlewares/Third_Party/LwIP/src/apps/mqtt/mqtt.c ****   remaining_length = (u16_t)total_len;
 4085              		.loc 1 1191 3 discriminator 1 view .LVU1173
1191:Middlewares/Third_Party/LwIP/src/apps/mqtt/mqtt.c ****   remaining_length = (u16_t)total_len;
 4086              		.loc 1 1191 3 discriminator 1 view .LVU1174
 4087 00f6 144B     		ldr	r3, .L318
 4088 00f8 40F2A742 		movw	r2, #1191
 4089 00fc 1749     		ldr	r1, .L318+20
 4090 00fe 1448     		ldr	r0, .L318+8
 4091              	.LVL452:
1191:Middlewares/Third_Party/LwIP/src/apps/mqtt/mqtt.c ****   remaining_length = (u16_t)total_len;
 4092              		.loc 1 1191 3 is_stmt 0 discriminator 1 view .LVU1175
 4093 0100 FFF7FEFF 		bl	printf
 4094              	.LVL453:
1191:Middlewares/Third_Party/LwIP/src/apps/mqtt/mqtt.c ****   remaining_length = (u16_t)total_len;
 4095              		.loc 1 1191 3 is_stmt 1 discriminator 1 view .LVU1176
1191:Middlewares/Third_Party/LwIP/src/apps/mqtt/mqtt.c ****   remaining_length = (u16_t)total_len;
 4096              		.loc 1 1191 3 discriminator 1 view .LVU1177
 4097 0104 6FF00F00 		mvn	r0, #15
 4098 0108 D8E7     		b	.L301
 4099              	.LVL454:
 4100              	.L315:
1194:Middlewares/Third_Party/LwIP/src/apps/mqtt/mqtt.c ****   if (client->conn_state == TCP_DISCONNECTED) {
 4101              		.loc 1 1194 3 discriminator 1 view .LVU1178
1194:Middlewares/Third_Party/LwIP/src/apps/mqtt/mqtt.c ****   if (client->conn_state == TCP_DISCONNECTED) {
 4102              		.loc 1 1194 3 discriminator 1 view .LVU1179
 4103 010a 0F4B     		ldr	r3, .L318
 4104 010c 40F2AA42 		movw	r2, #1194
 4105 0110 1349     		ldr	r1, .L318+24
 4106 0112 0F48     		ldr	r0, .L318+8
ARM GAS  /tmp/ccVfyJBo.s 			page 112


 4107              	.LVL455:
1194:Middlewares/Third_Party/LwIP/src/apps/mqtt/mqtt.c ****   if (client->conn_state == TCP_DISCONNECTED) {
 4108              		.loc 1 1194 3 is_stmt 0 discriminator 1 view .LVU1180
 4109 0114 FFF7FEFF 		bl	printf
 4110              	.LVL456:
 4111 0118 94E7     		b	.L303
 4112              	.LVL457:
 4113              	.L316:
1207:Middlewares/Third_Party/LwIP/src/apps/mqtt/mqtt.c ****     return ERR_MEM;
 4114              		.loc 1 1207 5 is_stmt 1 view .LVU1181
 4115 011a 0398     		ldr	r0, [sp, #12]
 4116 011c FFF7FEFF 		bl	mqtt_delete_request
 4117              	.LVL458:
1208:Middlewares/Third_Party/LwIP/src/apps/mqtt/mqtt.c ****   }
 4118              		.loc 1 1208 5 view .LVU1182
1208:Middlewares/Third_Party/LwIP/src/apps/mqtt/mqtt.c ****   }
 4119              		.loc 1 1208 12 is_stmt 0 view .LVU1183
 4120 0120 4FF0FF30 		mov	r0, #-1
 4121 0124 CAE7     		b	.L301
 4122              	.L309:
1213:Middlewares/Third_Party/LwIP/src/apps/mqtt/mqtt.c ****   /* Packet id */
 4123              		.loc 1 1213 3 view .LVU1184
 4124 0126 0A21     		movs	r1, #10
 4125 0128 ABE7     		b	.L305
 4126              	.L317:
1220:Middlewares/Third_Party/LwIP/src/apps/mqtt/mqtt.c ****   }
 4127              		.loc 1 1220 5 is_stmt 1 view .LVU1185
 4128 012a 5146     		mov	r1, r10
 4129 012c 0229     		cmp	r1, #2
 4130 012e 28BF     		it	cs
 4131 0130 0221     		movcs	r1, #2
 4132 0132 3846     		mov	r0, r7
 4133 0134 FFF7FEFF 		bl	mqtt_output_append_u8
 4134              	.LVL459:
 4135 0138 B6E7     		b	.L306
 4136              	.LVL460:
 4137              	.L307:
1197:Middlewares/Third_Party/LwIP/src/apps/mqtt/mqtt.c ****   }
 4138              		.loc 1 1197 12 is_stmt 0 view .LVU1186
 4139 013a 6FF00A00 		mvn	r0, #10
 4140 013e BDE7     		b	.L301
 4141              	.LVL461:
 4142              	.L308:
1203:Middlewares/Third_Party/LwIP/src/apps/mqtt/mqtt.c ****   }
 4143              		.loc 1 1203 12 view .LVU1187
 4144 0140 4FF0FF30 		mov	r0, #-1
 4145              	.LVL462:
1203:Middlewares/Third_Party/LwIP/src/apps/mqtt/mqtt.c ****   }
 4146              		.loc 1 1203 12 view .LVU1188
 4147 0144 BAE7     		b	.L301
 4148              	.L319:
 4149 0146 00BF     		.align	2
 4150              	.L318:
 4151 0148 00000000 		.word	.LC0
 4152 014c 00000000 		.word	.LC25
 4153 0150 58000000 		.word	.LC2
 4154 0154 20000000 		.word	.LC26
ARM GAS  /tmp/ccVfyJBo.s 			page 113


 4155 0158 40000000 		.word	.LC27
 4156 015c 68000000 		.word	.LC28
 4157 0160 90000000 		.word	.LC29
 4158              		.cfi_endproc
 4159              	.LFE198:
 4161              		.section	.rodata.mqtt_set_inpub_callback.str1.4,"aMS",%progbits,1
 4162              		.align	2
 4163              	.LC30:
 4164 0000 6D717474 		.ascii	"mqtt_set_inpub_callback: client != NULL\000"
 4164      5F736574 
 4164      5F696E70 
 4164      75625F63 
 4164      616C6C62 
 4165              		.section	.text.mqtt_set_inpub_callback,"ax",%progbits
 4166              		.align	1
 4167              		.global	mqtt_set_inpub_callback
 4168              		.syntax unified
 4169              		.thumb
 4170              		.thumb_func
 4172              	mqtt_set_inpub_callback:
 4173              	.LVL463:
 4174              	.LFB199:
1227:Middlewares/Third_Party/LwIP/src/apps/mqtt/mqtt.c **** 
1228:Middlewares/Third_Party/LwIP/src/apps/mqtt/mqtt.c **** 
1229:Middlewares/Third_Party/LwIP/src/apps/mqtt/mqtt.c **** /**
1230:Middlewares/Third_Party/LwIP/src/apps/mqtt/mqtt.c ****  * @ingroup mqtt
1231:Middlewares/Third_Party/LwIP/src/apps/mqtt/mqtt.c ****  * Set callback to handle incoming publish requests from server
1232:Middlewares/Third_Party/LwIP/src/apps/mqtt/mqtt.c ****  * @param client MQTT client
1233:Middlewares/Third_Party/LwIP/src/apps/mqtt/mqtt.c ****  * @param pub_cb Callback invoked when publish starts, contain topic and total length of payload
1234:Middlewares/Third_Party/LwIP/src/apps/mqtt/mqtt.c ****  * @param data_cb Callback for each fragment of payload that arrives
1235:Middlewares/Third_Party/LwIP/src/apps/mqtt/mqtt.c ****  * @param arg User supplied argument to both callbacks
1236:Middlewares/Third_Party/LwIP/src/apps/mqtt/mqtt.c ****  */
1237:Middlewares/Third_Party/LwIP/src/apps/mqtt/mqtt.c **** void
1238:Middlewares/Third_Party/LwIP/src/apps/mqtt/mqtt.c **** mqtt_set_inpub_callback(mqtt_client_t *client, mqtt_incoming_publish_cb_t pub_cb,
1239:Middlewares/Third_Party/LwIP/src/apps/mqtt/mqtt.c ****                         mqtt_incoming_data_cb_t data_cb, void *arg)
1240:Middlewares/Third_Party/LwIP/src/apps/mqtt/mqtt.c **** {
 4175              		.loc 1 1240 1 is_stmt 1 view -0
 4176              		.cfi_startproc
 4177              		@ args = 0, pretend = 0, frame = 0
 4178              		@ frame_needed = 0, uses_anonymous_args = 0
 4179              		.loc 1 1240 1 is_stmt 0 view .LVU1190
 4180 0000 F8B5     		push	{r3, r4, r5, r6, r7, lr}
 4181              	.LCFI44:
 4182              		.cfi_def_cfa_offset 24
 4183              		.cfi_offset 3, -24
 4184              		.cfi_offset 4, -20
 4185              		.cfi_offset 5, -16
 4186              		.cfi_offset 6, -12
 4187              		.cfi_offset 7, -8
 4188              		.cfi_offset 14, -4
 4189 0002 0E46     		mov	r6, r1
 4190 0004 1746     		mov	r7, r2
 4191 0006 1D46     		mov	r5, r3
1241:Middlewares/Third_Party/LwIP/src/apps/mqtt/mqtt.c ****   LWIP_ASSERT_CORE_LOCKED();
 4192              		.loc 1 1241 28 is_stmt 1 view .LVU1191
1242:Middlewares/Third_Party/LwIP/src/apps/mqtt/mqtt.c ****   LWIP_ASSERT("mqtt_set_inpub_callback: client != NULL", client != NULL);
 4193              		.loc 1 1242 3 view .LVU1192
ARM GAS  /tmp/ccVfyJBo.s 			page 114


 4194              		.loc 1 1242 3 view .LVU1193
 4195 0008 0446     		mov	r4, r0
 4196 000a 18B1     		cbz	r0, .L323
 4197              	.LVL464:
 4198              	.L321:
 4199              		.loc 1 1242 3 discriminator 3 view .LVU1194
 4200              		.loc 1 1242 3 discriminator 3 view .LVU1195
1243:Middlewares/Third_Party/LwIP/src/apps/mqtt/mqtt.c ****   client->data_cb = data_cb;
 4201              		.loc 1 1243 3 discriminator 3 view .LVU1196
 4202              		.loc 1 1243 19 is_stmt 0 discriminator 3 view .LVU1197
 4203 000c 2766     		str	r7, [r4, #96]
1244:Middlewares/Third_Party/LwIP/src/apps/mqtt/mqtt.c ****   client->pub_cb = pub_cb;
 4204              		.loc 1 1244 3 is_stmt 1 discriminator 3 view .LVU1198
 4205              		.loc 1 1244 18 is_stmt 0 discriminator 3 view .LVU1199
 4206 000e 6666     		str	r6, [r4, #100]
1245:Middlewares/Third_Party/LwIP/src/apps/mqtt/mqtt.c ****   client->inpub_arg = arg;
 4207              		.loc 1 1245 3 is_stmt 1 discriminator 3 view .LVU1200
 4208              		.loc 1 1245 21 is_stmt 0 discriminator 3 view .LVU1201
 4209 0010 E565     		str	r5, [r4, #92]
1246:Middlewares/Third_Party/LwIP/src/apps/mqtt/mqtt.c **** }
 4210              		.loc 1 1246 1 discriminator 3 view .LVU1202
 4211 0012 F8BD     		pop	{r3, r4, r5, r6, r7, pc}
 4212              	.LVL465:
 4213              	.L323:
1242:Middlewares/Third_Party/LwIP/src/apps/mqtt/mqtt.c ****   client->data_cb = data_cb;
 4214              		.loc 1 1242 3 is_stmt 1 discriminator 1 view .LVU1203
1242:Middlewares/Third_Party/LwIP/src/apps/mqtt/mqtt.c ****   client->data_cb = data_cb;
 4215              		.loc 1 1242 3 discriminator 1 view .LVU1204
 4216 0014 034B     		ldr	r3, .L324
 4217              	.LVL466:
1242:Middlewares/Third_Party/LwIP/src/apps/mqtt/mqtt.c ****   client->data_cb = data_cb;
 4218              		.loc 1 1242 3 is_stmt 0 discriminator 1 view .LVU1205
 4219 0016 40F2DA42 		movw	r2, #1242
 4220              	.LVL467:
1242:Middlewares/Third_Party/LwIP/src/apps/mqtt/mqtt.c ****   client->data_cb = data_cb;
 4221              		.loc 1 1242 3 discriminator 1 view .LVU1206
 4222 001a 0349     		ldr	r1, .L324+4
 4223              	.LVL468:
1242:Middlewares/Third_Party/LwIP/src/apps/mqtt/mqtt.c ****   client->data_cb = data_cb;
 4224              		.loc 1 1242 3 discriminator 1 view .LVU1207
 4225 001c 0348     		ldr	r0, .L324+8
 4226              	.LVL469:
1242:Middlewares/Third_Party/LwIP/src/apps/mqtt/mqtt.c ****   client->data_cb = data_cb;
 4227              		.loc 1 1242 3 discriminator 1 view .LVU1208
 4228 001e FFF7FEFF 		bl	printf
 4229              	.LVL470:
 4230 0022 F3E7     		b	.L321
 4231              	.L325:
 4232              		.align	2
 4233              	.L324:
 4234 0024 00000000 		.word	.LC0
 4235 0028 00000000 		.word	.LC30
 4236 002c 58000000 		.word	.LC2
 4237              		.cfi_endproc
 4238              	.LFE199:
 4240              		.section	.text.mqtt_client_new,"ax",%progbits
 4241              		.align	1
ARM GAS  /tmp/ccVfyJBo.s 			page 115


 4242              		.global	mqtt_client_new
 4243              		.syntax unified
 4244              		.thumb
 4245              		.thumb_func
 4247              	mqtt_client_new:
 4248              	.LFB200:
1247:Middlewares/Third_Party/LwIP/src/apps/mqtt/mqtt.c **** 
1248:Middlewares/Third_Party/LwIP/src/apps/mqtt/mqtt.c **** /**
1249:Middlewares/Third_Party/LwIP/src/apps/mqtt/mqtt.c ****  * @ingroup mqtt
1250:Middlewares/Third_Party/LwIP/src/apps/mqtt/mqtt.c ****  * Create a new MQTT client instance
1251:Middlewares/Third_Party/LwIP/src/apps/mqtt/mqtt.c ****  * @return Pointer to instance on success, NULL otherwise
1252:Middlewares/Third_Party/LwIP/src/apps/mqtt/mqtt.c ****  */
1253:Middlewares/Third_Party/LwIP/src/apps/mqtt/mqtt.c **** mqtt_client_t *
1254:Middlewares/Third_Party/LwIP/src/apps/mqtt/mqtt.c **** mqtt_client_new(void)
1255:Middlewares/Third_Party/LwIP/src/apps/mqtt/mqtt.c **** {
 4249              		.loc 1 1255 1 is_stmt 1 view -0
 4250              		.cfi_startproc
 4251              		@ args = 0, pretend = 0, frame = 0
 4252              		@ frame_needed = 0, uses_anonymous_args = 0
 4253 0000 08B5     		push	{r3, lr}
 4254              	.LCFI45:
 4255              		.cfi_def_cfa_offset 8
 4256              		.cfi_offset 3, -8
 4257              		.cfi_offset 14, -4
1256:Middlewares/Third_Party/LwIP/src/apps/mqtt/mqtt.c ****   LWIP_ASSERT_CORE_LOCKED();
 4258              		.loc 1 1256 28 view .LVU1210
1257:Middlewares/Third_Party/LwIP/src/apps/mqtt/mqtt.c ****   return (mqtt_client_t *)mem_calloc(1, sizeof(mqtt_client_t));
 4259              		.loc 1 1257 3 view .LVU1211
 4260              		.loc 1 1257 27 is_stmt 0 view .LVU1212
 4261 0002 4FF4F871 		mov	r1, #496
 4262 0006 0120     		movs	r0, #1
 4263 0008 FFF7FEFF 		bl	mem_calloc
 4264              	.LVL471:
1258:Middlewares/Third_Party/LwIP/src/apps/mqtt/mqtt.c **** }
 4265              		.loc 1 1258 1 view .LVU1213
 4266 000c 08BD     		pop	{r3, pc}
 4267              		.cfi_endproc
 4268              	.LFE200:
 4270              		.section	.text.mqtt_client_free,"ax",%progbits
 4271              		.align	1
 4272              		.global	mqtt_client_free
 4273              		.syntax unified
 4274              		.thumb
 4275              		.thumb_func
 4277              	mqtt_client_free:
 4278              	.LVL472:
 4279              	.LFB201:
1259:Middlewares/Third_Party/LwIP/src/apps/mqtt/mqtt.c **** 
1260:Middlewares/Third_Party/LwIP/src/apps/mqtt/mqtt.c **** /**
1261:Middlewares/Third_Party/LwIP/src/apps/mqtt/mqtt.c ****  * @ingroup mqtt
1262:Middlewares/Third_Party/LwIP/src/apps/mqtt/mqtt.c ****  * Free MQTT client instance
1263:Middlewares/Third_Party/LwIP/src/apps/mqtt/mqtt.c ****  * @param client Pointer to instance to be freed
1264:Middlewares/Third_Party/LwIP/src/apps/mqtt/mqtt.c ****  */
1265:Middlewares/Third_Party/LwIP/src/apps/mqtt/mqtt.c **** void
1266:Middlewares/Third_Party/LwIP/src/apps/mqtt/mqtt.c **** mqtt_client_free(mqtt_client_t *client)
1267:Middlewares/Third_Party/LwIP/src/apps/mqtt/mqtt.c **** {
 4280              		.loc 1 1267 1 is_stmt 1 view -0
ARM GAS  /tmp/ccVfyJBo.s 			page 116


 4281              		.cfi_startproc
 4282              		@ args = 0, pretend = 0, frame = 0
 4283              		@ frame_needed = 0, uses_anonymous_args = 0
 4284              		.loc 1 1267 1 is_stmt 0 view .LVU1215
 4285 0000 08B5     		push	{r3, lr}
 4286              	.LCFI46:
 4287              		.cfi_def_cfa_offset 8
 4288              		.cfi_offset 3, -8
 4289              		.cfi_offset 14, -4
1268:Middlewares/Third_Party/LwIP/src/apps/mqtt/mqtt.c ****   mem_free(client);
 4290              		.loc 1 1268 3 is_stmt 1 view .LVU1216
 4291 0002 FFF7FEFF 		bl	mem_free
 4292              	.LVL473:
1269:Middlewares/Third_Party/LwIP/src/apps/mqtt/mqtt.c **** }
 4293              		.loc 1 1269 1 is_stmt 0 view .LVU1217
 4294 0006 08BD     		pop	{r3, pc}
 4295              		.cfi_endproc
 4296              	.LFE201:
 4298              		.section	.rodata.mqtt_client_connect.str1.4,"aMS",%progbits,1
 4299              		.align	2
 4300              	.LC31:
 4301 0000 6D717474 		.ascii	"mqtt_client_connect: client != NULL\000"
 4301      5F636C69 
 4301      656E745F 
 4301      636F6E6E 
 4301      6563743A 
 4302              		.align	2
 4303              	.LC32:
 4304 0024 6D717474 		.ascii	"mqtt_client_connect: ip_addr != NULL\000"
 4304      5F636C69 
 4304      656E745F 
 4304      636F6E6E 
 4304      6563743A 
 4305 0049 000000   		.align	2
 4306              	.LC33:
 4307 004c 6D717474 		.ascii	"mqtt_client_connect: client_info != NULL\000"
 4307      5F636C69 
 4307      656E745F 
 4307      636F6E6E 
 4307      6563743A 
 4308 0075 000000   		.align	2
 4309              	.LC34:
 4310 0078 6D717474 		.ascii	"mqtt_client_connect: client_info->client_id != NULL"
 4310      5F636C69 
 4310      656E745F 
 4310      636F6E6E 
 4310      6563743A 
 4311 00ab 00       		.ascii	"\000"
 4312              		.align	2
 4313              	.LC35:
 4314 00ac 6D717474 		.ascii	"mqtt_client_connect: client_info->will_topic length"
 4314      5F636C69 
 4314      656E745F 
 4314      636F6E6E 
 4314      6563743A 
 4315 00df 206F7665 		.ascii	" overflow\000"
 4315      72666C6F 
ARM GAS  /tmp/ccVfyJBo.s 			page 117


 4315      7700
 4316 00e9 000000   		.align	2
 4317              	.LC36:
 4318 00ec 6D717474 		.ascii	"mqtt_client_connect: client_info->will_topic length"
 4318      5F636C69 
 4318      656E745F 
 4318      636F6E6E 
 4318      6563743A 
 4319 011f 206D7573 		.ascii	" must be > 0\000"
 4319      74206265 
 4319      203E2030 
 4319      00
 4320              		.align	2
 4321              	.LC37:
 4322 012c 6D717474 		.ascii	"mqtt_client_connect: client_info->will_msg length o"
 4322      5F636C69 
 4322      656E745F 
 4322      636F6E6E 
 4322      6563743A 
 4323 015f 76657266 		.ascii	"verflow\000"
 4323      6C6F7700 
 4324 0167 00       		.align	2
 4325              	.LC38:
 4326 0168 6D717474 		.ascii	"mqtt_client_connect: remaining_length overflow\000"
 4326      5F636C69 
 4326      656E745F 
 4326      636F6E6E 
 4326      6563743A 
 4327 0197 00       		.align	2
 4328              	.LC39:
 4329 0198 6D717474 		.ascii	"mqtt_client_connect: client_info->client_user lengt"
 4329      5F636C69 
 4329      656E745F 
 4329      636F6E6E 
 4329      6563743A 
 4330 01cb 68206F76 		.ascii	"h overflow\000"
 4330      6572666C 
 4330      6F7700
 4331 01d6 0000     		.align	2
 4332              	.LC40:
 4333 01d8 6D717474 		.ascii	"mqtt_client_connect: client_info->client_user lengt"
 4333      5F636C69 
 4333      656E745F 
 4333      636F6E6E 
 4333      6563743A 
 4334 020b 68206D75 		.ascii	"h must be > 0\000"
 4334      73742062 
 4334      65203E20 
 4334      3000
 4335 0219 000000   		.align	2
 4336              	.LC41:
 4337 021c 6D717474 		.ascii	"mqtt_client_connect: client_info->client_pass lengt"
 4337      5F636C69 
 4337      656E745F 
 4337      636F6E6E 
 4337      6563743A 
 4338 024f 68206F76 		.ascii	"h overflow\000"
ARM GAS  /tmp/ccVfyJBo.s 			page 118


 4338      6572666C 
 4338      6F7700
 4339 025a 0000     		.align	2
 4340              	.LC42:
 4341 025c 6D717474 		.ascii	"mqtt_client_connect: client_info->client_pass lengt"
 4341      5F636C69 
 4341      656E745F 
 4341      636F6E6E 
 4341      6563743A 
 4342 028f 68206D75 		.ascii	"h must be > 0\000"
 4342      73742062 
 4342      65203E20 
 4342      3000
 4343 029d 000000   		.align	2
 4344              	.LC43:
 4345 02a0 6D717474 		.ascii	"mqtt_client_connect: client_info->client_id length "
 4345      5F636C69 
 4345      656E745F 
 4345      636F6E6E 
 4345      6563743A 
 4346 02d3 6F766572 		.ascii	"overflow\000"
 4346      666C6F77 
 4346      00
 4347              		.align	2
 4348              	.LC44:
 4349 02dc 4D515454 		.ascii	"MQTT\000"
 4349      00
 4350              		.section	.text.mqtt_client_connect,"ax",%progbits
 4351              		.align	1
 4352              		.global	mqtt_client_connect
 4353              		.syntax unified
 4354              		.thumb
 4355              		.thumb_func
 4357              	mqtt_client_connect:
 4358              	.LVL474:
 4359              	.LFB202:
1270:Middlewares/Third_Party/LwIP/src/apps/mqtt/mqtt.c **** 
1271:Middlewares/Third_Party/LwIP/src/apps/mqtt/mqtt.c **** /**
1272:Middlewares/Third_Party/LwIP/src/apps/mqtt/mqtt.c ****  * @ingroup mqtt
1273:Middlewares/Third_Party/LwIP/src/apps/mqtt/mqtt.c ****  * Connect to MQTT server
1274:Middlewares/Third_Party/LwIP/src/apps/mqtt/mqtt.c ****  * @param client MQTT client
1275:Middlewares/Third_Party/LwIP/src/apps/mqtt/mqtt.c ****  * @param ip_addr Server IP
1276:Middlewares/Third_Party/LwIP/src/apps/mqtt/mqtt.c ****  * @param port Server port
1277:Middlewares/Third_Party/LwIP/src/apps/mqtt/mqtt.c ****  * @param cb Connection state change callback
1278:Middlewares/Third_Party/LwIP/src/apps/mqtt/mqtt.c ****  * @param arg User supplied argument to connection callback
1279:Middlewares/Third_Party/LwIP/src/apps/mqtt/mqtt.c ****  * @param client_info Client identification and connection options
1280:Middlewares/Third_Party/LwIP/src/apps/mqtt/mqtt.c ****  * @return ERR_OK if successful, @see err_t enum for other results
1281:Middlewares/Third_Party/LwIP/src/apps/mqtt/mqtt.c ****  */
1282:Middlewares/Third_Party/LwIP/src/apps/mqtt/mqtt.c **** err_t
1283:Middlewares/Third_Party/LwIP/src/apps/mqtt/mqtt.c **** mqtt_client_connect(mqtt_client_t *client, const ip_addr_t *ip_addr, u16_t port, mqtt_connection_cb
1284:Middlewares/Third_Party/LwIP/src/apps/mqtt/mqtt.c ****                     const struct mqtt_connect_client_info_t *client_info)
1285:Middlewares/Third_Party/LwIP/src/apps/mqtt/mqtt.c **** {
 4360              		.loc 1 1285 1 is_stmt 1 view -0
 4361              		.cfi_startproc
 4362              		@ args = 8, pretend = 0, frame = 24
 4363              		@ frame_needed = 0, uses_anonymous_args = 0
 4364              		.loc 1 1285 1 is_stmt 0 view .LVU1219
ARM GAS  /tmp/ccVfyJBo.s 			page 119


 4365 0000 2DE9F04F 		push	{r4, r5, r6, r7, r8, r9, r10, fp, lr}
 4366              	.LCFI47:
 4367              		.cfi_def_cfa_offset 36
 4368              		.cfi_offset 4, -36
 4369              		.cfi_offset 5, -32
 4370              		.cfi_offset 6, -28
 4371              		.cfi_offset 7, -24
 4372              		.cfi_offset 8, -20
 4373              		.cfi_offset 9, -16
 4374              		.cfi_offset 10, -12
 4375              		.cfi_offset 11, -8
 4376              		.cfi_offset 14, -4
 4377 0004 89B0     		sub	sp, sp, #36
 4378              	.LCFI48:
 4379              		.cfi_def_cfa_offset 72
 4380 0006 0291     		str	r1, [sp, #8]
 4381 0008 0492     		str	r2, [sp, #16]
 4382 000a 1C46     		mov	r4, r3
 4383 000c 139F     		ldr	r7, [sp, #76]
1286:Middlewares/Third_Party/LwIP/src/apps/mqtt/mqtt.c ****   err_t err;
 4384              		.loc 1 1286 3 is_stmt 1 view .LVU1220
1287:Middlewares/Third_Party/LwIP/src/apps/mqtt/mqtt.c ****   size_t len;
 4385              		.loc 1 1287 3 view .LVU1221
1288:Middlewares/Third_Party/LwIP/src/apps/mqtt/mqtt.c ****   u16_t client_id_length;
 4386              		.loc 1 1288 3 view .LVU1222
1289:Middlewares/Third_Party/LwIP/src/apps/mqtt/mqtt.c ****   /* Length is the sum of 2+"MQTT", protocol level, flags and keep alive */
1290:Middlewares/Third_Party/LwIP/src/apps/mqtt/mqtt.c ****   u16_t remaining_length = 2 + 4 + 1 + 1 + 2;
 4387              		.loc 1 1290 3 view .LVU1223
 4388              	.LVL475:
1291:Middlewares/Third_Party/LwIP/src/apps/mqtt/mqtt.c ****   u8_t flags = 0, will_topic_len = 0, will_msg_len = 0;
 4389              		.loc 1 1291 3 view .LVU1224
1292:Middlewares/Third_Party/LwIP/src/apps/mqtt/mqtt.c ****   u16_t client_user_len = 0, client_pass_len = 0;
 4390              		.loc 1 1292 3 view .LVU1225
1293:Middlewares/Third_Party/LwIP/src/apps/mqtt/mqtt.c **** 
1294:Middlewares/Third_Party/LwIP/src/apps/mqtt/mqtt.c ****   LWIP_ASSERT_CORE_LOCKED();
 4391              		.loc 1 1294 28 view .LVU1226
1295:Middlewares/Third_Party/LwIP/src/apps/mqtt/mqtt.c ****   LWIP_ASSERT("mqtt_client_connect: client != NULL", client != NULL);
 4392              		.loc 1 1295 3 view .LVU1227
 4393              		.loc 1 1295 3 view .LVU1228
 4394 000e 0546     		mov	r5, r0
 4395 0010 0028     		cmp	r0, #0
 4396 0012 00F0B280 		beq	.L363
 4397              	.LVL476:
 4398              	.L331:
 4399              		.loc 1 1295 3 discriminator 3 view .LVU1229
 4400              		.loc 1 1295 3 discriminator 3 view .LVU1230
1296:Middlewares/Third_Party/LwIP/src/apps/mqtt/mqtt.c ****   LWIP_ASSERT("mqtt_client_connect: ip_addr != NULL", ip_addr != NULL);
 4401              		.loc 1 1296 3 discriminator 3 view .LVU1231
 4402              		.loc 1 1296 3 discriminator 3 view .LVU1232
 4403 0016 029B     		ldr	r3, [sp, #8]
 4404 0018 002B     		cmp	r3, #0
 4405 001a 00F0B680 		beq	.L364
 4406              	.L332:
 4407              		.loc 1 1296 3 discriminator 3 view .LVU1233
 4408              		.loc 1 1296 3 discriminator 3 view .LVU1234
1297:Middlewares/Third_Party/LwIP/src/apps/mqtt/mqtt.c ****   LWIP_ASSERT("mqtt_client_connect: client_info != NULL", client_info != NULL);
 4409              		.loc 1 1297 3 discriminator 3 view .LVU1235
ARM GAS  /tmp/ccVfyJBo.s 			page 120


 4410              		.loc 1 1297 3 discriminator 3 view .LVU1236
 4411 001e 002F     		cmp	r7, #0
 4412 0020 00F0BB80 		beq	.L365
 4413              	.L333:
 4414              		.loc 1 1297 3 discriminator 3 view .LVU1237
 4415              		.loc 1 1297 3 discriminator 3 view .LVU1238
1298:Middlewares/Third_Party/LwIP/src/apps/mqtt/mqtt.c ****   LWIP_ASSERT("mqtt_client_connect: client_info->client_id != NULL", client_info->client_id != NULL
 4416              		.loc 1 1298 3 discriminator 3 view .LVU1239
 4417              		.loc 1 1298 3 discriminator 3 view .LVU1240
 4418 0024 3A68     		ldr	r2, [r7]
 4419 0026 002A     		cmp	r2, #0
 4420 0028 00F0BF80 		beq	.L366
 4421              	.L334:
 4422              		.loc 1 1298 3 discriminator 3 view .LVU1241
 4423              		.loc 1 1298 3 discriminator 3 view .LVU1242
1299:Middlewares/Third_Party/LwIP/src/apps/mqtt/mqtt.c **** 
1300:Middlewares/Third_Party/LwIP/src/apps/mqtt/mqtt.c ****   if (client->conn_state != TCP_DISCONNECTED) {
 4424              		.loc 1 1300 3 discriminator 3 view .LVU1243
 4425              		.loc 1 1300 13 is_stmt 0 discriminator 3 view .LVU1244
 4426 002c AE7A     		ldrb	r6, [r5, #10]	@ zero_extendqisi2
 4427              		.loc 1 1300 6 discriminator 3 view .LVU1245
 4428 002e 002E     		cmp	r6, #0
 4429 0030 40F09B81 		bne	.L355
1301:Middlewares/Third_Party/LwIP/src/apps/mqtt/mqtt.c ****     LWIP_DEBUGF(MQTT_DEBUG_WARN, ("mqtt_client_connect: Already connected\n"));
1302:Middlewares/Third_Party/LwIP/src/apps/mqtt/mqtt.c ****     return ERR_ISCONN;
1303:Middlewares/Third_Party/LwIP/src/apps/mqtt/mqtt.c ****   }
1304:Middlewares/Third_Party/LwIP/src/apps/mqtt/mqtt.c **** 
1305:Middlewares/Third_Party/LwIP/src/apps/mqtt/mqtt.c ****   /* Wipe clean */
1306:Middlewares/Third_Party/LwIP/src/apps/mqtt/mqtt.c ****   memset(client, 0, sizeof(mqtt_client_t));
 4430              		.loc 1 1306 3 is_stmt 1 view .LVU1246
 4431 0034 4FF4F872 		mov	r2, #496
 4432 0038 0021     		movs	r1, #0
 4433 003a 2846     		mov	r0, r5
 4434 003c FFF7FEFF 		bl	memset
 4435              	.LVL477:
1307:Middlewares/Third_Party/LwIP/src/apps/mqtt/mqtt.c ****   client->connect_arg = arg;
 4436              		.loc 1 1307 3 view .LVU1247
 4437              		.loc 1 1307 23 is_stmt 0 view .LVU1248
 4438 0040 129B     		ldr	r3, [sp, #72]
 4439 0042 2B61     		str	r3, [r5, #16]
1308:Middlewares/Third_Party/LwIP/src/apps/mqtt/mqtt.c ****   client->connect_cb = cb;
 4440              		.loc 1 1308 3 is_stmt 1 view .LVU1249
 4441              		.loc 1 1308 22 is_stmt 0 view .LVU1250
 4442 0044 6C61     		str	r4, [r5, #20]
1309:Middlewares/Third_Party/LwIP/src/apps/mqtt/mqtt.c ****   client->keep_alive = client_info->keep_alive;
 4443              		.loc 1 1309 3 is_stmt 1 view .LVU1251
 4444              		.loc 1 1309 35 is_stmt 0 view .LVU1252
 4445 0046 BB89     		ldrh	r3, [r7, #12]
 4446              		.loc 1 1309 22 view .LVU1253
 4447 0048 6B80     		strh	r3, [r5, #2]	@ movhi
1310:Middlewares/Third_Party/LwIP/src/apps/mqtt/mqtt.c ****   mqtt_init_requests(client->req_list, LWIP_ARRAYSIZE(client->req_list));
 4448              		.loc 1 1310 3 is_stmt 1 view .LVU1254
 4449 004a 0421     		movs	r1, #4
 4450 004c 05F11C00 		add	r0, r5, #28
 4451 0050 FFF7FEFF 		bl	mqtt_init_requests
 4452              	.LVL478:
1311:Middlewares/Third_Party/LwIP/src/apps/mqtt/mqtt.c **** 
ARM GAS  /tmp/ccVfyJBo.s 			page 121


1312:Middlewares/Third_Party/LwIP/src/apps/mqtt/mqtt.c ****   /* Build connect message */
1313:Middlewares/Third_Party/LwIP/src/apps/mqtt/mqtt.c ****   if (client_info->will_topic != NULL && client_info->will_msg != NULL) {
 4453              		.loc 1 1313 3 view .LVU1255
 4454              		.loc 1 1313 18 is_stmt 0 view .LVU1256
 4455 0054 3869     		ldr	r0, [r7, #16]
 4456              		.loc 1 1313 6 view .LVU1257
 4457 0056 0028     		cmp	r0, #0
 4458 0058 00F0D080 		beq	.L356
 4459              		.loc 1 1313 53 discriminator 1 view .LVU1258
 4460 005c D7F81480 		ldr	r8, [r7, #20]
 4461              		.loc 1 1313 39 discriminator 1 view .LVU1259
 4462 0060 B8F1000F 		cmp	r8, #0
 4463 0064 00F0CE80 		beq	.L357
1314:Middlewares/Third_Party/LwIP/src/apps/mqtt/mqtt.c ****     flags |= MQTT_CONNECT_FLAG_WILL;
 4464              		.loc 1 1314 5 is_stmt 1 view .LVU1260
 4465              	.LVL479:
1315:Middlewares/Third_Party/LwIP/src/apps/mqtt/mqtt.c ****     flags |= (client_info->will_qos & 3) << 3;
 4466              		.loc 1 1315 5 view .LVU1261
 4467              		.loc 1 1315 26 is_stmt 0 view .LVU1262
 4468 0068 3E7E     		ldrb	r6, [r7, #24]	@ zero_extendqisi2
 4469              		.loc 1 1315 42 view .LVU1263
 4470 006a F600     		lsls	r6, r6, #3
 4471 006c 06F01806 		and	r6, r6, #24
 4472              		.loc 1 1315 11 view .LVU1264
 4473 0070 46F00406 		orr	r6, r6, #4
 4474              	.LVL480:
1316:Middlewares/Third_Party/LwIP/src/apps/mqtt/mqtt.c ****     if (client_info->will_retain) {
 4475              		.loc 1 1316 5 is_stmt 1 view .LVU1265
 4476              		.loc 1 1316 20 is_stmt 0 view .LVU1266
 4477 0074 7B7E     		ldrb	r3, [r7, #25]	@ zero_extendqisi2
 4478              		.loc 1 1316 8 view .LVU1267
 4479 0076 0BB1     		cbz	r3, .L337
1317:Middlewares/Third_Party/LwIP/src/apps/mqtt/mqtt.c ****       flags |= MQTT_CONNECT_FLAG_WILL_RETAIN;
 4480              		.loc 1 1317 7 is_stmt 1 view .LVU1268
 4481              		.loc 1 1317 13 is_stmt 0 view .LVU1269
 4482 0078 46F02006 		orr	r6, r6, #32
 4483              	.LVL481:
 4484              	.L337:
1318:Middlewares/Third_Party/LwIP/src/apps/mqtt/mqtt.c ****     }
1319:Middlewares/Third_Party/LwIP/src/apps/mqtt/mqtt.c ****     len = strlen(client_info->will_topic);
 4485              		.loc 1 1319 5 is_stmt 1 view .LVU1270
 4486              		.loc 1 1319 11 is_stmt 0 view .LVU1271
 4487 007c FFF7FEFF 		bl	strlen
 4488              	.LVL482:
 4489 0080 0446     		mov	r4, r0
 4490              	.LVL483:
1320:Middlewares/Third_Party/LwIP/src/apps/mqtt/mqtt.c ****     LWIP_ERROR("mqtt_client_connect: client_info->will_topic length overflow", len <= 0xFF, return 
 4491              		.loc 1 1320 5 is_stmt 1 view .LVU1272
 4492              		.loc 1 1320 5 view .LVU1273
 4493 0082 FF28     		cmp	r0, #255
 4494 0084 00F29980 		bhi	.L367
 4495              		.loc 1 1320 5 discriminator 2 view .LVU1274
1321:Middlewares/Third_Party/LwIP/src/apps/mqtt/mqtt.c ****     LWIP_ERROR("mqtt_client_connect: client_info->will_topic length must be > 0", len > 0, return E
 4496              		.loc 1 1321 5 discriminator 2 view .LVU1275
 4497              		.loc 1 1321 5 discriminator 2 view .LVU1276
 4498 0088 0028     		cmp	r0, #0
 4499 008a 00F0A180 		beq	.L368
ARM GAS  /tmp/ccVfyJBo.s 			page 122


 4500              		.loc 1 1321 5 discriminator 2 view .LVU1277
1322:Middlewares/Third_Party/LwIP/src/apps/mqtt/mqtt.c ****     will_topic_len = (u8_t)len;
 4501              		.loc 1 1322 5 discriminator 2 view .LVU1278
 4502              		.loc 1 1322 20 is_stmt 0 discriminator 2 view .LVU1279
 4503 008e C3B2     		uxtb	r3, r0
 4504 0090 0693     		str	r3, [sp, #24]
 4505              	.LVL484:
1323:Middlewares/Third_Party/LwIP/src/apps/mqtt/mqtt.c ****     len = strlen(client_info->will_msg);
 4506              		.loc 1 1323 5 is_stmt 1 discriminator 2 view .LVU1280
 4507              		.loc 1 1323 11 is_stmt 0 discriminator 2 view .LVU1281
 4508 0092 4046     		mov	r0, r8
 4509              	.LVL485:
 4510              		.loc 1 1323 11 discriminator 2 view .LVU1282
 4511 0094 FFF7FEFF 		bl	strlen
 4512              	.LVL486:
1324:Middlewares/Third_Party/LwIP/src/apps/mqtt/mqtt.c ****     LWIP_ERROR("mqtt_client_connect: client_info->will_msg length overflow", len <= 0xFF, return ER
 4513              		.loc 1 1324 5 is_stmt 1 discriminator 2 view .LVU1283
 4514              		.loc 1 1324 5 discriminator 2 view .LVU1284
 4515 0098 FF28     		cmp	r0, #255
 4516 009a 00F2A480 		bhi	.L369
 4517              		.loc 1 1324 5 discriminator 2 view .LVU1285
1325:Middlewares/Third_Party/LwIP/src/apps/mqtt/mqtt.c ****     will_msg_len = (u8_t)len;
 4518              		.loc 1 1325 5 discriminator 2 view .LVU1286
 4519              		.loc 1 1325 18 is_stmt 0 discriminator 2 view .LVU1287
 4520 009e C3B2     		uxtb	r3, r0
 4521 00a0 0793     		str	r3, [sp, #28]
 4522              	.LVL487:
1326:Middlewares/Third_Party/LwIP/src/apps/mqtt/mqtt.c ****     len = remaining_length + 2 + will_topic_len + 2 + will_msg_len;
 4523              		.loc 1 1326 5 is_stmt 1 discriminator 2 view .LVU1288
 4524              		.loc 1 1326 32 is_stmt 0 discriminator 2 view .LVU1289
 4525 00a2 E4B2     		uxtb	r4, r4
 4526              		.loc 1 1326 49 discriminator 2 view .LVU1290
 4527 00a4 0E34     		adds	r4, r4, #14
 4528              		.loc 1 1326 53 discriminator 2 view .LVU1291
 4529 00a6 1C44     		add	r4, r4, r3
 4530              	.LVL488:
1327:Middlewares/Third_Party/LwIP/src/apps/mqtt/mqtt.c ****     LWIP_ERROR("mqtt_client_connect: remaining_length overflow", len <= 0xFFFF, return ERR_VAL);
 4531              		.loc 1 1327 5 is_stmt 1 discriminator 2 view .LVU1292
 4532              		.loc 1 1327 5 discriminator 2 view .LVU1293
 4533              		.loc 1 1327 5 discriminator 2 view .LVU1294
1328:Middlewares/Third_Party/LwIP/src/apps/mqtt/mqtt.c ****     remaining_length = (u16_t)len;
 4534              		.loc 1 1328 5 discriminator 2 view .LVU1295
 4535              		.loc 1 1328 22 is_stmt 0 discriminator 2 view .LVU1296
 4536 00a8 A4B2     		uxth	r4, r4
 4537              	.LVL489:
 4538              	.L336:
1329:Middlewares/Third_Party/LwIP/src/apps/mqtt/mqtt.c ****   }
1330:Middlewares/Third_Party/LwIP/src/apps/mqtt/mqtt.c ****   if (client_info->client_user != NULL) {
 4539              		.loc 1 1330 3 is_stmt 1 view .LVU1297
 4540              		.loc 1 1330 18 is_stmt 0 view .LVU1298
 4541 00aa 7868     		ldr	r0, [r7, #4]
 4542              		.loc 1 1330 6 view .LVU1299
 4543 00ac 0028     		cmp	r0, #0
 4544 00ae 00F0CE80 		beq	.L358
1331:Middlewares/Third_Party/LwIP/src/apps/mqtt/mqtt.c ****     flags |= MQTT_CONNECT_FLAG_USERNAME;
 4545              		.loc 1 1331 5 is_stmt 1 view .LVU1300
 4546              		.loc 1 1331 11 is_stmt 0 view .LVU1301
ARM GAS  /tmp/ccVfyJBo.s 			page 123


 4547 00b2 46F08006 		orr	r6, r6, #128
 4548              	.LVL490:
1332:Middlewares/Third_Party/LwIP/src/apps/mqtt/mqtt.c ****     len = strlen(client_info->client_user);
 4549              		.loc 1 1332 5 is_stmt 1 view .LVU1302
 4550              		.loc 1 1332 11 is_stmt 0 view .LVU1303
 4551 00b6 FFF7FEFF 		bl	strlen
 4552              	.LVL491:
1333:Middlewares/Third_Party/LwIP/src/apps/mqtt/mqtt.c ****     LWIP_ERROR("mqtt_client_connect: client_info->client_user length overflow", len <= 0xFFFF, retu
 4553              		.loc 1 1333 5 is_stmt 1 view .LVU1304
 4554              		.loc 1 1333 5 view .LVU1305
 4555 00ba B0F5803F 		cmp	r0, #65536
 4556 00be 80F0A580 		bcs	.L370
 4557              		.loc 1 1333 5 discriminator 2 view .LVU1306
1334:Middlewares/Third_Party/LwIP/src/apps/mqtt/mqtt.c ****     LWIP_ERROR("mqtt_client_connect: client_info->client_user length must be > 0", len > 0, return 
 4558              		.loc 1 1334 5 discriminator 2 view .LVU1307
 4559              		.loc 1 1334 5 discriminator 2 view .LVU1308
 4560 00c2 0028     		cmp	r0, #0
 4561 00c4 00F0AD80 		beq	.L371
 4562              		.loc 1 1334 5 discriminator 2 view .LVU1309
1335:Middlewares/Third_Party/LwIP/src/apps/mqtt/mqtt.c ****     client_user_len = (u16_t)len;
 4563              		.loc 1 1335 5 discriminator 2 view .LVU1310
 4564              		.loc 1 1335 21 is_stmt 0 discriminator 2 view .LVU1311
 4565 00c8 1FFA80F9 		uxth	r9, r0
 4566              	.LVL492:
1336:Middlewares/Third_Party/LwIP/src/apps/mqtt/mqtt.c ****     len = remaining_length + 2 + client_user_len;
 4567              		.loc 1 1336 5 is_stmt 1 discriminator 2 view .LVU1312
 4568              		.loc 1 1336 28 is_stmt 0 discriminator 2 view .LVU1313
 4569 00cc 0234     		adds	r4, r4, #2
 4570              	.LVL493:
 4571              		.loc 1 1336 32 discriminator 2 view .LVU1314
 4572 00ce 4C44     		add	r4, r4, r9
 4573              	.LVL494:
1337:Middlewares/Third_Party/LwIP/src/apps/mqtt/mqtt.c ****     LWIP_ERROR("mqtt_client_connect: remaining_length overflow", len <= 0xFFFF, return ERR_VAL);
 4574              		.loc 1 1337 5 is_stmt 1 discriminator 2 view .LVU1315
 4575              		.loc 1 1337 5 discriminator 2 view .LVU1316
 4576 00d0 B4F5803F 		cmp	r4, #65536
 4577 00d4 80F0B080 		bcs	.L372
 4578              		.loc 1 1337 5 discriminator 2 view .LVU1317
1338:Middlewares/Third_Party/LwIP/src/apps/mqtt/mqtt.c ****     remaining_length = (u16_t)len;
 4579              		.loc 1 1338 5 discriminator 2 view .LVU1318
 4580              		.loc 1 1338 22 is_stmt 0 discriminator 2 view .LVU1319
 4581 00d8 A4B2     		uxth	r4, r4
 4582              	.LVL495:
 4583              	.L342:
1339:Middlewares/Third_Party/LwIP/src/apps/mqtt/mqtt.c ****   }
1340:Middlewares/Third_Party/LwIP/src/apps/mqtt/mqtt.c ****   if (client_info->client_pass != NULL) {
 4584              		.loc 1 1340 3 is_stmt 1 view .LVU1320
 4585              		.loc 1 1340 18 is_stmt 0 view .LVU1321
 4586 00da B868     		ldr	r0, [r7, #8]
 4587              		.loc 1 1340 6 view .LVU1322
 4588 00dc 0028     		cmp	r0, #0
 4589 00de 00F0DA80 		beq	.L359
1341:Middlewares/Third_Party/LwIP/src/apps/mqtt/mqtt.c ****     flags |= MQTT_CONNECT_FLAG_PASSWORD;
 4590              		.loc 1 1341 5 is_stmt 1 view .LVU1323
 4591              		.loc 1 1341 11 is_stmt 0 view .LVU1324
 4592 00e2 46F04006 		orr	r6, r6, #64
 4593              	.LVL496:
ARM GAS  /tmp/ccVfyJBo.s 			page 124


1342:Middlewares/Third_Party/LwIP/src/apps/mqtt/mqtt.c ****     len = strlen(client_info->client_pass);
 4594              		.loc 1 1342 5 is_stmt 1 view .LVU1325
 4595              		.loc 1 1342 11 is_stmt 0 view .LVU1326
 4596 00e6 FFF7FEFF 		bl	strlen
 4597              	.LVL497:
1343:Middlewares/Third_Party/LwIP/src/apps/mqtt/mqtt.c ****     LWIP_ERROR("mqtt_client_connect: client_info->client_pass length overflow", len <= 0xFFFF, retu
 4598              		.loc 1 1343 5 is_stmt 1 view .LVU1327
 4599              		.loc 1 1343 5 view .LVU1328
 4600 00ea B0F5803F 		cmp	r0, #65536
 4601 00ee 80F0B180 		bcs	.L373
 4602              		.loc 1 1343 5 discriminator 2 view .LVU1329
1344:Middlewares/Third_Party/LwIP/src/apps/mqtt/mqtt.c ****     LWIP_ERROR("mqtt_client_connect: client_info->client_pass length must be > 0", len > 0, return 
 4603              		.loc 1 1344 5 discriminator 2 view .LVU1330
 4604              		.loc 1 1344 5 discriminator 2 view .LVU1331
 4605 00f2 0028     		cmp	r0, #0
 4606 00f4 00F0B980 		beq	.L374
 4607              		.loc 1 1344 5 discriminator 2 view .LVU1332
1345:Middlewares/Third_Party/LwIP/src/apps/mqtt/mqtt.c ****     client_pass_len = (u16_t)len;
 4608              		.loc 1 1345 5 discriminator 2 view .LVU1333
 4609              		.loc 1 1345 21 is_stmt 0 discriminator 2 view .LVU1334
 4610 00f8 1FFA80FB 		uxth	fp, r0
 4611              	.LVL498:
1346:Middlewares/Third_Party/LwIP/src/apps/mqtt/mqtt.c ****     len = remaining_length + 2 + client_pass_len;
 4612              		.loc 1 1346 5 is_stmt 1 discriminator 2 view .LVU1335
 4613              		.loc 1 1346 28 is_stmt 0 discriminator 2 view .LVU1336
 4614 00fc 0234     		adds	r4, r4, #2
 4615              	.LVL499:
 4616              		.loc 1 1346 32 discriminator 2 view .LVU1337
 4617 00fe 5C44     		add	r4, r4, fp
 4618              	.LVL500:
1347:Middlewares/Third_Party/LwIP/src/apps/mqtt/mqtt.c ****     LWIP_ERROR("mqtt_client_connect: remaining_length overflow", len <= 0xFFFF, return ERR_VAL);
 4619              		.loc 1 1347 5 is_stmt 1 discriminator 2 view .LVU1338
 4620              		.loc 1 1347 5 discriminator 2 view .LVU1339
 4621 0100 B4F5803F 		cmp	r4, #65536
 4622 0104 80F0BC80 		bcs	.L375
 4623              		.loc 1 1347 5 discriminator 2 view .LVU1340
1348:Middlewares/Third_Party/LwIP/src/apps/mqtt/mqtt.c ****     remaining_length = (u16_t)len;
 4624              		.loc 1 1348 5 discriminator 2 view .LVU1341
 4625              		.loc 1 1348 22 is_stmt 0 discriminator 2 view .LVU1342
 4626 0108 A4B2     		uxth	r4, r4
 4627              	.LVL501:
 4628              	.L346:
1349:Middlewares/Third_Party/LwIP/src/apps/mqtt/mqtt.c ****   }
1350:Middlewares/Third_Party/LwIP/src/apps/mqtt/mqtt.c **** 
1351:Middlewares/Third_Party/LwIP/src/apps/mqtt/mqtt.c ****   /* Don't complicate things, always connect using clean session */
1352:Middlewares/Third_Party/LwIP/src/apps/mqtt/mqtt.c ****   flags |= MQTT_CONNECT_FLAG_CLEAN_SESSION;
 4629              		.loc 1 1352 3 is_stmt 1 view .LVU1343
 4630              		.loc 1 1352 9 is_stmt 0 view .LVU1344
 4631 010a 46F00203 		orr	r3, r6, #2
 4632 010e 0593     		str	r3, [sp, #20]
 4633              	.LVL502:
1353:Middlewares/Third_Party/LwIP/src/apps/mqtt/mqtt.c **** 
1354:Middlewares/Third_Party/LwIP/src/apps/mqtt/mqtt.c ****   len = strlen(client_info->client_id);
 4634              		.loc 1 1354 3 is_stmt 1 view .LVU1345
 4635              		.loc 1 1354 9 is_stmt 0 view .LVU1346
 4636 0110 3868     		ldr	r0, [r7]
 4637 0112 FFF7FEFF 		bl	strlen
ARM GAS  /tmp/ccVfyJBo.s 			page 125


 4638              	.LVL503:
1355:Middlewares/Third_Party/LwIP/src/apps/mqtt/mqtt.c ****   LWIP_ERROR("mqtt_client_connect: client_info->client_id length overflow", len <= 0xFFFF, return E
 4639              		.loc 1 1355 3 is_stmt 1 view .LVU1347
 4640              		.loc 1 1355 3 view .LVU1348
 4641 0116 B0F5803F 		cmp	r0, #65536
 4642 011a 80F0BF80 		bcs	.L376
 4643              		.loc 1 1355 3 discriminator 2 view .LVU1349
1356:Middlewares/Third_Party/LwIP/src/apps/mqtt/mqtt.c ****   client_id_length = (u16_t)len;
 4644              		.loc 1 1356 3 discriminator 2 view .LVU1350
 4645              		.loc 1 1356 20 is_stmt 0 discriminator 2 view .LVU1351
 4646 011e 1FFA80F8 		uxth	r8, r0
 4647              	.LVL504:
1357:Middlewares/Third_Party/LwIP/src/apps/mqtt/mqtt.c ****   len = remaining_length + 2 + client_id_length;
 4648              		.loc 1 1357 3 is_stmt 1 discriminator 2 view .LVU1352
 4649              		.loc 1 1357 26 is_stmt 0 discriminator 2 view .LVU1353
 4650 0122 0234     		adds	r4, r4, #2
 4651              	.LVL505:
 4652              		.loc 1 1357 30 discriminator 2 view .LVU1354
 4653 0124 4444     		add	r4, r4, r8
 4654              	.LVL506:
1358:Middlewares/Third_Party/LwIP/src/apps/mqtt/mqtt.c ****   LWIP_ERROR("mqtt_client_connect: remaining_length overflow", len <= 0xFFFF, return ERR_VAL);
 4655              		.loc 1 1358 3 is_stmt 1 discriminator 2 view .LVU1355
 4656              		.loc 1 1358 3 discriminator 2 view .LVU1356
 4657 0126 B4F5803F 		cmp	r4, #65536
 4658 012a 80F0C280 		bcs	.L377
 4659              		.loc 1 1358 3 discriminator 2 view .LVU1357
1359:Middlewares/Third_Party/LwIP/src/apps/mqtt/mqtt.c ****   remaining_length = (u16_t)len;
 4660              		.loc 1 1359 3 discriminator 2 view .LVU1358
 4661              		.loc 1 1359 20 is_stmt 0 discriminator 2 view .LVU1359
 4662 012e A4B2     		uxth	r4, r4
 4663              	.LVL507:
1360:Middlewares/Third_Party/LwIP/src/apps/mqtt/mqtt.c **** 
1361:Middlewares/Third_Party/LwIP/src/apps/mqtt/mqtt.c ****   if (mqtt_output_check_space(&client->output, remaining_length) == 0) {
 4664              		.loc 1 1361 3 is_stmt 1 discriminator 2 view .LVU1360
 4665              		.loc 1 1361 7 is_stmt 0 discriminator 2 view .LVU1361
 4666 0130 05F1EC0A 		add	r10, r5, #236
 4667 0134 2146     		mov	r1, r4
 4668 0136 5046     		mov	r0, r10
 4669 0138 FFF7FEFF 		bl	mqtt_output_check_space
 4670              	.LVL508:
 4671              		.loc 1 1361 6 discriminator 2 view .LVU1362
 4672 013c 0028     		cmp	r0, #0
 4673 013e 00F01881 		beq	.L360
1362:Middlewares/Third_Party/LwIP/src/apps/mqtt/mqtt.c ****     return ERR_MEM;
1363:Middlewares/Third_Party/LwIP/src/apps/mqtt/mqtt.c ****   }
1364:Middlewares/Third_Party/LwIP/src/apps/mqtt/mqtt.c **** 
1365:Middlewares/Third_Party/LwIP/src/apps/mqtt/mqtt.c **** #if LWIP_ALTCP && LWIP_ALTCP_TLS
1366:Middlewares/Third_Party/LwIP/src/apps/mqtt/mqtt.c ****   if (client_info->tls_config) {
1367:Middlewares/Third_Party/LwIP/src/apps/mqtt/mqtt.c ****     client->conn = altcp_tls_new(client_info->tls_config, IP_GET_TYPE(ip_addr));
1368:Middlewares/Third_Party/LwIP/src/apps/mqtt/mqtt.c ****   } else
1369:Middlewares/Third_Party/LwIP/src/apps/mqtt/mqtt.c **** #endif
1370:Middlewares/Third_Party/LwIP/src/apps/mqtt/mqtt.c ****   {
1371:Middlewares/Third_Party/LwIP/src/apps/mqtt/mqtt.c ****     client->conn = altcp_tcp_new_ip_type(IP_GET_TYPE(ip_addr));
 4674              		.loc 1 1371 5 is_stmt 1 view .LVU1363
 4675              		.loc 1 1371 20 is_stmt 0 view .LVU1364
 4676 0142 0020     		movs	r0, #0
 4677 0144 FFF7FEFF 		bl	tcp_new_ip_type
ARM GAS  /tmp/ccVfyJBo.s 			page 126


 4678              	.LVL509:
 4679              		.loc 1 1371 18 view .LVU1365
 4680 0148 E860     		str	r0, [r5, #12]
1372:Middlewares/Third_Party/LwIP/src/apps/mqtt/mqtt.c ****   }
1373:Middlewares/Third_Party/LwIP/src/apps/mqtt/mqtt.c ****   if (client->conn == NULL) {
 4681              		.loc 1 1373 3 is_stmt 1 view .LVU1366
 4682              		.loc 1 1373 6 is_stmt 0 view .LVU1367
 4683 014a 0028     		cmp	r0, #0
 4684 014c 00F01581 		beq	.L361
1374:Middlewares/Third_Party/LwIP/src/apps/mqtt/mqtt.c ****     return ERR_MEM;
1375:Middlewares/Third_Party/LwIP/src/apps/mqtt/mqtt.c ****   }
1376:Middlewares/Third_Party/LwIP/src/apps/mqtt/mqtt.c **** 
1377:Middlewares/Third_Party/LwIP/src/apps/mqtt/mqtt.c ****   /* Set arg pointer for callbacks */
1378:Middlewares/Third_Party/LwIP/src/apps/mqtt/mqtt.c ****   altcp_arg(client->conn, client);
 4685              		.loc 1 1378 3 is_stmt 1 view .LVU1368
 4686 0150 2946     		mov	r1, r5
 4687 0152 FFF7FEFF 		bl	tcp_arg
 4688              	.LVL510:
1379:Middlewares/Third_Party/LwIP/src/apps/mqtt/mqtt.c ****   /* Any local address, pick random local port number */
1380:Middlewares/Third_Party/LwIP/src/apps/mqtt/mqtt.c ****   err = altcp_bind(client->conn, IP_ADDR_ANY, 0);
 4689              		.loc 1 1380 3 view .LVU1369
 4690              		.loc 1 1380 9 is_stmt 0 view .LVU1370
 4691 0156 0022     		movs	r2, #0
 4692 0158 8A49     		ldr	r1, .L381
 4693 015a E868     		ldr	r0, [r5, #12]
 4694 015c FFF7FEFF 		bl	tcp_bind
 4695              	.LVL511:
1381:Middlewares/Third_Party/LwIP/src/apps/mqtt/mqtt.c ****   if (err != ERR_OK) {
 4696              		.loc 1 1381 3 is_stmt 1 view .LVU1371
 4697              		.loc 1 1381 6 is_stmt 0 view .LVU1372
 4698 0160 0390     		str	r0, [sp, #12]
 4699 0162 0028     		cmp	r0, #0
 4700 0164 00F0B080 		beq	.L378
 4701              	.L352:
 4702              	.LVL512:
1382:Middlewares/Third_Party/LwIP/src/apps/mqtt/mqtt.c ****     LWIP_DEBUGF(MQTT_DEBUG_WARN, ("mqtt_client_connect: Error binding to local ip/port, %d\n", err)
1383:Middlewares/Third_Party/LwIP/src/apps/mqtt/mqtt.c ****     goto tcp_fail;
1384:Middlewares/Third_Party/LwIP/src/apps/mqtt/mqtt.c ****   }
1385:Middlewares/Third_Party/LwIP/src/apps/mqtt/mqtt.c ****   LWIP_DEBUGF(MQTT_DEBUG_TRACE, ("mqtt_client_connect: Connecting to host: %s at port:%"U16_F"\n", 
1386:Middlewares/Third_Party/LwIP/src/apps/mqtt/mqtt.c **** 
1387:Middlewares/Third_Party/LwIP/src/apps/mqtt/mqtt.c ****   /* Connect to server */
1388:Middlewares/Third_Party/LwIP/src/apps/mqtt/mqtt.c ****   err = altcp_connect(client->conn, ip_addr, port, mqtt_tcp_connect_cb);
1389:Middlewares/Third_Party/LwIP/src/apps/mqtt/mqtt.c ****   if (err != ERR_OK) {
1390:Middlewares/Third_Party/LwIP/src/apps/mqtt/mqtt.c ****     LWIP_DEBUGF(MQTT_DEBUG_TRACE, ("mqtt_client_connect: Error connecting to remote ip/port, %d\n",
1391:Middlewares/Third_Party/LwIP/src/apps/mqtt/mqtt.c ****     goto tcp_fail;
1392:Middlewares/Third_Party/LwIP/src/apps/mqtt/mqtt.c ****   }
1393:Middlewares/Third_Party/LwIP/src/apps/mqtt/mqtt.c ****   /* Set error callback */
1394:Middlewares/Third_Party/LwIP/src/apps/mqtt/mqtt.c ****   altcp_err(client->conn, mqtt_tcp_err_cb);
1395:Middlewares/Third_Party/LwIP/src/apps/mqtt/mqtt.c ****   client->conn_state = TCP_CONNECTING;
1396:Middlewares/Third_Party/LwIP/src/apps/mqtt/mqtt.c **** 
1397:Middlewares/Third_Party/LwIP/src/apps/mqtt/mqtt.c ****   /* Append fixed header */
1398:Middlewares/Third_Party/LwIP/src/apps/mqtt/mqtt.c ****   mqtt_output_append_fixed_header(&client->output, MQTT_MSG_TYPE_CONNECT, 0, 0, 0, remaining_length
1399:Middlewares/Third_Party/LwIP/src/apps/mqtt/mqtt.c ****   /* Append Protocol string */
1400:Middlewares/Third_Party/LwIP/src/apps/mqtt/mqtt.c ****   mqtt_output_append_string(&client->output, "MQTT", 4);
1401:Middlewares/Third_Party/LwIP/src/apps/mqtt/mqtt.c ****   /* Append Protocol level */
1402:Middlewares/Third_Party/LwIP/src/apps/mqtt/mqtt.c ****   mqtt_output_append_u8(&client->output, 4);
1403:Middlewares/Third_Party/LwIP/src/apps/mqtt/mqtt.c ****   /* Append connect flags */
ARM GAS  /tmp/ccVfyJBo.s 			page 127


1404:Middlewares/Third_Party/LwIP/src/apps/mqtt/mqtt.c ****   mqtt_output_append_u8(&client->output, flags);
1405:Middlewares/Third_Party/LwIP/src/apps/mqtt/mqtt.c ****   /* Append keep-alive */
1406:Middlewares/Third_Party/LwIP/src/apps/mqtt/mqtt.c ****   mqtt_output_append_u16(&client->output, client_info->keep_alive);
1407:Middlewares/Third_Party/LwIP/src/apps/mqtt/mqtt.c ****   /* Append client id */
1408:Middlewares/Third_Party/LwIP/src/apps/mqtt/mqtt.c ****   mqtt_output_append_string(&client->output, client_info->client_id, client_id_length);
1409:Middlewares/Third_Party/LwIP/src/apps/mqtt/mqtt.c ****   /* Append will message if used */
1410:Middlewares/Third_Party/LwIP/src/apps/mqtt/mqtt.c ****   if ((flags & MQTT_CONNECT_FLAG_WILL) != 0) {
1411:Middlewares/Third_Party/LwIP/src/apps/mqtt/mqtt.c ****     mqtt_output_append_string(&client->output, client_info->will_topic, will_topic_len);
1412:Middlewares/Third_Party/LwIP/src/apps/mqtt/mqtt.c ****     mqtt_output_append_string(&client->output, client_info->will_msg, will_msg_len);
1413:Middlewares/Third_Party/LwIP/src/apps/mqtt/mqtt.c ****   }
1414:Middlewares/Third_Party/LwIP/src/apps/mqtt/mqtt.c ****   /* Append user name if given */
1415:Middlewares/Third_Party/LwIP/src/apps/mqtt/mqtt.c ****   if ((flags & MQTT_CONNECT_FLAG_USERNAME) != 0) {
1416:Middlewares/Third_Party/LwIP/src/apps/mqtt/mqtt.c ****     mqtt_output_append_string(&client->output, client_info->client_user, client_user_len);
1417:Middlewares/Third_Party/LwIP/src/apps/mqtt/mqtt.c ****   }
1418:Middlewares/Third_Party/LwIP/src/apps/mqtt/mqtt.c ****   /* Append password if given */
1419:Middlewares/Third_Party/LwIP/src/apps/mqtt/mqtt.c ****   if ((flags & MQTT_CONNECT_FLAG_PASSWORD) != 0) {
1420:Middlewares/Third_Party/LwIP/src/apps/mqtt/mqtt.c ****     mqtt_output_append_string(&client->output, client_info->client_pass, client_pass_len);
1421:Middlewares/Third_Party/LwIP/src/apps/mqtt/mqtt.c ****   }
1422:Middlewares/Third_Party/LwIP/src/apps/mqtt/mqtt.c ****   return ERR_OK;
1423:Middlewares/Third_Party/LwIP/src/apps/mqtt/mqtt.c **** 
1424:Middlewares/Third_Party/LwIP/src/apps/mqtt/mqtt.c **** tcp_fail:
1425:Middlewares/Third_Party/LwIP/src/apps/mqtt/mqtt.c ****   altcp_abort(client->conn);
 4703              		.loc 1 1425 3 is_stmt 1 view .LVU1373
 4704 0168 E868     		ldr	r0, [r5, #12]
 4705 016a FFF7FEFF 		bl	tcp_abort
 4706              	.LVL513:
1426:Middlewares/Third_Party/LwIP/src/apps/mqtt/mqtt.c ****   client->conn = NULL;
 4707              		.loc 1 1426 3 view .LVU1374
 4708              		.loc 1 1426 16 is_stmt 0 view .LVU1375
 4709 016e 0023     		movs	r3, #0
 4710 0170 EB60     		str	r3, [r5, #12]
1427:Middlewares/Third_Party/LwIP/src/apps/mqtt/mqtt.c ****   return err;
 4711              		.loc 1 1427 3 is_stmt 1 view .LVU1376
 4712              	.LVL514:
 4713              	.L335:
1428:Middlewares/Third_Party/LwIP/src/apps/mqtt/mqtt.c **** }
 4714              		.loc 1 1428 1 is_stmt 0 view .LVU1377
 4715 0172 0398     		ldr	r0, [sp, #12]
 4716 0174 09B0     		add	sp, sp, #36
 4717              	.LCFI49:
 4718              		.cfi_remember_state
 4719              		.cfi_def_cfa_offset 36
 4720              		@ sp needed
 4721 0176 BDE8F08F 		pop	{r4, r5, r6, r7, r8, r9, r10, fp, pc}
 4722              	.LVL515:
 4723              	.L363:
 4724              	.LCFI50:
 4725              		.cfi_restore_state
1295:Middlewares/Third_Party/LwIP/src/apps/mqtt/mqtt.c ****   LWIP_ASSERT("mqtt_client_connect: ip_addr != NULL", ip_addr != NULL);
 4726              		.loc 1 1295 3 is_stmt 1 discriminator 1 view .LVU1378
1295:Middlewares/Third_Party/LwIP/src/apps/mqtt/mqtt.c ****   LWIP_ASSERT("mqtt_client_connect: ip_addr != NULL", ip_addr != NULL);
 4727              		.loc 1 1295 3 discriminator 1 view .LVU1379
 4728 017a 834B     		ldr	r3, .L381+4
 4729              	.LVL516:
1295:Middlewares/Third_Party/LwIP/src/apps/mqtt/mqtt.c ****   LWIP_ASSERT("mqtt_client_connect: ip_addr != NULL", ip_addr != NULL);
 4730              		.loc 1 1295 3 is_stmt 0 discriminator 1 view .LVU1380
 4731 017c 40F20F52 		movw	r2, #1295
ARM GAS  /tmp/ccVfyJBo.s 			page 128


 4732              	.LVL517:
1295:Middlewares/Third_Party/LwIP/src/apps/mqtt/mqtt.c ****   LWIP_ASSERT("mqtt_client_connect: ip_addr != NULL", ip_addr != NULL);
 4733              		.loc 1 1295 3 discriminator 1 view .LVU1381
 4734 0180 8249     		ldr	r1, .L381+8
 4735              	.LVL518:
1295:Middlewares/Third_Party/LwIP/src/apps/mqtt/mqtt.c ****   LWIP_ASSERT("mqtt_client_connect: ip_addr != NULL", ip_addr != NULL);
 4736              		.loc 1 1295 3 discriminator 1 view .LVU1382
 4737 0182 8348     		ldr	r0, .L381+12
 4738              	.LVL519:
1295:Middlewares/Third_Party/LwIP/src/apps/mqtt/mqtt.c ****   LWIP_ASSERT("mqtt_client_connect: ip_addr != NULL", ip_addr != NULL);
 4739              		.loc 1 1295 3 discriminator 1 view .LVU1383
 4740 0184 FFF7FEFF 		bl	printf
 4741              	.LVL520:
 4742 0188 45E7     		b	.L331
 4743              	.L364:
1296:Middlewares/Third_Party/LwIP/src/apps/mqtt/mqtt.c ****   LWIP_ASSERT("mqtt_client_connect: client_info != NULL", client_info != NULL);
 4744              		.loc 1 1296 3 is_stmt 1 discriminator 1 view .LVU1384
1296:Middlewares/Third_Party/LwIP/src/apps/mqtt/mqtt.c ****   LWIP_ASSERT("mqtt_client_connect: client_info != NULL", client_info != NULL);
 4745              		.loc 1 1296 3 discriminator 1 view .LVU1385
 4746 018a 7F4B     		ldr	r3, .L381+4
 4747 018c 4FF4A262 		mov	r2, #1296
 4748 0190 8049     		ldr	r1, .L381+16
 4749 0192 7F48     		ldr	r0, .L381+12
 4750 0194 FFF7FEFF 		bl	printf
 4751              	.LVL521:
 4752 0198 41E7     		b	.L332
 4753              	.L365:
1297:Middlewares/Third_Party/LwIP/src/apps/mqtt/mqtt.c ****   LWIP_ASSERT("mqtt_client_connect: client_info->client_id != NULL", client_info->client_id != NULL
 4754              		.loc 1 1297 3 discriminator 1 view .LVU1386
1297:Middlewares/Third_Party/LwIP/src/apps/mqtt/mqtt.c ****   LWIP_ASSERT("mqtt_client_connect: client_info->client_id != NULL", client_info->client_id != NULL
 4755              		.loc 1 1297 3 discriminator 1 view .LVU1387
 4756 019a 7B4B     		ldr	r3, .L381+4
 4757 019c 40F21152 		movw	r2, #1297
 4758 01a0 7D49     		ldr	r1, .L381+20
 4759 01a2 7B48     		ldr	r0, .L381+12
 4760 01a4 FFF7FEFF 		bl	printf
 4761              	.LVL522:
 4762 01a8 3CE7     		b	.L333
 4763              	.L366:
1298:Middlewares/Third_Party/LwIP/src/apps/mqtt/mqtt.c **** 
 4764              		.loc 1 1298 3 discriminator 1 view .LVU1388
1298:Middlewares/Third_Party/LwIP/src/apps/mqtt/mqtt.c **** 
 4765              		.loc 1 1298 3 discriminator 1 view .LVU1389
 4766 01aa 774B     		ldr	r3, .L381+4
 4767 01ac 40F21252 		movw	r2, #1298
 4768 01b0 7A49     		ldr	r1, .L381+24
 4769 01b2 7748     		ldr	r0, .L381+12
 4770 01b4 FFF7FEFF 		bl	printf
 4771              	.LVL523:
 4772 01b8 38E7     		b	.L334
 4773              	.LVL524:
 4774              	.L367:
1320:Middlewares/Third_Party/LwIP/src/apps/mqtt/mqtt.c ****     LWIP_ERROR("mqtt_client_connect: client_info->will_topic length must be > 0", len > 0, return E
 4775              		.loc 1 1320 5 discriminator 1 view .LVU1390
1320:Middlewares/Third_Party/LwIP/src/apps/mqtt/mqtt.c ****     LWIP_ERROR("mqtt_client_connect: client_info->will_topic length must be > 0", len > 0, return E
 4776              		.loc 1 1320 5 discriminator 1 view .LVU1391
 4777 01ba 734B     		ldr	r3, .L381+4
ARM GAS  /tmp/ccVfyJBo.s 			page 129


 4778 01bc 4FF4A562 		mov	r2, #1320
 4779 01c0 7749     		ldr	r1, .L381+28
 4780 01c2 7348     		ldr	r0, .L381+12
 4781              	.LVL525:
1320:Middlewares/Third_Party/LwIP/src/apps/mqtt/mqtt.c ****     LWIP_ERROR("mqtt_client_connect: client_info->will_topic length must be > 0", len > 0, return E
 4782              		.loc 1 1320 5 is_stmt 0 discriminator 1 view .LVU1392
 4783 01c4 FFF7FEFF 		bl	printf
 4784              	.LVL526:
1320:Middlewares/Third_Party/LwIP/src/apps/mqtt/mqtt.c ****     LWIP_ERROR("mqtt_client_connect: client_info->will_topic length must be > 0", len > 0, return E
 4785              		.loc 1 1320 5 is_stmt 1 discriminator 1 view .LVU1393
1320:Middlewares/Third_Party/LwIP/src/apps/mqtt/mqtt.c ****     LWIP_ERROR("mqtt_client_connect: client_info->will_topic length must be > 0", len > 0, return E
 4786              		.loc 1 1320 5 discriminator 1 view .LVU1394
 4787 01c8 6FF00503 		mvn	r3, #5
 4788 01cc 0393     		str	r3, [sp, #12]
 4789 01ce D0E7     		b	.L335
 4790              	.LVL527:
 4791              	.L368:
1321:Middlewares/Third_Party/LwIP/src/apps/mqtt/mqtt.c ****     will_topic_len = (u8_t)len;
 4792              		.loc 1 1321 5 discriminator 1 view .LVU1395
1321:Middlewares/Third_Party/LwIP/src/apps/mqtt/mqtt.c ****     will_topic_len = (u8_t)len;
 4793              		.loc 1 1321 5 discriminator 1 view .LVU1396
 4794 01d0 6D4B     		ldr	r3, .L381+4
 4795 01d2 40F22952 		movw	r2, #1321
 4796 01d6 7349     		ldr	r1, .L381+32
 4797 01d8 6D48     		ldr	r0, .L381+12
 4798              	.LVL528:
1321:Middlewares/Third_Party/LwIP/src/apps/mqtt/mqtt.c ****     will_topic_len = (u8_t)len;
 4799              		.loc 1 1321 5 is_stmt 0 discriminator 1 view .LVU1397
 4800 01da FFF7FEFF 		bl	printf
 4801              	.LVL529:
1321:Middlewares/Third_Party/LwIP/src/apps/mqtt/mqtt.c ****     will_topic_len = (u8_t)len;
 4802              		.loc 1 1321 5 is_stmt 1 discriminator 1 view .LVU1398
1321:Middlewares/Third_Party/LwIP/src/apps/mqtt/mqtt.c ****     will_topic_len = (u8_t)len;
 4803              		.loc 1 1321 5 discriminator 1 view .LVU1399
 4804 01de 6FF00503 		mvn	r3, #5
 4805 01e2 0393     		str	r3, [sp, #12]
 4806 01e4 C5E7     		b	.L335
 4807              	.LVL530:
 4808              	.L369:
1324:Middlewares/Third_Party/LwIP/src/apps/mqtt/mqtt.c ****     will_msg_len = (u8_t)len;
 4809              		.loc 1 1324 5 discriminator 1 view .LVU1400
1324:Middlewares/Third_Party/LwIP/src/apps/mqtt/mqtt.c ****     will_msg_len = (u8_t)len;
 4810              		.loc 1 1324 5 discriminator 1 view .LVU1401
 4811 01e6 684B     		ldr	r3, .L381+4
 4812 01e8 40F22C52 		movw	r2, #1324
 4813 01ec 6E49     		ldr	r1, .L381+36
 4814 01ee 6848     		ldr	r0, .L381+12
 4815              	.LVL531:
1324:Middlewares/Third_Party/LwIP/src/apps/mqtt/mqtt.c ****     will_msg_len = (u8_t)len;
 4816              		.loc 1 1324 5 is_stmt 0 discriminator 1 view .LVU1402
 4817 01f0 FFF7FEFF 		bl	printf
 4818              	.LVL532:
1324:Middlewares/Third_Party/LwIP/src/apps/mqtt/mqtt.c ****     will_msg_len = (u8_t)len;
 4819              		.loc 1 1324 5 is_stmt 1 discriminator 1 view .LVU1403
1324:Middlewares/Third_Party/LwIP/src/apps/mqtt/mqtt.c ****     will_msg_len = (u8_t)len;
 4820              		.loc 1 1324 5 discriminator 1 view .LVU1404
 4821 01f4 6FF00503 		mvn	r3, #5
ARM GAS  /tmp/ccVfyJBo.s 			page 130


 4822 01f8 0393     		str	r3, [sp, #12]
 4823 01fa BAE7     		b	.L335
 4824              	.LVL533:
 4825              	.L356:
1291:Middlewares/Third_Party/LwIP/src/apps/mqtt/mqtt.c ****   u16_t client_user_len = 0, client_pass_len = 0;
 4826              		.loc 1 1291 39 is_stmt 0 view .LVU1405
 4827 01fc 0796     		str	r6, [sp, #28]
1291:Middlewares/Third_Party/LwIP/src/apps/mqtt/mqtt.c ****   u16_t client_user_len = 0, client_pass_len = 0;
 4828              		.loc 1 1291 19 view .LVU1406
 4829 01fe 0696     		str	r6, [sp, #24]
1290:Middlewares/Third_Party/LwIP/src/apps/mqtt/mqtt.c ****   u8_t flags = 0, will_topic_len = 0, will_msg_len = 0;
 4830              		.loc 1 1290 9 view .LVU1407
 4831 0200 0A24     		movs	r4, #10
 4832              	.LVL534:
1290:Middlewares/Third_Party/LwIP/src/apps/mqtt/mqtt.c ****   u8_t flags = 0, will_topic_len = 0, will_msg_len = 0;
 4833              		.loc 1 1290 9 view .LVU1408
 4834 0202 52E7     		b	.L336
 4835              	.LVL535:
 4836              	.L357:
1291:Middlewares/Third_Party/LwIP/src/apps/mqtt/mqtt.c ****   u16_t client_user_len = 0, client_pass_len = 0;
 4837              		.loc 1 1291 39 view .LVU1409
 4838 0204 0796     		str	r6, [sp, #28]
1291:Middlewares/Third_Party/LwIP/src/apps/mqtt/mqtt.c ****   u16_t client_user_len = 0, client_pass_len = 0;
 4839              		.loc 1 1291 19 view .LVU1410
 4840 0206 0696     		str	r6, [sp, #24]
1290:Middlewares/Third_Party/LwIP/src/apps/mqtt/mqtt.c ****   u8_t flags = 0, will_topic_len = 0, will_msg_len = 0;
 4841              		.loc 1 1290 9 view .LVU1411
 4842 0208 0A24     		movs	r4, #10
 4843              	.LVL536:
1290:Middlewares/Third_Party/LwIP/src/apps/mqtt/mqtt.c ****   u8_t flags = 0, will_topic_len = 0, will_msg_len = 0;
 4844              		.loc 1 1290 9 view .LVU1412
 4845 020a 4EE7     		b	.L336
 4846              	.LVL537:
 4847              	.L370:
1333:Middlewares/Third_Party/LwIP/src/apps/mqtt/mqtt.c ****     LWIP_ERROR("mqtt_client_connect: client_info->client_user length must be > 0", len > 0, return 
 4848              		.loc 1 1333 5 is_stmt 1 discriminator 1 view .LVU1413
1333:Middlewares/Third_Party/LwIP/src/apps/mqtt/mqtt.c ****     LWIP_ERROR("mqtt_client_connect: client_info->client_user length must be > 0", len > 0, return 
 4849              		.loc 1 1333 5 discriminator 1 view .LVU1414
 4850 020c 5E4B     		ldr	r3, .L381+4
 4851 020e 40F23552 		movw	r2, #1333
 4852 0212 6649     		ldr	r1, .L381+40
 4853 0214 5E48     		ldr	r0, .L381+12
 4854              	.LVL538:
1333:Middlewares/Third_Party/LwIP/src/apps/mqtt/mqtt.c ****     LWIP_ERROR("mqtt_client_connect: client_info->client_user length must be > 0", len > 0, return 
 4855              		.loc 1 1333 5 is_stmt 0 discriminator 1 view .LVU1415
 4856 0216 FFF7FEFF 		bl	printf
 4857              	.LVL539:
1333:Middlewares/Third_Party/LwIP/src/apps/mqtt/mqtt.c ****     LWIP_ERROR("mqtt_client_connect: client_info->client_user length must be > 0", len > 0, return 
 4858              		.loc 1 1333 5 is_stmt 1 discriminator 1 view .LVU1416
1333:Middlewares/Third_Party/LwIP/src/apps/mqtt/mqtt.c ****     LWIP_ERROR("mqtt_client_connect: client_info->client_user length must be > 0", len > 0, return 
 4859              		.loc 1 1333 5 discriminator 1 view .LVU1417
 4860 021a 6FF00503 		mvn	r3, #5
 4861 021e 0393     		str	r3, [sp, #12]
 4862 0220 A7E7     		b	.L335
 4863              	.LVL540:
 4864              	.L371:
1334:Middlewares/Third_Party/LwIP/src/apps/mqtt/mqtt.c ****     client_user_len = (u16_t)len;
ARM GAS  /tmp/ccVfyJBo.s 			page 131


 4865              		.loc 1 1334 5 discriminator 1 view .LVU1418
1334:Middlewares/Third_Party/LwIP/src/apps/mqtt/mqtt.c ****     client_user_len = (u16_t)len;
 4866              		.loc 1 1334 5 discriminator 1 view .LVU1419
 4867 0222 594B     		ldr	r3, .L381+4
 4868 0224 40F23652 		movw	r2, #1334
 4869 0228 6149     		ldr	r1, .L381+44
 4870 022a 5948     		ldr	r0, .L381+12
 4871              	.LVL541:
1334:Middlewares/Third_Party/LwIP/src/apps/mqtt/mqtt.c ****     client_user_len = (u16_t)len;
 4872              		.loc 1 1334 5 is_stmt 0 discriminator 1 view .LVU1420
 4873 022c FFF7FEFF 		bl	printf
 4874              	.LVL542:
1334:Middlewares/Third_Party/LwIP/src/apps/mqtt/mqtt.c ****     client_user_len = (u16_t)len;
 4875              		.loc 1 1334 5 is_stmt 1 discriminator 1 view .LVU1421
1334:Middlewares/Third_Party/LwIP/src/apps/mqtt/mqtt.c ****     client_user_len = (u16_t)len;
 4876              		.loc 1 1334 5 discriminator 1 view .LVU1422
 4877 0230 6FF00503 		mvn	r3, #5
 4878 0234 0393     		str	r3, [sp, #12]
 4879 0236 9CE7     		b	.L335
 4880              	.LVL543:
 4881              	.L372:
1337:Middlewares/Third_Party/LwIP/src/apps/mqtt/mqtt.c ****     remaining_length = (u16_t)len;
 4882              		.loc 1 1337 5 discriminator 1 view .LVU1423
1337:Middlewares/Third_Party/LwIP/src/apps/mqtt/mqtt.c ****     remaining_length = (u16_t)len;
 4883              		.loc 1 1337 5 discriminator 1 view .LVU1424
 4884 0238 534B     		ldr	r3, .L381+4
 4885 023a 40F23952 		movw	r2, #1337
 4886 023e 5D49     		ldr	r1, .L381+48
 4887 0240 5348     		ldr	r0, .L381+12
 4888 0242 FFF7FEFF 		bl	printf
 4889              	.LVL544:
1337:Middlewares/Third_Party/LwIP/src/apps/mqtt/mqtt.c ****     remaining_length = (u16_t)len;
 4890              		.loc 1 1337 5 discriminator 1 view .LVU1425
1337:Middlewares/Third_Party/LwIP/src/apps/mqtt/mqtt.c ****     remaining_length = (u16_t)len;
 4891              		.loc 1 1337 5 discriminator 1 view .LVU1426
 4892 0246 6FF00503 		mvn	r3, #5
 4893 024a 0393     		str	r3, [sp, #12]
 4894 024c 91E7     		b	.L335
 4895              	.LVL545:
 4896              	.L358:
1292:Middlewares/Third_Party/LwIP/src/apps/mqtt/mqtt.c **** 
 4897              		.loc 1 1292 9 is_stmt 0 view .LVU1427
 4898 024e 4FF00009 		mov	r9, #0
 4899 0252 42E7     		b	.L342
 4900              	.LVL546:
 4901              	.L373:
1343:Middlewares/Third_Party/LwIP/src/apps/mqtt/mqtt.c ****     LWIP_ERROR("mqtt_client_connect: client_info->client_pass length must be > 0", len > 0, return 
 4902              		.loc 1 1343 5 is_stmt 1 discriminator 1 view .LVU1428
1343:Middlewares/Third_Party/LwIP/src/apps/mqtt/mqtt.c ****     LWIP_ERROR("mqtt_client_connect: client_info->client_pass length must be > 0", len > 0, return 
 4903              		.loc 1 1343 5 discriminator 1 view .LVU1429
 4904 0254 4C4B     		ldr	r3, .L381+4
 4905 0256 40F23F52 		movw	r2, #1343
 4906 025a 5749     		ldr	r1, .L381+52
 4907 025c 4C48     		ldr	r0, .L381+12
 4908              	.LVL547:
1343:Middlewares/Third_Party/LwIP/src/apps/mqtt/mqtt.c ****     LWIP_ERROR("mqtt_client_connect: client_info->client_pass length must be > 0", len > 0, return 
 4909              		.loc 1 1343 5 is_stmt 0 discriminator 1 view .LVU1430
ARM GAS  /tmp/ccVfyJBo.s 			page 132


 4910 025e FFF7FEFF 		bl	printf
 4911              	.LVL548:
1343:Middlewares/Third_Party/LwIP/src/apps/mqtt/mqtt.c ****     LWIP_ERROR("mqtt_client_connect: client_info->client_pass length must be > 0", len > 0, return 
 4912              		.loc 1 1343 5 is_stmt 1 discriminator 1 view .LVU1431
1343:Middlewares/Third_Party/LwIP/src/apps/mqtt/mqtt.c ****     LWIP_ERROR("mqtt_client_connect: client_info->client_pass length must be > 0", len > 0, return 
 4913              		.loc 1 1343 5 discriminator 1 view .LVU1432
 4914 0262 6FF00503 		mvn	r3, #5
 4915 0266 0393     		str	r3, [sp, #12]
 4916 0268 83E7     		b	.L335
 4917              	.LVL549:
 4918              	.L374:
1344:Middlewares/Third_Party/LwIP/src/apps/mqtt/mqtt.c ****     client_pass_len = (u16_t)len;
 4919              		.loc 1 1344 5 discriminator 1 view .LVU1433
1344:Middlewares/Third_Party/LwIP/src/apps/mqtt/mqtt.c ****     client_pass_len = (u16_t)len;
 4920              		.loc 1 1344 5 discriminator 1 view .LVU1434
 4921 026a 474B     		ldr	r3, .L381+4
 4922 026c 4FF4A862 		mov	r2, #1344
 4923 0270 5249     		ldr	r1, .L381+56
 4924 0272 4748     		ldr	r0, .L381+12
 4925              	.LVL550:
1344:Middlewares/Third_Party/LwIP/src/apps/mqtt/mqtt.c ****     client_pass_len = (u16_t)len;
 4926              		.loc 1 1344 5 is_stmt 0 discriminator 1 view .LVU1435
 4927 0274 FFF7FEFF 		bl	printf
 4928              	.LVL551:
1344:Middlewares/Third_Party/LwIP/src/apps/mqtt/mqtt.c ****     client_pass_len = (u16_t)len;
 4929              		.loc 1 1344 5 is_stmt 1 discriminator 1 view .LVU1436
1344:Middlewares/Third_Party/LwIP/src/apps/mqtt/mqtt.c ****     client_pass_len = (u16_t)len;
 4930              		.loc 1 1344 5 discriminator 1 view .LVU1437
 4931 0278 6FF00503 		mvn	r3, #5
 4932 027c 0393     		str	r3, [sp, #12]
 4933 027e 78E7     		b	.L335
 4934              	.LVL552:
 4935              	.L375:
1347:Middlewares/Third_Party/LwIP/src/apps/mqtt/mqtt.c ****     remaining_length = (u16_t)len;
 4936              		.loc 1 1347 5 discriminator 1 view .LVU1438
1347:Middlewares/Third_Party/LwIP/src/apps/mqtt/mqtt.c ****     remaining_length = (u16_t)len;
 4937              		.loc 1 1347 5 discriminator 1 view .LVU1439
 4938 0280 414B     		ldr	r3, .L381+4
 4939 0282 40F24352 		movw	r2, #1347
 4940 0286 4B49     		ldr	r1, .L381+48
 4941 0288 4148     		ldr	r0, .L381+12
 4942 028a FFF7FEFF 		bl	printf
 4943              	.LVL553:
1347:Middlewares/Third_Party/LwIP/src/apps/mqtt/mqtt.c ****     remaining_length = (u16_t)len;
 4944              		.loc 1 1347 5 discriminator 1 view .LVU1440
1347:Middlewares/Third_Party/LwIP/src/apps/mqtt/mqtt.c ****     remaining_length = (u16_t)len;
 4945              		.loc 1 1347 5 discriminator 1 view .LVU1441
 4946 028e 6FF00503 		mvn	r3, #5
 4947 0292 0393     		str	r3, [sp, #12]
 4948 0294 6DE7     		b	.L335
 4949              	.LVL554:
 4950              	.L359:
1292:Middlewares/Third_Party/LwIP/src/apps/mqtt/mqtt.c **** 
 4951              		.loc 1 1292 30 is_stmt 0 view .LVU1442
 4952 0296 4FF0000B 		mov	fp, #0
 4953 029a 36E7     		b	.L346
 4954              	.LVL555:
ARM GAS  /tmp/ccVfyJBo.s 			page 133


 4955              	.L376:
1355:Middlewares/Third_Party/LwIP/src/apps/mqtt/mqtt.c ****   client_id_length = (u16_t)len;
 4956              		.loc 1 1355 3 is_stmt 1 discriminator 1 view .LVU1443
1355:Middlewares/Third_Party/LwIP/src/apps/mqtt/mqtt.c ****   client_id_length = (u16_t)len;
 4957              		.loc 1 1355 3 discriminator 1 view .LVU1444
 4958 029c 3A4B     		ldr	r3, .L381+4
 4959 029e 40F24B52 		movw	r2, #1355
 4960 02a2 4749     		ldr	r1, .L381+60
 4961 02a4 3A48     		ldr	r0, .L381+12
 4962              	.LVL556:
1355:Middlewares/Third_Party/LwIP/src/apps/mqtt/mqtt.c ****   client_id_length = (u16_t)len;
 4963              		.loc 1 1355 3 is_stmt 0 discriminator 1 view .LVU1445
 4964 02a6 FFF7FEFF 		bl	printf
 4965              	.LVL557:
1355:Middlewares/Third_Party/LwIP/src/apps/mqtt/mqtt.c ****   client_id_length = (u16_t)len;
 4966              		.loc 1 1355 3 is_stmt 1 discriminator 1 view .LVU1446
1355:Middlewares/Third_Party/LwIP/src/apps/mqtt/mqtt.c ****   client_id_length = (u16_t)len;
 4967              		.loc 1 1355 3 discriminator 1 view .LVU1447
 4968 02aa 6FF00503 		mvn	r3, #5
 4969 02ae 0393     		str	r3, [sp, #12]
 4970 02b0 5FE7     		b	.L335
 4971              	.LVL558:
 4972              	.L377:
1358:Middlewares/Third_Party/LwIP/src/apps/mqtt/mqtt.c ****   remaining_length = (u16_t)len;
 4973              		.loc 1 1358 3 discriminator 1 view .LVU1448
1358:Middlewares/Third_Party/LwIP/src/apps/mqtt/mqtt.c ****   remaining_length = (u16_t)len;
 4974              		.loc 1 1358 3 discriminator 1 view .LVU1449
 4975 02b2 354B     		ldr	r3, .L381+4
 4976 02b4 40F24E52 		movw	r2, #1358
 4977 02b8 3E49     		ldr	r1, .L381+48
 4978 02ba 3548     		ldr	r0, .L381+12
 4979 02bc FFF7FEFF 		bl	printf
 4980              	.LVL559:
1358:Middlewares/Third_Party/LwIP/src/apps/mqtt/mqtt.c ****   remaining_length = (u16_t)len;
 4981              		.loc 1 1358 3 discriminator 1 view .LVU1450
1358:Middlewares/Third_Party/LwIP/src/apps/mqtt/mqtt.c ****   remaining_length = (u16_t)len;
 4982              		.loc 1 1358 3 discriminator 1 view .LVU1451
 4983 02c0 6FF00503 		mvn	r3, #5
 4984 02c4 0393     		str	r3, [sp, #12]
 4985 02c6 54E7     		b	.L335
 4986              	.LVL560:
 4987              	.L378:
1385:Middlewares/Third_Party/LwIP/src/apps/mqtt/mqtt.c **** 
 4988              		.loc 1 1385 128 view .LVU1452
1388:Middlewares/Third_Party/LwIP/src/apps/mqtt/mqtt.c ****   if (err != ERR_OK) {
 4989              		.loc 1 1388 3 view .LVU1453
1388:Middlewares/Third_Party/LwIP/src/apps/mqtt/mqtt.c ****   if (err != ERR_OK) {
 4990              		.loc 1 1388 9 is_stmt 0 view .LVU1454
 4991 02c8 3E4B     		ldr	r3, .L381+64
 4992 02ca 049A     		ldr	r2, [sp, #16]
 4993 02cc 0299     		ldr	r1, [sp, #8]
 4994 02ce E868     		ldr	r0, [r5, #12]
 4995              	.LVL561:
1388:Middlewares/Third_Party/LwIP/src/apps/mqtt/mqtt.c ****   if (err != ERR_OK) {
 4996              		.loc 1 1388 9 view .LVU1455
 4997 02d0 FFF7FEFF 		bl	tcp_connect
 4998              	.LVL562:
ARM GAS  /tmp/ccVfyJBo.s 			page 134


1389:Middlewares/Third_Party/LwIP/src/apps/mqtt/mqtt.c ****     LWIP_DEBUGF(MQTT_DEBUG_TRACE, ("mqtt_client_connect: Error connecting to remote ip/port, %d\n",
 4999              		.loc 1 1389 3 is_stmt 1 view .LVU1456
1389:Middlewares/Third_Party/LwIP/src/apps/mqtt/mqtt.c ****     LWIP_DEBUGF(MQTT_DEBUG_TRACE, ("mqtt_client_connect: Error connecting to remote ip/port, %d\n",
 5000              		.loc 1 1389 6 is_stmt 0 view .LVU1457
 5001 02d4 0390     		str	r0, [sp, #12]
 5002 02d6 0028     		cmp	r0, #0
 5003 02d8 7FF446AF 		bne	.L352
1394:Middlewares/Third_Party/LwIP/src/apps/mqtt/mqtt.c ****   client->conn_state = TCP_CONNECTING;
 5004              		.loc 1 1394 3 is_stmt 1 view .LVU1458
 5005 02dc 3A49     		ldr	r1, .L381+68
 5006 02de E868     		ldr	r0, [r5, #12]
 5007              	.LVL563:
1394:Middlewares/Third_Party/LwIP/src/apps/mqtt/mqtt.c ****   client->conn_state = TCP_CONNECTING;
 5008              		.loc 1 1394 3 is_stmt 0 view .LVU1459
 5009 02e0 FFF7FEFF 		bl	tcp_err
 5010              	.LVL564:
1395:Middlewares/Third_Party/LwIP/src/apps/mqtt/mqtt.c **** 
 5011              		.loc 1 1395 3 is_stmt 1 view .LVU1460
1395:Middlewares/Third_Party/LwIP/src/apps/mqtt/mqtt.c **** 
 5012              		.loc 1 1395 22 is_stmt 0 view .LVU1461
 5013 02e4 0121     		movs	r1, #1
 5014 02e6 A972     		strb	r1, [r5, #10]
1398:Middlewares/Third_Party/LwIP/src/apps/mqtt/mqtt.c ****   /* Append Protocol string */
 5015              		.loc 1 1398 3 is_stmt 1 view .LVU1462
 5016 02e8 0194     		str	r4, [sp, #4]
 5017 02ea 0022     		movs	r2, #0
 5018 02ec 0092     		str	r2, [sp]
 5019 02ee 1346     		mov	r3, r2
 5020 02f0 5046     		mov	r0, r10
 5021 02f2 FFF7FEFF 		bl	mqtt_output_append_fixed_header
 5022              	.LVL565:
1400:Middlewares/Third_Party/LwIP/src/apps/mqtt/mqtt.c ****   /* Append Protocol level */
 5023              		.loc 1 1400 3 view .LVU1463
 5024 02f6 0422     		movs	r2, #4
 5025 02f8 3449     		ldr	r1, .L381+72
 5026 02fa 5046     		mov	r0, r10
 5027 02fc FFF7FEFF 		bl	mqtt_output_append_string
 5028              	.LVL566:
1402:Middlewares/Third_Party/LwIP/src/apps/mqtt/mqtt.c ****   /* Append connect flags */
 5029              		.loc 1 1402 3 view .LVU1464
 5030 0300 0421     		movs	r1, #4
 5031 0302 5046     		mov	r0, r10
 5032 0304 FFF7FEFF 		bl	mqtt_output_append_u8
 5033              	.LVL567:
1404:Middlewares/Third_Party/LwIP/src/apps/mqtt/mqtt.c ****   /* Append keep-alive */
 5034              		.loc 1 1404 3 view .LVU1465
 5035 0308 0599     		ldr	r1, [sp, #20]
 5036 030a 5046     		mov	r0, r10
 5037 030c FFF7FEFF 		bl	mqtt_output_append_u8
 5038              	.LVL568:
1406:Middlewares/Third_Party/LwIP/src/apps/mqtt/mqtt.c ****   /* Append client id */
 5039              		.loc 1 1406 3 view .LVU1466
 5040 0310 B989     		ldrh	r1, [r7, #12]
 5041 0312 5046     		mov	r0, r10
 5042 0314 FFF7FEFF 		bl	mqtt_output_append_u16
 5043              	.LVL569:
1408:Middlewares/Third_Party/LwIP/src/apps/mqtt/mqtt.c ****   /* Append will message if used */
ARM GAS  /tmp/ccVfyJBo.s 			page 135


 5044              		.loc 1 1408 3 view .LVU1467
 5045 0318 4246     		mov	r2, r8
 5046 031a 3968     		ldr	r1, [r7]
 5047 031c 5046     		mov	r0, r10
 5048 031e FFF7FEFF 		bl	mqtt_output_append_string
 5049              	.LVL570:
1410:Middlewares/Third_Party/LwIP/src/apps/mqtt/mqtt.c ****     mqtt_output_append_string(&client->output, client_info->will_topic, will_topic_len);
 5050              		.loc 1 1410 3 view .LVU1468
1410:Middlewares/Third_Party/LwIP/src/apps/mqtt/mqtt.c ****     mqtt_output_append_string(&client->output, client_info->will_topic, will_topic_len);
 5051              		.loc 1 1410 6 is_stmt 0 view .LVU1469
 5052 0322 16F0040F 		tst	r6, #4
 5053 0326 0DD1     		bne	.L379
 5054              	.L353:
1415:Middlewares/Third_Party/LwIP/src/apps/mqtt/mqtt.c ****     mqtt_output_append_string(&client->output, client_info->client_user, client_user_len);
 5055              		.loc 1 1415 3 is_stmt 1 view .LVU1470
1415:Middlewares/Third_Party/LwIP/src/apps/mqtt/mqtt.c ****     mqtt_output_append_string(&client->output, client_info->client_user, client_user_len);
 5056              		.loc 1 1415 6 is_stmt 0 view .LVU1471
 5057 0328 059B     		ldr	r3, [sp, #20]
 5058 032a 13F0800F 		tst	r3, #128
 5059 032e 16D1     		bne	.L380
 5060              	.L354:
1419:Middlewares/Third_Party/LwIP/src/apps/mqtt/mqtt.c ****     mqtt_output_append_string(&client->output, client_info->client_pass, client_pass_len);
 5061              		.loc 1 1419 3 is_stmt 1 view .LVU1472
1419:Middlewares/Third_Party/LwIP/src/apps/mqtt/mqtt.c ****     mqtt_output_append_string(&client->output, client_info->client_pass, client_pass_len);
 5062              		.loc 1 1419 6 is_stmt 0 view .LVU1473
 5063 0330 16F0400F 		tst	r6, #64
 5064 0334 3FF41DAF 		beq	.L335
1420:Middlewares/Third_Party/LwIP/src/apps/mqtt/mqtt.c ****   }
 5065              		.loc 1 1420 5 is_stmt 1 view .LVU1474
 5066 0338 5A46     		mov	r2, fp
 5067 033a B968     		ldr	r1, [r7, #8]
 5068 033c 5046     		mov	r0, r10
 5069 033e FFF7FEFF 		bl	mqtt_output_append_string
 5070              	.LVL571:
 5071 0342 16E7     		b	.L335
 5072              	.L379:
1411:Middlewares/Third_Party/LwIP/src/apps/mqtt/mqtt.c ****     mqtt_output_append_string(&client->output, client_info->will_msg, will_msg_len);
 5073              		.loc 1 1411 5 view .LVU1475
 5074 0344 BDF81820 		ldrh	r2, [sp, #24]
 5075 0348 3969     		ldr	r1, [r7, #16]
 5076 034a 5046     		mov	r0, r10
 5077 034c FFF7FEFF 		bl	mqtt_output_append_string
 5078              	.LVL572:
1412:Middlewares/Third_Party/LwIP/src/apps/mqtt/mqtt.c ****   }
 5079              		.loc 1 1412 5 view .LVU1476
 5080 0350 BDF81C20 		ldrh	r2, [sp, #28]
 5081 0354 7969     		ldr	r1, [r7, #20]
 5082 0356 5046     		mov	r0, r10
 5083 0358 FFF7FEFF 		bl	mqtt_output_append_string
 5084              	.LVL573:
 5085 035c E4E7     		b	.L353
 5086              	.L380:
1416:Middlewares/Third_Party/LwIP/src/apps/mqtt/mqtt.c ****   }
 5087              		.loc 1 1416 5 view .LVU1477
 5088 035e 4A46     		mov	r2, r9
 5089 0360 7968     		ldr	r1, [r7, #4]
 5090 0362 5046     		mov	r0, r10
ARM GAS  /tmp/ccVfyJBo.s 			page 136


 5091 0364 FFF7FEFF 		bl	mqtt_output_append_string
 5092              	.LVL574:
 5093 0368 E2E7     		b	.L354
 5094              	.LVL575:
 5095              	.L355:
1302:Middlewares/Third_Party/LwIP/src/apps/mqtt/mqtt.c ****   }
 5096              		.loc 1 1302 12 is_stmt 0 view .LVU1478
 5097 036a 6FF00903 		mvn	r3, #9
 5098 036e 0393     		str	r3, [sp, #12]
 5099 0370 FFE6     		b	.L335
 5100              	.LVL576:
 5101              	.L360:
1362:Middlewares/Third_Party/LwIP/src/apps/mqtt/mqtt.c ****   }
 5102              		.loc 1 1362 12 view .LVU1479
 5103 0372 4FF0FF33 		mov	r3, #-1
 5104 0376 0393     		str	r3, [sp, #12]
 5105 0378 FBE6     		b	.L335
 5106              	.L361:
1374:Middlewares/Third_Party/LwIP/src/apps/mqtt/mqtt.c ****   }
 5107              		.loc 1 1374 12 view .LVU1480
 5108 037a 4FF0FF33 		mov	r3, #-1
 5109 037e 0393     		str	r3, [sp, #12]
 5110 0380 F7E6     		b	.L335
 5111              	.L382:
 5112 0382 00BF     		.align	2
 5113              	.L381:
 5114 0384 00000000 		.word	ip_addr_any
 5115 0388 00000000 		.word	.LC0
 5116 038c 00000000 		.word	.LC31
 5117 0390 58000000 		.word	.LC2
 5118 0394 24000000 		.word	.LC32
 5119 0398 4C000000 		.word	.LC33
 5120 039c 78000000 		.word	.LC34
 5121 03a0 AC000000 		.word	.LC35
 5122 03a4 EC000000 		.word	.LC36
 5123 03a8 2C010000 		.word	.LC37
 5124 03ac 98010000 		.word	.LC39
 5125 03b0 D8010000 		.word	.LC40
 5126 03b4 68010000 		.word	.LC38
 5127 03b8 1C020000 		.word	.LC41
 5128 03bc 5C020000 		.word	.LC42
 5129 03c0 A0020000 		.word	.LC43
 5130 03c4 00000000 		.word	mqtt_tcp_connect_cb
 5131 03c8 00000000 		.word	mqtt_tcp_err_cb
 5132 03cc DC020000 		.word	.LC44
 5133              		.cfi_endproc
 5134              	.LFE202:
 5136              		.section	.rodata.mqtt_disconnect.str1.4,"aMS",%progbits,1
 5137              		.align	2
 5138              	.LC45:
 5139 0000 6D717474 		.ascii	"mqtt_disconnect: client != NULL\000"
 5139      5F646973 
 5139      636F6E6E 
 5139      6563743A 
 5139      20636C69 
 5140              		.section	.text.mqtt_disconnect,"ax",%progbits
 5141              		.align	1
ARM GAS  /tmp/ccVfyJBo.s 			page 137


 5142              		.global	mqtt_disconnect
 5143              		.syntax unified
 5144              		.thumb
 5145              		.thumb_func
 5147              	mqtt_disconnect:
 5148              	.LVL577:
 5149              	.LFB203:
1429:Middlewares/Third_Party/LwIP/src/apps/mqtt/mqtt.c **** 
1430:Middlewares/Third_Party/LwIP/src/apps/mqtt/mqtt.c **** 
1431:Middlewares/Third_Party/LwIP/src/apps/mqtt/mqtt.c **** /**
1432:Middlewares/Third_Party/LwIP/src/apps/mqtt/mqtt.c ****  * @ingroup mqtt
1433:Middlewares/Third_Party/LwIP/src/apps/mqtt/mqtt.c ****  * Disconnect from MQTT server
1434:Middlewares/Third_Party/LwIP/src/apps/mqtt/mqtt.c ****  * @param client MQTT client
1435:Middlewares/Third_Party/LwIP/src/apps/mqtt/mqtt.c ****  */
1436:Middlewares/Third_Party/LwIP/src/apps/mqtt/mqtt.c **** void
1437:Middlewares/Third_Party/LwIP/src/apps/mqtt/mqtt.c **** mqtt_disconnect(mqtt_client_t *client)
1438:Middlewares/Third_Party/LwIP/src/apps/mqtt/mqtt.c **** {
 5150              		.loc 1 1438 1 is_stmt 1 view -0
 5151              		.cfi_startproc
 5152              		@ args = 0, pretend = 0, frame = 0
 5153              		@ frame_needed = 0, uses_anonymous_args = 0
 5154              		.loc 1 1438 1 is_stmt 0 view .LVU1482
 5155 0000 10B5     		push	{r4, lr}
 5156              	.LCFI51:
 5157              		.cfi_def_cfa_offset 8
 5158              		.cfi_offset 4, -8
 5159              		.cfi_offset 14, -4
1439:Middlewares/Third_Party/LwIP/src/apps/mqtt/mqtt.c ****   LWIP_ASSERT_CORE_LOCKED();
 5160              		.loc 1 1439 28 is_stmt 1 view .LVU1483
1440:Middlewares/Third_Party/LwIP/src/apps/mqtt/mqtt.c ****   LWIP_ASSERT("mqtt_disconnect: client != NULL", client);
 5161              		.loc 1 1440 3 view .LVU1484
 5162              		.loc 1 1440 3 view .LVU1485
 5163 0002 0446     		mov	r4, r0
 5164 0004 10B1     		cbz	r0, .L387
 5165              	.LVL578:
 5166              	.L384:
 5167              		.loc 1 1440 3 discriminator 3 view .LVU1486
 5168              		.loc 1 1440 3 discriminator 3 view .LVU1487
1441:Middlewares/Third_Party/LwIP/src/apps/mqtt/mqtt.c ****   /* If connection in not already closed */
1442:Middlewares/Third_Party/LwIP/src/apps/mqtt/mqtt.c ****   if (client->conn_state != TCP_DISCONNECTED) {
 5169              		.loc 1 1442 3 discriminator 3 view .LVU1488
 5170              		.loc 1 1442 13 is_stmt 0 discriminator 3 view .LVU1489
 5171 0006 A37A     		ldrb	r3, [r4, #10]	@ zero_extendqisi2
 5172              		.loc 1 1442 6 discriminator 3 view .LVU1490
 5173 0008 43B9     		cbnz	r3, .L388
 5174              	.L383:
1443:Middlewares/Third_Party/LwIP/src/apps/mqtt/mqtt.c ****     /* Set conn_state before calling mqtt_close to prevent callback from being called */
1444:Middlewares/Third_Party/LwIP/src/apps/mqtt/mqtt.c ****     client->conn_state = TCP_DISCONNECTED;
1445:Middlewares/Third_Party/LwIP/src/apps/mqtt/mqtt.c ****     mqtt_close(client, (mqtt_connection_status_t)0);
1446:Middlewares/Third_Party/LwIP/src/apps/mqtt/mqtt.c ****   }
1447:Middlewares/Third_Party/LwIP/src/apps/mqtt/mqtt.c **** }
 5175              		.loc 1 1447 1 view .LVU1491
 5176 000a 10BD     		pop	{r4, pc}
 5177              	.LVL579:
 5178              	.L387:
1440:Middlewares/Third_Party/LwIP/src/apps/mqtt/mqtt.c ****   /* If connection in not already closed */
 5179              		.loc 1 1440 3 is_stmt 1 discriminator 1 view .LVU1492
ARM GAS  /tmp/ccVfyJBo.s 			page 138


1440:Middlewares/Third_Party/LwIP/src/apps/mqtt/mqtt.c ****   /* If connection in not already closed */
 5180              		.loc 1 1440 3 discriminator 1 view .LVU1493
 5181 000c 064B     		ldr	r3, .L389
 5182 000e 4FF4B462 		mov	r2, #1440
 5183 0012 0649     		ldr	r1, .L389+4
 5184 0014 0648     		ldr	r0, .L389+8
 5185              	.LVL580:
1440:Middlewares/Third_Party/LwIP/src/apps/mqtt/mqtt.c ****   /* If connection in not already closed */
 5186              		.loc 1 1440 3 is_stmt 0 discriminator 1 view .LVU1494
 5187 0016 FFF7FEFF 		bl	printf
 5188              	.LVL581:
 5189 001a F4E7     		b	.L384
 5190              	.L388:
1444:Middlewares/Third_Party/LwIP/src/apps/mqtt/mqtt.c ****     mqtt_close(client, (mqtt_connection_status_t)0);
 5191              		.loc 1 1444 5 is_stmt 1 view .LVU1495
1444:Middlewares/Third_Party/LwIP/src/apps/mqtt/mqtt.c ****     mqtt_close(client, (mqtt_connection_status_t)0);
 5192              		.loc 1 1444 24 is_stmt 0 view .LVU1496
 5193 001c 0021     		movs	r1, #0
 5194 001e A172     		strb	r1, [r4, #10]
1445:Middlewares/Third_Party/LwIP/src/apps/mqtt/mqtt.c ****   }
 5195              		.loc 1 1445 5 is_stmt 1 view .LVU1497
 5196 0020 2046     		mov	r0, r4
 5197 0022 FFF7FEFF 		bl	mqtt_close
 5198              	.LVL582:
 5199              		.loc 1 1447 1 is_stmt 0 view .LVU1498
 5200 0026 F0E7     		b	.L383
 5201              	.L390:
 5202              		.align	2
 5203              	.L389:
 5204 0028 00000000 		.word	.LC0
 5205 002c 00000000 		.word	.LC45
 5206 0030 58000000 		.word	.LC2
 5207              		.cfi_endproc
 5208              	.LFE203:
 5210              		.section	.rodata.mqtt_client_is_connected.str1.4,"aMS",%progbits,1
 5211              		.align	2
 5212              	.LC46:
 5213 0000 6D717474 		.ascii	"mqtt_client_is_connected: client != NULL\000"
 5213      5F636C69 
 5213      656E745F 
 5213      69735F63 
 5213      6F6E6E65 
 5214              		.section	.text.mqtt_client_is_connected,"ax",%progbits
 5215              		.align	1
 5216              		.global	mqtt_client_is_connected
 5217              		.syntax unified
 5218              		.thumb
 5219              		.thumb_func
 5221              	mqtt_client_is_connected:
 5222              	.LVL583:
 5223              	.LFB204:
1448:Middlewares/Third_Party/LwIP/src/apps/mqtt/mqtt.c **** 
1449:Middlewares/Third_Party/LwIP/src/apps/mqtt/mqtt.c **** /**
1450:Middlewares/Third_Party/LwIP/src/apps/mqtt/mqtt.c ****  * @ingroup mqtt
1451:Middlewares/Third_Party/LwIP/src/apps/mqtt/mqtt.c ****  * Check connection with server
1452:Middlewares/Third_Party/LwIP/src/apps/mqtt/mqtt.c ****  * @param client MQTT client
1453:Middlewares/Third_Party/LwIP/src/apps/mqtt/mqtt.c ****  * @return 1 if connected to server, 0 otherwise
ARM GAS  /tmp/ccVfyJBo.s 			page 139


1454:Middlewares/Third_Party/LwIP/src/apps/mqtt/mqtt.c ****  */
1455:Middlewares/Third_Party/LwIP/src/apps/mqtt/mqtt.c **** u8_t
1456:Middlewares/Third_Party/LwIP/src/apps/mqtt/mqtt.c **** mqtt_client_is_connected(mqtt_client_t *client)
1457:Middlewares/Third_Party/LwIP/src/apps/mqtt/mqtt.c **** {
 5224              		.loc 1 1457 1 is_stmt 1 view -0
 5225              		.cfi_startproc
 5226              		@ args = 0, pretend = 0, frame = 0
 5227              		@ frame_needed = 0, uses_anonymous_args = 0
 5228              		.loc 1 1457 1 is_stmt 0 view .LVU1500
 5229 0000 10B5     		push	{r4, lr}
 5230              	.LCFI52:
 5231              		.cfi_def_cfa_offset 8
 5232              		.cfi_offset 4, -8
 5233              		.cfi_offset 14, -4
1458:Middlewares/Third_Party/LwIP/src/apps/mqtt/mqtt.c ****   LWIP_ASSERT_CORE_LOCKED();
 5234              		.loc 1 1458 28 is_stmt 1 view .LVU1501
1459:Middlewares/Third_Party/LwIP/src/apps/mqtt/mqtt.c ****   LWIP_ASSERT("mqtt_client_is_connected: client != NULL", client);
 5235              		.loc 1 1459 3 view .LVU1502
 5236              		.loc 1 1459 3 view .LVU1503
 5237 0002 0446     		mov	r4, r0
 5238 0004 28B1     		cbz	r0, .L394
 5239              	.LVL584:
 5240              	.L392:
 5241              		.loc 1 1459 3 discriminator 3 view .LVU1504
 5242              		.loc 1 1459 3 discriminator 3 view .LVU1505
1460:Middlewares/Third_Party/LwIP/src/apps/mqtt/mqtt.c ****   return client->conn_state == MQTT_CONNECTED;
 5243              		.loc 1 1460 3 discriminator 3 view .LVU1506
 5244              		.loc 1 1460 16 is_stmt 0 discriminator 3 view .LVU1507
 5245 0006 A07A     		ldrb	r0, [r4, #10]	@ zero_extendqisi2
1461:Middlewares/Third_Party/LwIP/src/apps/mqtt/mqtt.c **** }
 5246              		.loc 1 1461 1 discriminator 3 view .LVU1508
 5247 0008 0328     		cmp	r0, #3
 5248 000a 14BF     		ite	ne
 5249 000c 0020     		movne	r0, #0
 5250 000e 0120     		moveq	r0, #1
 5251 0010 10BD     		pop	{r4, pc}
 5252              	.LVL585:
 5253              	.L394:
1459:Middlewares/Third_Party/LwIP/src/apps/mqtt/mqtt.c ****   LWIP_ASSERT("mqtt_client_is_connected: client != NULL", client);
 5254              		.loc 1 1459 3 is_stmt 1 discriminator 1 view .LVU1509
1459:Middlewares/Third_Party/LwIP/src/apps/mqtt/mqtt.c ****   LWIP_ASSERT("mqtt_client_is_connected: client != NULL", client);
 5255              		.loc 1 1459 3 discriminator 1 view .LVU1510
 5256 0012 044B     		ldr	r3, .L395
 5257 0014 40F2B352 		movw	r2, #1459
 5258 0018 0349     		ldr	r1, .L395+4
 5259 001a 0448     		ldr	r0, .L395+8
 5260              	.LVL586:
1459:Middlewares/Third_Party/LwIP/src/apps/mqtt/mqtt.c ****   LWIP_ASSERT("mqtt_client_is_connected: client != NULL", client);
 5261              		.loc 1 1459 3 is_stmt 0 discriminator 1 view .LVU1511
 5262 001c FFF7FEFF 		bl	printf
 5263              	.LVL587:
 5264 0020 F1E7     		b	.L392
 5265              	.L396:
 5266 0022 00BF     		.align	2
 5267              	.L395:
 5268 0024 00000000 		.word	.LC0
 5269 0028 00000000 		.word	.LC46
ARM GAS  /tmp/ccVfyJBo.s 			page 140


 5270 002c 58000000 		.word	.LC2
 5271              		.cfi_endproc
 5272              	.LFE204:
 5274              		.text
 5275              	.Letext0:
 5276              		.file 2 "/home/lobanov/st/stm32cubeclt_1.12.1/GNU-tools-for-STM32/arm-none-eabi/include/machine/_d
 5277              		.file 3 "/home/lobanov/st/stm32cubeclt_1.12.1/GNU-tools-for-STM32/arm-none-eabi/include/sys/_stdin
 5278              		.file 4 "/home/lobanov/st/stm32cubeclt_1.12.1/GNU-tools-for-STM32/lib/gcc/arm-none-eabi/10.3.1/inc
 5279              		.file 5 "Middlewares/Third_Party/LwIP/src/include/lwip/arch.h"
 5280              		.file 6 "Middlewares/Third_Party/LwIP/src/include/lwip/err.h"
 5281              		.file 7 "Middlewares/Third_Party/LwIP/src/include/lwip/ip4_addr.h"
 5282              		.file 8 "Middlewares/Third_Party/LwIP/src/include/lwip/ip_addr.h"
 5283              		.file 9 "Middlewares/Third_Party/LwIP/src/include/lwip/apps/mqtt.h"
 5284              		.file 10 "Middlewares/Third_Party/LwIP/src/include/lwip/apps/mqtt_priv.h"
 5285              		.file 11 "Middlewares/Third_Party/LwIP/src/include/lwip/tcpbase.h"
 5286              		.file 12 "Middlewares/Third_Party/LwIP/src/include/lwip/mem.h"
 5287              		.file 13 "Middlewares/Third_Party/LwIP/src/include/lwip/pbuf.h"
 5288              		.file 14 "Middlewares/Third_Party/LwIP/src/include/lwip/tcp.h"
 5289              		.file 15 "Middlewares/Third_Party/LwIP/src/include/lwip/timeouts.h"
 5290              		.file 16 "/home/lobanov/st/stm32cubeclt_1.12.1/GNU-tools-for-STM32/arm-none-eabi/include/string.h"
 5291              		.file 17 "/home/lobanov/st/stm32cubeclt_1.12.1/GNU-tools-for-STM32/arm-none-eabi/include/stdio.h"
 5292              		.file 18 "<built-in>"
ARM GAS  /tmp/ccVfyJBo.s 			page 141


DEFINED SYMBOLS
                            *ABS*:0000000000000000 mqtt.c
     /tmp/ccVfyJBo.s:19     .text.msg_generate_packet_id:0000000000000000 $t
     /tmp/ccVfyJBo.s:24     .text.msg_generate_packet_id:0000000000000000 msg_generate_packet_id
     /tmp/ccVfyJBo.s:58     .text.mqtt_ringbuf_put:0000000000000000 $t
     /tmp/ccVfyJBo.s:63     .text.mqtt_ringbuf_put:0000000000000000 mqtt_ringbuf_put
     /tmp/ccVfyJBo.s:97     .text.mqtt_ringbuf_get_ptr:0000000000000000 $t
     /tmp/ccVfyJBo.s:102    .text.mqtt_ringbuf_get_ptr:0000000000000000 mqtt_ringbuf_get_ptr
     /tmp/ccVfyJBo.s:123    .text.mqtt_ringbuf_len:0000000000000000 $t
     /tmp/ccVfyJBo.s:128    .text.mqtt_ringbuf_len:0000000000000000 mqtt_ringbuf_len
     /tmp/ccVfyJBo.s:164    .text.mqtt_delete_request:0000000000000000 $t
     /tmp/ccVfyJBo.s:169    .text.mqtt_delete_request:0000000000000000 mqtt_delete_request
     /tmp/ccVfyJBo.s:191    .text.mqtt_output_append_u8:0000000000000000 $t
     /tmp/ccVfyJBo.s:196    .text.mqtt_output_append_u8:0000000000000000 mqtt_output_append_u8
     /tmp/ccVfyJBo.s:218    .text.mqtt_output_append_u16:0000000000000000 $t
     /tmp/ccVfyJBo.s:223    .text.mqtt_output_append_u16:0000000000000000 mqtt_output_append_u16
     /tmp/ccVfyJBo.s:258    .text.mqtt_output_append_buf:0000000000000000 $t
     /tmp/ccVfyJBo.s:263    .text.mqtt_output_append_buf:0000000000000000 mqtt_output_append_buf
     /tmp/ccVfyJBo.s:316    .text.mqtt_output_append_string:0000000000000000 $t
     /tmp/ccVfyJBo.s:321    .text.mqtt_output_append_string:0000000000000000 mqtt_output_append_string
     /tmp/ccVfyJBo.s:384    .text.mqtt_output_append_fixed_header:0000000000000000 $t
     /tmp/ccVfyJBo.s:389    .text.mqtt_output_append_fixed_header:0000000000000000 mqtt_output_append_fixed_header
     /tmp/ccVfyJBo.s:472    .text.mqtt_incomming_suback:0000000000000000 $t
     /tmp/ccVfyJBo.s:477    .text.mqtt_incomming_suback:0000000000000000 mqtt_incomming_suback
     /tmp/ccVfyJBo.s:521    .rodata.mqtt_create_request.str1.4:0000000000000000 $d
     /tmp/ccVfyJBo.s:531    .text.mqtt_create_request:0000000000000000 $t
     /tmp/ccVfyJBo.s:536    .text.mqtt_create_request:0000000000000000 mqtt_create_request
     /tmp/ccVfyJBo.s:646    .text.mqtt_create_request:0000000000000050 $d
     /tmp/ccVfyJBo.s:653    .rodata.mqtt_output_check_space.str1.4:0000000000000000 $d
     /tmp/ccVfyJBo.s:657    .text.mqtt_output_check_space:0000000000000000 $t
     /tmp/ccVfyJBo.s:662    .text.mqtt_output_check_space:0000000000000000 mqtt_output_check_space
     /tmp/ccVfyJBo.s:736    .text.mqtt_output_check_space:0000000000000038 $d
     /tmp/ccVfyJBo.s:743    .rodata.mqtt_append_request.str1.4:0000000000000000 $d
     /tmp/ccVfyJBo.s:751    .text.mqtt_append_request:0000000000000000 $t
     /tmp/ccVfyJBo.s:756    .text.mqtt_append_request:0000000000000000 mqtt_append_request
     /tmp/ccVfyJBo.s:879    .text.mqtt_append_request:0000000000000054 $d
     /tmp/ccVfyJBo.s:887    .rodata.mqtt_ringbuf_advance_get_idx.str1.4:0000000000000000 $d
     /tmp/ccVfyJBo.s:892    .text.mqtt_ringbuf_advance_get_idx:0000000000000000 $t
     /tmp/ccVfyJBo.s:897    .text.mqtt_ringbuf_advance_get_idx:0000000000000000 mqtt_ringbuf_advance_get_idx
     /tmp/ccVfyJBo.s:958    .text.mqtt_ringbuf_advance_get_idx:000000000000002c $d
     /tmp/ccVfyJBo.s:965    .rodata.mqtt_request_time_elapsed.str1.4:0000000000000000 $d
     /tmp/ccVfyJBo.s:969    .text.mqtt_request_time_elapsed:0000000000000000 $t
     /tmp/ccVfyJBo.s:974    .text.mqtt_request_time_elapsed:0000000000000000 mqtt_request_time_elapsed
     /tmp/ccVfyJBo.s:1088   .text.mqtt_request_time_elapsed:0000000000000058 $d
     /tmp/ccVfyJBo.s:1095   .rodata.mqtt_clear_requests.str1.4:0000000000000000 $d
     /tmp/ccVfyJBo.s:1099   .text.mqtt_clear_requests:0000000000000000 $t
     /tmp/ccVfyJBo.s:1104   .text.mqtt_clear_requests:0000000000000000 mqtt_clear_requests
     /tmp/ccVfyJBo.s:1176   .text.mqtt_clear_requests:000000000000002c $d
     /tmp/ccVfyJBo.s:1183   .rodata.mqtt_take_request.str1.4:0000000000000000 $d
     /tmp/ccVfyJBo.s:1187   .text.mqtt_take_request:0000000000000000 $t
     /tmp/ccVfyJBo.s:1192   .text.mqtt_take_request:0000000000000000 mqtt_take_request
     /tmp/ccVfyJBo.s:1306   .text.mqtt_take_request:000000000000004c $d
     /tmp/ccVfyJBo.s:1313   .rodata.mqtt_init_requests.str1.4:0000000000000000 $d
     /tmp/ccVfyJBo.s:1317   .text.mqtt_init_requests:0000000000000000 $t
     /tmp/ccVfyJBo.s:1322   .text.mqtt_init_requests:0000000000000000 mqtt_init_requests
     /tmp/ccVfyJBo.s:1391   .text.mqtt_init_requests:0000000000000030 $d
     /tmp/ccVfyJBo.s:1398   .rodata.mqtt_output_send.str1.4:0000000000000000 $d
ARM GAS  /tmp/ccVfyJBo.s 			page 142


     /tmp/ccVfyJBo.s:1402   .text.mqtt_output_send:0000000000000000 $t
     /tmp/ccVfyJBo.s:1407   .text.mqtt_output_send:0000000000000000 mqtt_output_send
     /tmp/ccVfyJBo.s:1614   .text.mqtt_output_send:00000000000000e0 $d
     /tmp/ccVfyJBo.s:1621   .text.mqtt_tcp_poll_cb:0000000000000000 $t
     /tmp/ccVfyJBo.s:1626   .text.mqtt_tcp_poll_cb:0000000000000000 mqtt_tcp_poll_cb
     /tmp/ccVfyJBo.s:1667   .text.mqtt_tcp_sent_cb:0000000000000000 $t
     /tmp/ccVfyJBo.s:1672   .text.mqtt_tcp_sent_cb:0000000000000000 mqtt_tcp_sent_cb
     /tmp/ccVfyJBo.s:1765   .text.pub_ack_rec_rel_response:0000000000000000 $t
     /tmp/ccVfyJBo.s:1770   .text.pub_ack_rec_rel_response:0000000000000000 pub_ack_rec_rel_response
     /tmp/ccVfyJBo.s:1854   .rodata.mqtt_message_received.str1.4:0000000000000000 $d
     /tmp/ccVfyJBo.s:1864   .text.mqtt_message_received:0000000000000000 $t
     /tmp/ccVfyJBo.s:1869   .text.mqtt_message_received:0000000000000000 mqtt_message_received
     /tmp/ccVfyJBo.s:2501   .text.mqtt_message_received:00000000000002ac $d
     /tmp/ccVfyJBo.s:2510   .rodata.mqtt_close.str1.4:0000000000000000 $d
     /tmp/ccVfyJBo.s:2514   .text.mqtt_close:0000000000000000 $t
     /tmp/ccVfyJBo.s:2519   .text.mqtt_close:0000000000000000 mqtt_close
     /tmp/ccVfyJBo.s:2642   .text.mqtt_close:000000000000006c $d
     /tmp/ccVfyJBo.s:2730   .text.mqtt_cyclic_timer:0000000000000000 mqtt_cyclic_timer
     /tmp/ccVfyJBo.s:2651   .rodata.mqtt_tcp_err_cb.str1.4:0000000000000000 $d
     /tmp/ccVfyJBo.s:2655   .text.mqtt_tcp_err_cb:0000000000000000 $t
     /tmp/ccVfyJBo.s:2660   .text.mqtt_tcp_err_cb:0000000000000000 mqtt_tcp_err_cb
     /tmp/ccVfyJBo.s:2714   .text.mqtt_tcp_err_cb:0000000000000028 $d
     /tmp/ccVfyJBo.s:2721   .rodata.mqtt_cyclic_timer.str1.4:0000000000000000 $d
     /tmp/ccVfyJBo.s:2725   .text.mqtt_cyclic_timer:0000000000000000 $t
     /tmp/ccVfyJBo.s:2923   .text.mqtt_cyclic_timer:00000000000000c0 $d
     /tmp/ccVfyJBo.s:2931   .text.mqtt_tcp_connect_cb:0000000000000000 $t
     /tmp/ccVfyJBo.s:2936   .text.mqtt_tcp_connect_cb:0000000000000000 mqtt_tcp_connect_cb
     /tmp/ccVfyJBo.s:3018   .text.mqtt_tcp_connect_cb:000000000000004c $d
     /tmp/ccVfyJBo.s:3346   .text.mqtt_tcp_recv_cb:0000000000000000 mqtt_tcp_recv_cb
     /tmp/ccVfyJBo.s:3026   .text.mqtt_parse_incoming:0000000000000000 $t
     /tmp/ccVfyJBo.s:3031   .text.mqtt_parse_incoming:0000000000000000 mqtt_parse_incoming
     /tmp/ccVfyJBo.s:3334   .rodata.mqtt_tcp_recv_cb.str1.4:0000000000000000 $d
     /tmp/ccVfyJBo.s:3341   .text.mqtt_tcp_recv_cb:0000000000000000 $t
     /tmp/ccVfyJBo.s:3488   .text.mqtt_tcp_recv_cb:000000000000007c $d
     /tmp/ccVfyJBo.s:3497   .rodata.mqtt_publish.str1.4:0000000000000000 $d
     /tmp/ccVfyJBo.s:3513   .text.mqtt_publish:0000000000000000 $t
     /tmp/ccVfyJBo.s:3519   .text.mqtt_publish:0000000000000000 mqtt_publish
     /tmp/ccVfyJBo.s:3817   .text.mqtt_publish:0000000000000148 $d
     /tmp/ccVfyJBo.s:3828   .rodata.mqtt_sub_unsub.str1.4:0000000000000000 $d
     /tmp/ccVfyJBo.s:3844   .text.mqtt_sub_unsub:0000000000000000 $t
     /tmp/ccVfyJBo.s:3850   .text.mqtt_sub_unsub:0000000000000000 mqtt_sub_unsub
     /tmp/ccVfyJBo.s:4151   .text.mqtt_sub_unsub:0000000000000148 $d
     /tmp/ccVfyJBo.s:4162   .rodata.mqtt_set_inpub_callback.str1.4:0000000000000000 $d
     /tmp/ccVfyJBo.s:4166   .text.mqtt_set_inpub_callback:0000000000000000 $t
     /tmp/ccVfyJBo.s:4172   .text.mqtt_set_inpub_callback:0000000000000000 mqtt_set_inpub_callback
     /tmp/ccVfyJBo.s:4234   .text.mqtt_set_inpub_callback:0000000000000024 $d
     /tmp/ccVfyJBo.s:4241   .text.mqtt_client_new:0000000000000000 $t
     /tmp/ccVfyJBo.s:4247   .text.mqtt_client_new:0000000000000000 mqtt_client_new
     /tmp/ccVfyJBo.s:4271   .text.mqtt_client_free:0000000000000000 $t
     /tmp/ccVfyJBo.s:4277   .text.mqtt_client_free:0000000000000000 mqtt_client_free
     /tmp/ccVfyJBo.s:4299   .rodata.mqtt_client_connect.str1.4:0000000000000000 $d
     /tmp/ccVfyJBo.s:4351   .text.mqtt_client_connect:0000000000000000 $t
     /tmp/ccVfyJBo.s:4357   .text.mqtt_client_connect:0000000000000000 mqtt_client_connect
     /tmp/ccVfyJBo.s:5114   .text.mqtt_client_connect:0000000000000384 $d
     /tmp/ccVfyJBo.s:5137   .rodata.mqtt_disconnect.str1.4:0000000000000000 $d
     /tmp/ccVfyJBo.s:5141   .text.mqtt_disconnect:0000000000000000 $t
     /tmp/ccVfyJBo.s:5147   .text.mqtt_disconnect:0000000000000000 mqtt_disconnect
ARM GAS  /tmp/ccVfyJBo.s 			page 143


     /tmp/ccVfyJBo.s:5204   .text.mqtt_disconnect:0000000000000028 $d
     /tmp/ccVfyJBo.s:5211   .rodata.mqtt_client_is_connected.str1.4:0000000000000000 $d
     /tmp/ccVfyJBo.s:5215   .text.mqtt_client_is_connected:0000000000000000 $t
     /tmp/ccVfyJBo.s:5221   .text.mqtt_client_is_connected:0000000000000000 mqtt_client_is_connected
     /tmp/ccVfyJBo.s:5268   .text.mqtt_client_is_connected:0000000000000024 $d

UNDEFINED SYMBOLS
printf
tcp_write
tcp_output
tcp_recv
tcp_err
tcp_sent
tcp_close
sys_untimeout
tcp_abort
sys_timeout
tcp_poll
pbuf_get_at
pbuf_copy_partial
tcp_recved
pbuf_free
strlen
mem_calloc
mem_free
memset
tcp_new_ip_type
tcp_arg
tcp_bind
tcp_connect
ip_addr_any
